
/home/schuyler/Documents/projects/Base_Scope/firmware/build/Base_Scope.elf:     file format elf32-littlearm

Sections:
Idx Name          Size      VMA       LMA       File off  Algn
  0 .boot2        00000100  10000000  10000000  00001000  2**0
                  CONTENTS, ALLOC, LOAD, READONLY, CODE
  1 .text         00005060  10000100  10000100  00001100  2**3
                  CONTENTS, ALLOC, LOAD, READONLY, CODE
  2 .rodata       0000032c  10005160  10005160  00006160  2**2
                  CONTENTS, ALLOC, LOAD, READONLY, DATA
  3 .binary_info  00000020  1000548c  1000548c  0000648c  2**2
                  CONTENTS, ALLOC, LOAD, READONLY, DATA
  4 .ram_vector_table 000000c0  20000000  20000000  00009000  2**2
                  ALLOC
  5 .data         00001690  200000c0  100054ac  000070c0  2**4
                  CONTENTS, ALLOC, LOAD, READONLY, CODE
  6 .uninitialized_data 00000000  20001750  20001750  00008750  2**0
                  CONTENTS
  7 .scratch_x    00000000  20040000  20040000  00008750  2**0
                  CONTENTS
  8 .scratch_y    00000000  20041000  20041000  00008750  2**0
                  CONTENTS
  9 .bss          00000dcc  20001750  20001750  00009000  2**3
                  ALLOC
 10 .heap         00000800  2000251c  2000251c  00008750  2**2
                  CONTENTS, READONLY
 11 .stack_dummy  00000800  20041000  20041000  00008f60  2**5
                  CONTENTS, READONLY
 12 .ARM.attributes 00000028  00000000  00000000  00009760  2**0
                  CONTENTS, READONLY
 13 .comment      00000033  00000000  00000000  00009788  2**0
                  CONTENTS, READONLY
 14 .debug_line   000016b9  00000000  00000000  000097bb  2**0
                  CONTENTS, READONLY, DEBUGGING, OCTETS
 15 .debug_info   00004dec  00000000  00000000  0000ae74  2**0
                  CONTENTS, READONLY, DEBUGGING, OCTETS
 16 .debug_abbrev 00001109  00000000  00000000  0000fc60  2**0
                  CONTENTS, READONLY, DEBUGGING, OCTETS
 17 .debug_aranges 00000118  00000000  00000000  00010d70  2**3
                  CONTENTS, READONLY, DEBUGGING, OCTETS
 18 .debug_str    00000a5c  00000000  00000000  00010e88  2**0
                  CONTENTS, READONLY, DEBUGGING, OCTETS
 19 .debug_loc    00001720  00000000  00000000  000118e4  2**0
                  CONTENTS, READONLY, DEBUGGING, OCTETS
 20 .debug_frame  000001a4  00000000  00000000  00013004  2**2
                  CONTENTS, READONLY, DEBUGGING, OCTETS
 21 .debug_ranges 00000050  00000000  00000000  000131a8  2**0
                  CONTENTS, READONLY, DEBUGGING, OCTETS

/home/schuyler/Documents/projects/Base_Scope/firmware/build/Base_Scope.elf:     file format elf32-littlearm


Disassembly of section .boot2:

10000000 <__boot2_start__>:
10000000:	4b32b500 	.word	0x4b32b500
10000004:	60582021 	.word	0x60582021
10000008:	21026898 	.word	0x21026898
1000000c:	60984388 	.word	0x60984388
10000010:	611860d8 	.word	0x611860d8
10000014:	4b2e6158 	.word	0x4b2e6158
10000018:	60992100 	.word	0x60992100
1000001c:	61592102 	.word	0x61592102
10000020:	22f02101 	.word	0x22f02101
10000024:	492b5099 	.word	0x492b5099
10000028:	21016019 	.word	0x21016019
1000002c:	20356099 	.word	0x20356099
10000030:	f844f000 	.word	0xf844f000
10000034:	42902202 	.word	0x42902202
10000038:	2106d014 	.word	0x2106d014
1000003c:	f0006619 	.word	0xf0006619
10000040:	6e19f834 	.word	0x6e19f834
10000044:	66192101 	.word	0x66192101
10000048:	66182000 	.word	0x66182000
1000004c:	f000661a 	.word	0xf000661a
10000050:	6e19f82c 	.word	0x6e19f82c
10000054:	6e196e19 	.word	0x6e196e19
10000058:	f0002005 	.word	0xf0002005
1000005c:	2101f82f 	.word	0x2101f82f
10000060:	d1f94208 	.word	0xd1f94208
10000064:	60992100 	.word	0x60992100
10000068:	6019491b 	.word	0x6019491b
1000006c:	60592100 	.word	0x60592100
10000070:	481b491a 	.word	0x481b491a
10000074:	21016001 	.word	0x21016001
10000078:	21eb6099 	.word	0x21eb6099
1000007c:	21a06619 	.word	0x21a06619
10000080:	f0006619 	.word	0xf0006619
10000084:	2100f812 	.word	0x2100f812
10000088:	49166099 	.word	0x49166099
1000008c:	60014814 	.word	0x60014814
10000090:	60992101 	.word	0x60992101
10000094:	2800bc01 	.word	0x2800bc01
10000098:	4700d000 	.word	0x4700d000
1000009c:	49134812 	.word	0x49134812
100000a0:	c8036008 	.word	0xc8036008
100000a4:	8808f380 	.word	0x8808f380
100000a8:	b5034708 	.word	0xb5034708
100000ac:	20046a99 	.word	0x20046a99
100000b0:	d0fb4201 	.word	0xd0fb4201
100000b4:	42012001 	.word	0x42012001
100000b8:	bd03d1f8 	.word	0xbd03d1f8
100000bc:	6618b502 	.word	0x6618b502
100000c0:	f7ff6618 	.word	0xf7ff6618
100000c4:	6e18fff2 	.word	0x6e18fff2
100000c8:	bd026e18 	.word	0xbd026e18
100000cc:	40020000 	.word	0x40020000
100000d0:	18000000 	.word	0x18000000
100000d4:	00070000 	.word	0x00070000
100000d8:	005f0300 	.word	0x005f0300
100000dc:	00002221 	.word	0x00002221
100000e0:	180000f4 	.word	0x180000f4
100000e4:	a0002022 	.word	0xa0002022
100000e8:	10000100 	.word	0x10000100
100000ec:	e000ed08 	.word	0xe000ed08
	...
100000fc:	7a4eb274 	.word	0x7a4eb274

Disassembly of section .text:

10000100 <__VECTOR_TABLE>:
10000100:	20042000 	.word	0x20042000
10000104:	100001f7 	.word	0x100001f7
10000108:	100001c3 	.word	0x100001c3
1000010c:	100001c5 	.word	0x100001c5
10000110:	100001c1 	.word	0x100001c1
10000114:	100001c1 	.word	0x100001c1
10000118:	100001c1 	.word	0x100001c1
1000011c:	100001c1 	.word	0x100001c1
10000120:	100001c1 	.word	0x100001c1
10000124:	100001c1 	.word	0x100001c1
10000128:	100001c1 	.word	0x100001c1
1000012c:	100001c7 	.word	0x100001c7
10000130:	100001c1 	.word	0x100001c1
10000134:	100001c1 	.word	0x100001c1
10000138:	100001c9 	.word	0x100001c9
1000013c:	100001cb 	.word	0x100001cb
10000140:	100001cd 	.word	0x100001cd
10000144:	100001cd 	.word	0x100001cd
10000148:	100001cd 	.word	0x100001cd
1000014c:	100001cd 	.word	0x100001cd
10000150:	100001cd 	.word	0x100001cd
10000154:	100001cd 	.word	0x100001cd
10000158:	100001cd 	.word	0x100001cd
1000015c:	100001cd 	.word	0x100001cd
10000160:	100001cd 	.word	0x100001cd
10000164:	100001cd 	.word	0x100001cd
10000168:	100001cd 	.word	0x100001cd
1000016c:	100001cd 	.word	0x100001cd
10000170:	100001cd 	.word	0x100001cd
10000174:	100001cd 	.word	0x100001cd
10000178:	100001cd 	.word	0x100001cd
1000017c:	100001cd 	.word	0x100001cd
10000180:	100001cd 	.word	0x100001cd
10000184:	100001cd 	.word	0x100001cd
10000188:	100001cd 	.word	0x100001cd
1000018c:	100001cd 	.word	0x100001cd
10000190:	100001cd 	.word	0x100001cd
10000194:	100001cd 	.word	0x100001cd
10000198:	100001cd 	.word	0x100001cd
1000019c:	100001cd 	.word	0x100001cd
100001a0:	100001cd 	.word	0x100001cd
100001a4:	100001cd 	.word	0x100001cd
100001a8:	100001cd 	.word	0x100001cd
100001ac:	100001cd 	.word	0x100001cd
100001b0:	100001cd 	.word	0x100001cd
100001b4:	100001cd 	.word	0x100001cd
100001b8:	100001cd 	.word	0x100001cd
100001bc:	100001cd 	.word	0x100001cd

100001c0 <isr_invalid>:
100001c0:	be00      	bkpt	0x0000

100001c2 <isr_nmi>:
100001c2:	be00      	bkpt	0x0000

100001c4 <isr_hardfault>:
100001c4:	be00      	bkpt	0x0000

100001c6 <isr_svcall>:
100001c6:	be00      	bkpt	0x0000

100001c8 <isr_pendsv>:
100001c8:	be00      	bkpt	0x0000

100001ca <isr_systick>:
100001ca:	be00      	bkpt	0x0000

100001cc <__unhandled_user_irq>:
100001cc:	f3ef 8005 	mrs	r0, IPSR
100001d0:	3810      	subs	r0, #16

100001d2 <unhandled_user_irq_num_in_r0>:
100001d2:	be00      	bkpt	0x0000

100001d4 <binary_info_header>:
100001d4:	7188ebf2 	.word	0x7188ebf2
100001d8:	1000548c 	.word	0x1000548c
100001dc:	100054ac 	.word	0x100054ac
100001e0:	10000234 	.word	0x10000234
100001e4:	e71aa390 	.word	0xe71aa390

100001e8 <_entry_point>:
100001e8:	2000      	movs	r0, #0
100001ea:	491f      	ldr	r1, [pc, #124]	; (10000268 <hold_non_core0_in_bootrom+0xa>)
100001ec:	6008      	str	r0, [r1, #0]
100001ee:	c806      	ldmia	r0!, {r1, r2}
100001f0:	f381 8808 	msr	MSP, r1
100001f4:	4710      	bx	r2

100001f6 <_reset_handler>:
100001f6:	481d      	ldr	r0, [pc, #116]	; (1000026c <hold_non_core0_in_bootrom+0xe>)
100001f8:	6800      	ldr	r0, [r0, #0]
100001fa:	2800      	cmp	r0, #0
100001fc:	d12f      	bne.n	1000025e <hold_non_core0_in_bootrom>
100001fe:	a40d      	add	r4, pc, #52	; (adr r4, 10000234 <data_cpy_table>)
10000200:	cc0e      	ldmia	r4!, {r1, r2, r3}
10000202:	2900      	cmp	r1, #0
10000204:	d002      	beq.n	1000020c <_reset_handler+0x16>
10000206:	f000 f812 	bl	1000022e <data_cpy>
1000020a:	e7f9      	b.n	10000200 <_reset_handler+0xa>
1000020c:	4918      	ldr	r1, [pc, #96]	; (10000270 <hold_non_core0_in_bootrom+0x12>)
1000020e:	4a19      	ldr	r2, [pc, #100]	; (10000274 <hold_non_core0_in_bootrom+0x16>)
10000210:	2000      	movs	r0, #0
10000212:	e000      	b.n	10000216 <bss_fill_test>

10000214 <bss_fill_loop>:
10000214:	c101      	stmia	r1!, {r0}

10000216 <bss_fill_test>:
10000216:	4291      	cmp	r1, r2
10000218:	d1fc      	bne.n	10000214 <bss_fill_loop>

1000021a <platform_entry>:
1000021a:	4917      	ldr	r1, [pc, #92]	; (10000278 <hold_non_core0_in_bootrom+0x1a>)
1000021c:	4788      	blx	r1
1000021e:	4917      	ldr	r1, [pc, #92]	; (1000027c <hold_non_core0_in_bootrom+0x1e>)
10000220:	4788      	blx	r1
10000222:	4917      	ldr	r1, [pc, #92]	; (10000280 <hold_non_core0_in_bootrom+0x22>)
10000224:	4788      	blx	r1
10000226:	be00      	bkpt	0x0000
10000228:	e7fd      	b.n	10000226 <platform_entry+0xc>

1000022a <data_cpy_loop>:
1000022a:	c901      	ldmia	r1!, {r0}
1000022c:	c201      	stmia	r2!, {r0}

1000022e <data_cpy>:
1000022e:	429a      	cmp	r2, r3
10000230:	d3fb      	bcc.n	1000022a <data_cpy_loop>
10000232:	4770      	bx	lr

10000234 <data_cpy_table>:
10000234:	100054ac 	.word	0x100054ac
10000238:	200000c0 	.word	0x200000c0
1000023c:	20001750 	.word	0x20001750
10000240:	10006b3c 	.word	0x10006b3c
10000244:	20040000 	.word	0x20040000
10000248:	20040000 	.word	0x20040000
1000024c:	10006b3c 	.word	0x10006b3c
10000250:	20041000 	.word	0x20041000
10000254:	20041000 	.word	0x20041000
10000258:	00000000 	.word	0x00000000
1000025c:	4770      	bx	lr

1000025e <hold_non_core0_in_bootrom>:
1000025e:	4809      	ldr	r0, [pc, #36]	; (10000284 <hold_non_core0_in_bootrom+0x26>)
10000260:	f001 fe26 	bl	10001eb0 <rom_func_lookup>
10000264:	4700      	bx	r0
10000266:	0000      	.short	0x0000
10000268:	e000ed08 	.word	0xe000ed08
1000026c:	d0000000 	.word	0xd0000000
10000270:	20001750 	.word	0x20001750
10000274:	2000251c 	.word	0x2000251c
10000278:	10001cf5 	.word	0x10001cf5
1000027c:	1000047d 	.word	0x1000047d
10000280:	10001e1d 	.word	0x10001e1d
10000284:	00005657 	.word	0x00005657

10000288 <__bi_50>:
10000288:	50520006 5360b3ab 10005238              ..RP..`S8R..

10000294 <__bi_38>:
10000294:	50520006 02031c86 10005248              ..RP....HR..

100002a0 <__bi_30>:
100002a0:	50520006 9da22254 10005254              ..RPT"..TR..

100002ac <__bi_22>:
100002ac:	50520005 68f465de 10006b3c              ..RP.e.h<k..

100002b8 <_init>:
100002b8:	b5f8      	push	{r3, r4, r5, r6, r7, lr}
100002ba:	46c0      	nop			; (mov r8, r8)

100002bc <deregister_tm_clones>:
100002bc:	4804      	ldr	r0, [pc, #16]	; (100002d0 <deregister_tm_clones+0x14>)
100002be:	4b05      	ldr	r3, [pc, #20]	; (100002d4 <deregister_tm_clones+0x18>)
100002c0:	b510      	push	{r4, lr}
100002c2:	4283      	cmp	r3, r0
100002c4:	d003      	beq.n	100002ce <deregister_tm_clones+0x12>
100002c6:	4b04      	ldr	r3, [pc, #16]	; (100002d8 <deregister_tm_clones+0x1c>)
100002c8:	2b00      	cmp	r3, #0
100002ca:	d000      	beq.n	100002ce <deregister_tm_clones+0x12>
100002cc:	4798      	blx	r3
100002ce:	bd10      	pop	{r4, pc}
100002d0:	20001750 	.word	0x20001750
100002d4:	20001750 	.word	0x20001750
100002d8:	00000000 	.word	0x00000000

100002dc <register_tm_clones>:
100002dc:	4806      	ldr	r0, [pc, #24]	; (100002f8 <register_tm_clones+0x1c>)
100002de:	4907      	ldr	r1, [pc, #28]	; (100002fc <register_tm_clones+0x20>)
100002e0:	1a09      	subs	r1, r1, r0
100002e2:	108b      	asrs	r3, r1, #2
100002e4:	0fc9      	lsrs	r1, r1, #31
100002e6:	18c9      	adds	r1, r1, r3
100002e8:	b510      	push	{r4, lr}
100002ea:	1049      	asrs	r1, r1, #1
100002ec:	d003      	beq.n	100002f6 <register_tm_clones+0x1a>
100002ee:	4b04      	ldr	r3, [pc, #16]	; (10000300 <register_tm_clones+0x24>)
100002f0:	2b00      	cmp	r3, #0
100002f2:	d000      	beq.n	100002f6 <register_tm_clones+0x1a>
100002f4:	4798      	blx	r3
100002f6:	bd10      	pop	{r4, pc}
100002f8:	20001750 	.word	0x20001750
100002fc:	20001750 	.word	0x20001750
10000300:	00000000 	.word	0x00000000

10000304 <__do_global_dtors_aux>:
10000304:	b510      	push	{r4, lr}
10000306:	4c07      	ldr	r4, [pc, #28]	; (10000324 <__do_global_dtors_aux+0x20>)
10000308:	7823      	ldrb	r3, [r4, #0]
1000030a:	2b00      	cmp	r3, #0
1000030c:	d109      	bne.n	10000322 <__do_global_dtors_aux+0x1e>
1000030e:	f7ff ffd5 	bl	100002bc <deregister_tm_clones>
10000312:	4b05      	ldr	r3, [pc, #20]	; (10000328 <__do_global_dtors_aux+0x24>)
10000314:	2b00      	cmp	r3, #0
10000316:	d002      	beq.n	1000031e <__do_global_dtors_aux+0x1a>
10000318:	4804      	ldr	r0, [pc, #16]	; (1000032c <__do_global_dtors_aux+0x28>)
1000031a:	e000      	b.n	1000031e <__do_global_dtors_aux+0x1a>
1000031c:	bf00      	nop
1000031e:	2301      	movs	r3, #1
10000320:	7023      	strb	r3, [r4, #0]
10000322:	bd10      	pop	{r4, pc}
10000324:	20001a58 	.word	0x20001a58
10000328:	00000000 	.word	0x00000000
1000032c:	10005160 	.word	0x10005160

10000330 <frame_dummy>:
10000330:	4b05      	ldr	r3, [pc, #20]	; (10000348 <frame_dummy+0x18>)
10000332:	b510      	push	{r4, lr}
10000334:	2b00      	cmp	r3, #0
10000336:	d003      	beq.n	10000340 <frame_dummy+0x10>
10000338:	4904      	ldr	r1, [pc, #16]	; (1000034c <frame_dummy+0x1c>)
1000033a:	4805      	ldr	r0, [pc, #20]	; (10000350 <frame_dummy+0x20>)
1000033c:	e000      	b.n	10000340 <frame_dummy+0x10>
1000033e:	bf00      	nop
10000340:	f7ff ffcc 	bl	100002dc <register_tm_clones>
10000344:	bd10      	pop	{r4, pc}
10000346:	46c0      	nop			; (mov r8, r8)
10000348:	00000000 	.word	0x00000000
1000034c:	20001a5c 	.word	0x20001a5c
10000350:	10005160 	.word	0x10005160

10000354 <sampler_init>:
10000354:	b5f0      	push	{r4, r5, r6, r7, lr}
10000356:	b08d      	sub	sp, #52	; 0x34
10000358:	466b      	mov	r3, sp
1000035a:	0015      	movs	r5, r2
1000035c:	4a17      	ldr	r2, [pc, #92]	; (100003bc <sampler_init+0x68>)
1000035e:	3306      	adds	r3, #6
10000360:	801a      	strh	r2, [r3, #0]
10000362:	466a      	mov	r2, sp
10000364:	9302      	str	r3, [sp, #8]
10000366:	2301      	movs	r3, #1
10000368:	000f      	movs	r7, r1
1000036a:	7313      	strb	r3, [r2, #12]
1000036c:	a902      	add	r1, sp, #8
1000036e:	33fe      	adds	r3, #254	; 0xfe
10000370:	0006      	movs	r6, r0
10000372:	7353      	strb	r3, [r2, #13]
10000374:	f004 f9a4 	bl	100046c0 <pio_add_program>
10000378:	2300      	movs	r3, #0
1000037a:	2280      	movs	r2, #128	; 0x80
1000037c:	9307      	str	r3, [sp, #28]
1000037e:	23f8      	movs	r3, #248	; 0xf8
10000380:	0252      	lsls	r2, r2, #9
10000382:	025b      	lsls	r3, r3, #9
10000384:	9204      	str	r2, [sp, #16]
10000386:	9305      	str	r3, [sp, #20]
10000388:	23c0      	movs	r3, #192	; 0xc0
1000038a:	0004      	movs	r4, r0
1000038c:	031b      	lsls	r3, r3, #12
1000038e:	a904      	add	r1, sp, #16
10000390:	2210      	movs	r2, #16
10000392:	a808      	add	r0, sp, #32
10000394:	9306      	str	r3, [sp, #24]
10000396:	f001 fec5 	bl	10002124 <__wrap___aeabi_memcpy>
1000039a:	0322      	lsls	r2, r4, #12
1000039c:	01e3      	lsls	r3, r4, #7
1000039e:	4313      	orrs	r3, r2
100003a0:	9309      	str	r3, [sp, #36]	; 0x24
100003a2:	4b07      	ldr	r3, [pc, #28]	; (100003c0 <sampler_init+0x6c>)
100003a4:	0022      	movs	r2, r4
100003a6:	930a      	str	r3, [sp, #40]	; 0x28
100003a8:	0039      	movs	r1, r7
100003aa:	0030      	movs	r0, r6
100003ac:	03ed      	lsls	r5, r5, #15
100003ae:	ab08      	add	r3, sp, #32
100003b0:	950b      	str	r5, [sp, #44]	; 0x2c
100003b2:	f004 f9e9 	bl	10004788 <pio_sm_init>
100003b6:	b00d      	add	sp, #52	; 0x34
100003b8:	bdf0      	pop	{r4, r5, r6, r7, pc}
100003ba:	46c0      	nop			; (mov r8, r8)
100003bc:	00004008 	.word	0x00004008
100003c0:	800d0000 	.word	0x800d0000

100003c4 <arm_sampler>:
100003c4:	b5f0      	push	{r4, r5, r6, r7, lr}
100003c6:	2501      	movs	r5, #1
100003c8:	464f      	mov	r7, r9
100003ca:	4646      	mov	r6, r8
100003cc:	46d6      	mov	lr, sl
100003ce:	408d      	lsls	r5, r1
100003d0:	b5c0      	push	{r6, r7, lr}
100003d2:	2680      	movs	r6, #128	; 0x80
100003d4:	001f      	movs	r7, r3
100003d6:	ab0a      	add	r3, sp, #40	; 0x28
100003d8:	781b      	ldrb	r3, [r3, #0]
100003da:	0176      	lsls	r6, r6, #5
100003dc:	4699      	mov	r9, r3
100003de:	6803      	ldr	r3, [r0, #0]
100003e0:	43ab      	bics	r3, r5
100003e2:	6003      	str	r3, [r0, #0]
100003e4:	004b      	lsls	r3, r1, #1
100003e6:	185c      	adds	r4, r3, r1
100003e8:	00e4      	lsls	r4, r4, #3
100003ea:	34d0      	adds	r4, #208	; 0xd0
100003ec:	1904      	adds	r4, r0, r4
100003ee:	4334      	orrs	r4, r6
100003f0:	2680      	movs	r6, #128	; 0x80
100003f2:	0636      	lsls	r6, r6, #24
100003f4:	6026      	str	r6, [r4, #0]
100003f6:	6026      	str	r6, [r4, #0]
100003f8:	4e1e      	ldr	r6, [pc, #120]	; (10000474 <arm_sampler+0xb0>)
100003fa:	02d4      	lsls	r4, r2, #11
100003fc:	46a4      	mov	ip, r4
100003fe:	1d0c      	adds	r4, r1, #4
10000400:	42b0      	cmp	r0, r6
10000402:	d000      	beq.n	10000406 <arm_sampler+0x42>
10000404:	3408      	adds	r4, #8
10000406:	4e1c      	ldr	r6, [pc, #112]	; (10000478 <arm_sampler+0xb4>)
10000408:	03e4      	lsls	r4, r4, #15
1000040a:	46b0      	mov	r8, r6
1000040c:	46a2      	mov	sl, r4
1000040e:	4666      	mov	r6, ip
10000410:	4644      	mov	r4, r8
10000412:	4026      	ands	r6, r4
10000414:	0034      	movs	r4, r6
10000416:	4656      	mov	r6, sl
10000418:	4326      	orrs	r6, r4
1000041a:	0034      	movs	r4, r6
1000041c:	2629      	movs	r6, #41	; 0x29
1000041e:	4334      	orrs	r4, r6
10000420:	26a0      	movs	r6, #160	; 0xa0
10000422:	05f6      	lsls	r6, r6, #23
10000424:	46b4      	mov	ip, r6
10000426:	2608      	movs	r6, #8
10000428:	0192      	lsls	r2, r2, #6
1000042a:	4462      	add	r2, ip
1000042c:	46b4      	mov	ip, r6
1000042e:	448c      	add	ip, r1
10000430:	4666      	mov	r6, ip
10000432:	00b6      	lsls	r6, r6, #2
10000434:	46b4      	mov	ip, r6
10000436:	4484      	add	ip, r0
10000438:	4666      	mov	r6, ip
1000043a:	6016      	str	r6, [r2, #0]
1000043c:	9e08      	ldr	r6, [sp, #32]
1000043e:	6057      	str	r7, [r2, #4]
10000440:	6096      	str	r6, [r2, #8]
10000442:	464e      	mov	r6, r9
10000444:	60d4      	str	r4, [r2, #12]
10000446:	1e72      	subs	r2, r6, #1
10000448:	4196      	sbcs	r6, r2
1000044a:	01f2      	lsls	r2, r6, #7
1000044c:	261f      	movs	r6, #31
1000044e:	9c09      	ldr	r4, [sp, #36]	; 0x24
10000450:	185b      	adds	r3, r3, r1
10000452:	4026      	ands	r6, r4
10000454:	4316      	orrs	r6, r2
10000456:	2280      	movs	r2, #128	; 0x80
10000458:	00db      	lsls	r3, r3, #3
1000045a:	0192      	lsls	r2, r2, #6
1000045c:	18c3      	adds	r3, r0, r3
1000045e:	4316      	orrs	r6, r2
10000460:	33d8      	adds	r3, #216	; 0xd8
10000462:	601e      	str	r6, [r3, #0]
10000464:	6803      	ldr	r3, [r0, #0]
10000466:	431d      	orrs	r5, r3
10000468:	6005      	str	r5, [r0, #0]
1000046a:	bce0      	pop	{r5, r6, r7}
1000046c:	46ba      	mov	sl, r7
1000046e:	46b1      	mov	r9, r6
10000470:	46a8      	mov	r8, r5
10000472:	bdf0      	pop	{r4, r5, r6, r7, pc}
10000474:	50200000 	.word	0x50200000
10000478:	ff007ffd 	.word	0xff007ffd

1000047c <main>:
1000047c:	b510      	push	{r4, lr}
1000047e:	b084      	sub	sp, #16
10000480:	f001 ffb8 	bl	100023f4 <stdio_init_all>
10000484:	481f      	ldr	r0, [pc, #124]	; (10000504 <main+0x88>)
10000486:	f001 ff7f 	bl	10002388 <__wrap_puts>
1000048a:	2288      	movs	r2, #136	; 0x88
1000048c:	4b1e      	ldr	r3, [pc, #120]	; (10000508 <main+0x8c>)
1000048e:	0152      	lsls	r2, r2, #5
10000490:	2060      	movs	r0, #96	; 0x60
10000492:	601a      	str	r2, [r3, #0]
10000494:	f001 fe26 	bl	100020e4 <__wrap_malloc>
10000498:	1e04      	subs	r4, r0, #0
1000049a:	d030      	beq.n	100004fe <main+0x82>
1000049c:	2210      	movs	r2, #16
1000049e:	2100      	movs	r1, #0
100004a0:	481a      	ldr	r0, [pc, #104]	; (1000050c <main+0x90>)
100004a2:	f7ff ff57 	bl	10000354 <sampler_init>
100004a6:	481a      	ldr	r0, [pc, #104]	; (10000510 <main+0x94>)
100004a8:	f001 ff6e 	bl	10002388 <__wrap_puts>
100004ac:	2301      	movs	r3, #1
100004ae:	9302      	str	r3, [sp, #8]
100004b0:	330f      	adds	r3, #15
100004b2:	9301      	str	r3, [sp, #4]
100004b4:	3308      	adds	r3, #8
100004b6:	2200      	movs	r2, #0
100004b8:	2100      	movs	r1, #0
100004ba:	9300      	str	r3, [sp, #0]
100004bc:	4813      	ldr	r0, [pc, #76]	; (1000050c <main+0x90>)
100004be:	0023      	movs	r3, r4
100004c0:	f7ff ff80 	bl	100003c4 <arm_sampler>
100004c4:	21a0      	movs	r1, #160	; 0xa0
100004c6:	2280      	movs	r2, #128	; 0x80
100004c8:	05c9      	lsls	r1, r1, #23
100004ca:	0452      	lsls	r2, r2, #17
100004cc:	690b      	ldr	r3, [r1, #16]
100004ce:	4213      	tst	r3, r2
100004d0:	d1fc      	bne.n	100004cc <main+0x50>
100004d2:	2104      	movs	r1, #4
100004d4:	2010      	movs	r0, #16
100004d6:	f000 f823 	bl	10000520 <gpio_set_function>
100004da:	2104      	movs	r1, #4
100004dc:	2011      	movs	r0, #17
100004de:	f000 f81f 	bl	10000520 <gpio_set_function>
100004e2:	2203      	movs	r2, #3
100004e4:	4b0b      	ldr	r3, [pc, #44]	; (10000514 <main+0x98>)
100004e6:	4c0c      	ldr	r4, [pc, #48]	; (10000518 <main+0x9c>)
100004e8:	611a      	str	r2, [r3, #16]
100004ea:	323d      	adds	r2, #61	; 0x3d
100004ec:	605a      	str	r2, [r3, #4]
100004ee:	4a0b      	ldr	r2, [pc, #44]	; (1000051c <main+0xa0>)
100004f0:	60da      	str	r2, [r3, #12]
100004f2:	2201      	movs	r2, #1
100004f4:	601a      	str	r2, [r3, #0]
100004f6:	0020      	movs	r0, r4
100004f8:	f001 ff46 	bl	10002388 <__wrap_puts>
100004fc:	e7fb      	b.n	100004f6 <main+0x7a>
100004fe:	f001 fca9 	bl	10001e54 <hard_assertion_failure>
10000502:	e7cb      	b.n	1000049c <main+0x20>
10000504:	10005160 	.word	0x10005160
10000508:	40030000 	.word	0x40030000
1000050c:	50200000 	.word	0x50200000
10000510:	10005174 	.word	0x10005174
10000514:	40050000 	.word	0x40050000
10000518:	10005184 	.word	0x10005184
1000051c:	00030001 	.word	0x00030001

10000520 <gpio_set_function>:
10000520:	4a09      	ldr	r2, [pc, #36]	; (10000548 <gpio_set_function+0x28>)
10000522:	0083      	lsls	r3, r0, #2
10000524:	4694      	mov	ip, r2
10000526:	2240      	movs	r2, #64	; 0x40
10000528:	4463      	add	r3, ip
1000052a:	b510      	push	{r4, lr}
1000052c:	681c      	ldr	r4, [r3, #0]
1000052e:	00c0      	lsls	r0, r0, #3
10000530:	4062      	eors	r2, r4
10000532:	24c0      	movs	r4, #192	; 0xc0
10000534:	4014      	ands	r4, r2
10000536:	2280      	movs	r2, #128	; 0x80
10000538:	0152      	lsls	r2, r2, #5
1000053a:	4313      	orrs	r3, r2
1000053c:	601c      	str	r4, [r3, #0]
1000053e:	4b03      	ldr	r3, [pc, #12]	; (1000054c <gpio_set_function+0x2c>)
10000540:	469c      	mov	ip, r3
10000542:	4460      	add	r0, ip
10000544:	6041      	str	r1, [r0, #4]
10000546:	bd10      	pop	{r4, pc}
10000548:	4001c004 	.word	0x4001c004
1000054c:	40014000 	.word	0x40014000

10000550 <running_on_fpga>:
10000550:	4b02      	ldr	r3, [pc, #8]	; (1000055c <running_on_fpga+0xc>)
10000552:	6818      	ldr	r0, [r3, #0]
10000554:	0780      	lsls	r0, r0, #30
10000556:	0fc0      	lsrs	r0, r0, #31
10000558:	4770      	bx	lr
1000055a:	46c0      	nop			; (mov r8, r8)
1000055c:	4006c000 	.word	0x4006c000

10000560 <hw_claim_lock>:
10000560:	f3ef 8010 	mrs	r0, PRIMASK
10000564:	b672      	cpsid	i
10000566:	4a03      	ldr	r2, [pc, #12]	; (10000574 <hw_claim_lock+0x14>)
10000568:	6813      	ldr	r3, [r2, #0]
1000056a:	2b00      	cmp	r3, #0
1000056c:	d0fc      	beq.n	10000568 <hw_claim_lock+0x8>
1000056e:	f3bf 8f5f 	dmb	sy
10000572:	4770      	bx	lr
10000574:	d000012c 	.word	0xd000012c

10000578 <hw_claim_unlock>:
10000578:	f3bf 8f5f 	dmb	sy
1000057c:	2200      	movs	r2, #0
1000057e:	4b02      	ldr	r3, [pc, #8]	; (10000588 <hw_claim_unlock+0x10>)
10000580:	601a      	str	r2, [r3, #0]
10000582:	f380 8810 	msr	PRIMASK, r0
10000586:	4770      	bx	lr
10000588:	d000012c 	.word	0xd000012c

1000058c <hw_claim_or_assert>:
1000058c:	b570      	push	{r4, r5, r6, lr}
1000058e:	f3ef 8c10 	mrs	ip, PRIMASK
10000592:	b672      	cpsid	i
10000594:	4d0d      	ldr	r5, [pc, #52]	; (100005cc <hw_claim_or_assert+0x40>)
10000596:	682b      	ldr	r3, [r5, #0]
10000598:	2b00      	cmp	r3, #0
1000059a:	d0fc      	beq.n	10000596 <hw_claim_or_assert+0xa>
1000059c:	f3bf 8f5f 	dmb	sy
100005a0:	2407      	movs	r4, #7
100005a2:	08cb      	lsrs	r3, r1, #3
100005a4:	18c6      	adds	r6, r0, r3
100005a6:	5cc0      	ldrb	r0, [r0, r3]
100005a8:	2301      	movs	r3, #1
100005aa:	400c      	ands	r4, r1
100005ac:	40a3      	lsls	r3, r4
100005ae:	001c      	movs	r4, r3
100005b0:	4004      	ands	r4, r0
100005b2:	4203      	tst	r3, r0
100005b4:	d107      	bne.n	100005c6 <hw_claim_or_assert+0x3a>
100005b6:	4303      	orrs	r3, r0
100005b8:	7033      	strb	r3, [r6, #0]
100005ba:	f3bf 8f5f 	dmb	sy
100005be:	602c      	str	r4, [r5, #0]
100005c0:	f38c 8810 	msr	PRIMASK, ip
100005c4:	bd70      	pop	{r4, r5, r6, pc}
100005c6:	0010      	movs	r0, r2
100005c8:	f001 fc2c 	bl	10001e24 <panic>
100005cc:	d000012c 	.word	0xd000012c

100005d0 <hw_claim_unused_from_range>:
100005d0:	b5f8      	push	{r3, r4, r5, r6, r7, lr}
100005d2:	4647      	mov	r7, r8
100005d4:	46ce      	mov	lr, r9
100005d6:	4688      	mov	r8, r1
100005d8:	b580      	push	{r7, lr}
100005da:	f3ef 8c10 	mrs	ip, PRIMASK
100005de:	b672      	cpsid	i
100005e0:	4d21      	ldr	r5, [pc, #132]	; (10000668 <hw_claim_unused_from_range+0x98>)
100005e2:	682c      	ldr	r4, [r5, #0]
100005e4:	2c00      	cmp	r4, #0
100005e6:	d0fc      	beq.n	100005e2 <hw_claim_unused_from_range+0x12>
100005e8:	f3bf 8f5f 	dmb	sy
100005ec:	429a      	cmp	r2, r3
100005ee:	d82c      	bhi.n	1000064a <hw_claim_unused_from_range+0x7a>
100005f0:	08d4      	lsrs	r4, r2, #3
100005f2:	2707      	movs	r7, #7
100005f4:	5d05      	ldrb	r5, [r0, r4]
100005f6:	1906      	adds	r6, r0, r4
100005f8:	2401      	movs	r4, #1
100005fa:	4017      	ands	r7, r2
100005fc:	40bc      	lsls	r4, r7
100005fe:	422c      	tst	r4, r5
10000600:	d01f      	beq.n	10000642 <hw_claim_unused_from_range+0x72>
10000602:	2107      	movs	r1, #7
10000604:	2701      	movs	r7, #1
10000606:	4689      	mov	r9, r1
10000608:	e009      	b.n	1000061e <hw_claim_unused_from_range+0x4e>
1000060a:	08d4      	lsrs	r4, r2, #3
1000060c:	5d05      	ldrb	r5, [r0, r4]
1000060e:	1906      	adds	r6, r0, r4
10000610:	464c      	mov	r4, r9
10000612:	0039      	movs	r1, r7
10000614:	4014      	ands	r4, r2
10000616:	40a1      	lsls	r1, r4
10000618:	000c      	movs	r4, r1
1000061a:	4229      	tst	r1, r5
1000061c:	d011      	beq.n	10000642 <hw_claim_unused_from_range+0x72>
1000061e:	3201      	adds	r2, #1
10000620:	4293      	cmp	r3, r2
10000622:	d2f2      	bcs.n	1000060a <hw_claim_unused_from_range+0x3a>
10000624:	2001      	movs	r0, #1
10000626:	4240      	negs	r0, r0
10000628:	f3bf 8f5f 	dmb	sy
1000062c:	2200      	movs	r2, #0
1000062e:	4b0e      	ldr	r3, [pc, #56]	; (10000668 <hw_claim_unused_from_range+0x98>)
10000630:	601a      	str	r2, [r3, #0]
10000632:	f38c 8810 	msr	PRIMASK, ip
10000636:	2800      	cmp	r0, #0
10000638:	db0f      	blt.n	1000065a <hw_claim_unused_from_range+0x8a>
1000063a:	bcc0      	pop	{r6, r7}
1000063c:	46b9      	mov	r9, r7
1000063e:	46b0      	mov	r8, r6
10000640:	bdf8      	pop	{r3, r4, r5, r6, r7, pc}
10000642:	432c      	orrs	r4, r5
10000644:	0010      	movs	r0, r2
10000646:	7034      	strb	r4, [r6, #0]
10000648:	e7ee      	b.n	10000628 <hw_claim_unused_from_range+0x58>
1000064a:	f3bf 8f5f 	dmb	sy
1000064e:	2300      	movs	r3, #0
10000650:	602b      	str	r3, [r5, #0]
10000652:	f38c 8810 	msr	PRIMASK, ip
10000656:	2001      	movs	r0, #1
10000658:	4240      	negs	r0, r0
1000065a:	4643      	mov	r3, r8
1000065c:	2b00      	cmp	r3, #0
1000065e:	d0ec      	beq.n	1000063a <hw_claim_unused_from_range+0x6a>
10000660:	9808      	ldr	r0, [sp, #32]
10000662:	f001 fbdf 	bl	10001e24 <panic>
10000666:	46c0      	nop			; (mov r8, r8)
10000668:	d000012c 	.word	0xd000012c

1000066c <spin_locks_reset>:
1000066c:	2100      	movs	r1, #0
1000066e:	4b04      	ldr	r3, [pc, #16]	; (10000680 <spin_locks_reset+0x14>)
10000670:	4a04      	ldr	r2, [pc, #16]	; (10000684 <spin_locks_reset+0x18>)
10000672:	f3bf 8f5f 	dmb	sy
10000676:	c302      	stmia	r3!, {r1}
10000678:	4293      	cmp	r3, r2
1000067a:	d1fa      	bne.n	10000672 <spin_locks_reset+0x6>
1000067c:	4770      	bx	lr
1000067e:	46c0      	nop			; (mov r8, r8)
10000680:	d0000100 	.word	0xd0000100
10000684:	d0000180 	.word	0xd0000180

10000688 <next_striped_spin_lock_num>:
10000688:	4a04      	ldr	r2, [pc, #16]	; (1000069c <next_striped_spin_lock_num+0x14>)
1000068a:	7810      	ldrb	r0, [r2, #0]
1000068c:	1c43      	adds	r3, r0, #1
1000068e:	b2db      	uxtb	r3, r3
10000690:	2b17      	cmp	r3, #23
10000692:	d900      	bls.n	10000696 <next_striped_spin_lock_num+0xe>
10000694:	2310      	movs	r3, #16
10000696:	7013      	strb	r3, [r2, #0]
10000698:	4770      	bx	lr
1000069a:	46c0      	nop			; (mov r8, r8)
1000069c:	20000e18 	.word	0x20000e18

100006a0 <spin_lock_claim_unused>:
100006a0:	b500      	push	{lr}
100006a2:	4b05      	ldr	r3, [pc, #20]	; (100006b8 <spin_lock_claim_unused+0x18>)
100006a4:	b083      	sub	sp, #12
100006a6:	0001      	movs	r1, r0
100006a8:	9300      	str	r3, [sp, #0]
100006aa:	2218      	movs	r2, #24
100006ac:	231f      	movs	r3, #31
100006ae:	4803      	ldr	r0, [pc, #12]	; (100006bc <spin_lock_claim_unused+0x1c>)
100006b0:	f7ff ff8e 	bl	100005d0 <hw_claim_unused_from_range>
100006b4:	b003      	add	sp, #12
100006b6:	bd00      	pop	{pc}
100006b8:	10005194 	.word	0x10005194
100006bc:	20002010 	.word	0x20002010

100006c0 <irq_set_enabled>:
100006c0:	2301      	movs	r3, #1
100006c2:	4083      	lsls	r3, r0
100006c4:	2900      	cmp	r1, #0
100006c6:	d004      	beq.n	100006d2 <irq_set_enabled+0x12>
100006c8:	4a03      	ldr	r2, [pc, #12]	; (100006d8 <irq_set_enabled+0x18>)
100006ca:	6013      	str	r3, [r2, #0]
100006cc:	4a03      	ldr	r2, [pc, #12]	; (100006dc <irq_set_enabled+0x1c>)
100006ce:	6013      	str	r3, [r2, #0]
100006d0:	4770      	bx	lr
100006d2:	4a03      	ldr	r2, [pc, #12]	; (100006e0 <irq_set_enabled+0x20>)
100006d4:	6013      	str	r3, [r2, #0]
100006d6:	e7fb      	b.n	100006d0 <irq_set_enabled+0x10>
100006d8:	e000e280 	.word	0xe000e280
100006dc:	e000e100 	.word	0xe000e100
100006e0:	e000e180 	.word	0xe000e180

100006e4 <irq_set_pending>:
100006e4:	2301      	movs	r3, #1
100006e6:	4083      	lsls	r3, r0
100006e8:	4a01      	ldr	r2, [pc, #4]	; (100006f0 <irq_set_pending+0xc>)
100006ea:	6013      	str	r3, [r2, #0]
100006ec:	4770      	bx	lr
100006ee:	46c0      	nop			; (mov r8, r8)
100006f0:	e000e200 	.word	0xe000e200

100006f4 <irq_has_shared_handler>:
100006f4:	4b08      	ldr	r3, [pc, #32]	; (10000718 <irq_has_shared_handler+0x24>)
100006f6:	3010      	adds	r0, #16
100006f8:	689b      	ldr	r3, [r3, #8]
100006fa:	0080      	lsls	r0, r0, #2
100006fc:	58c3      	ldr	r3, [r0, r3]
100006fe:	2b00      	cmp	r3, #0
10000700:	d007      	beq.n	10000712 <irq_has_shared_handler+0x1e>
10000702:	4a06      	ldr	r2, [pc, #24]	; (1000071c <irq_has_shared_handler+0x28>)
10000704:	2000      	movs	r0, #0
10000706:	1a9b      	subs	r3, r3, r2
10000708:	222f      	movs	r2, #47	; 0x2f
1000070a:	429a      	cmp	r2, r3
1000070c:	4140      	adcs	r0, r0
1000070e:	b2c0      	uxtb	r0, r0
10000710:	4770      	bx	lr
10000712:	2000      	movs	r0, #0
10000714:	e7fc      	b.n	10000710 <irq_has_shared_handler+0x1c>
10000716:	46c0      	nop			; (mov r8, r8)
10000718:	e000ed00 	.word	0xe000ed00
1000071c:	20000e1c 	.word	0x20000e1c

10000720 <irq_get_vtable_handler>:
10000720:	4b02      	ldr	r3, [pc, #8]	; (1000072c <irq_get_vtable_handler+0xc>)
10000722:	3010      	adds	r0, #16
10000724:	689b      	ldr	r3, [r3, #8]
10000726:	0080      	lsls	r0, r0, #2
10000728:	58c0      	ldr	r0, [r0, r3]
1000072a:	4770      	bx	lr
1000072c:	e000ed00 	.word	0xe000ed00

10000730 <irq_set_exclusive_handler>:
10000730:	b570      	push	{r4, r5, r6, lr}
10000732:	000d      	movs	r5, r1
10000734:	f3ef 8610 	mrs	r6, PRIMASK
10000738:	b672      	cpsid	i
1000073a:	4a0f      	ldr	r2, [pc, #60]	; (10000778 <irq_set_exclusive_handler+0x48>)
1000073c:	6813      	ldr	r3, [r2, #0]
1000073e:	2b00      	cmp	r3, #0
10000740:	d0fc      	beq.n	1000073c <irq_set_exclusive_handler+0xc>
10000742:	f3bf 8f5f 	dmb	sy
10000746:	4b0d      	ldr	r3, [pc, #52]	; (1000077c <irq_set_exclusive_handler+0x4c>)
10000748:	3010      	adds	r0, #16
1000074a:	689b      	ldr	r3, [r3, #8]
1000074c:	0084      	lsls	r4, r0, #2
1000074e:	591b      	ldr	r3, [r3, r4]
10000750:	4a0b      	ldr	r2, [pc, #44]	; (10000780 <irq_set_exclusive_handler+0x50>)
10000752:	4293      	cmp	r3, r2
10000754:	d003      	beq.n	1000075e <irq_set_exclusive_handler+0x2e>
10000756:	429d      	cmp	r5, r3
10000758:	d001      	beq.n	1000075e <irq_set_exclusive_handler+0x2e>
1000075a:	f001 fb7b 	bl	10001e54 <hard_assertion_failure>
1000075e:	4b07      	ldr	r3, [pc, #28]	; (1000077c <irq_set_exclusive_handler+0x4c>)
10000760:	689b      	ldr	r3, [r3, #8]
10000762:	511d      	str	r5, [r3, r4]
10000764:	f3bf 8f5f 	dmb	sy
10000768:	f3bf 8f5f 	dmb	sy
1000076c:	2200      	movs	r2, #0
1000076e:	4b02      	ldr	r3, [pc, #8]	; (10000778 <irq_set_exclusive_handler+0x48>)
10000770:	601a      	str	r2, [r3, #0]
10000772:	f386 8810 	msr	PRIMASK, r6
10000776:	bd70      	pop	{r4, r5, r6, pc}
10000778:	d0000124 	.word	0xd0000124
1000077c:	e000ed00 	.word	0xe000ed00
10000780:	100001cd 	.word	0x100001cd

10000784 <irq_add_shared_handler>:
10000784:	b5f0      	push	{r4, r5, r6, r7, lr}
10000786:	4657      	mov	r7, sl
10000788:	464e      	mov	r6, r9
1000078a:	46de      	mov	lr, fp
1000078c:	4645      	mov	r5, r8
1000078e:	b5e0      	push	{r5, r6, r7, lr}
10000790:	b085      	sub	sp, #20
10000792:	0006      	movs	r6, r0
10000794:	9102      	str	r1, [sp, #8]
10000796:	0017      	movs	r7, r2
10000798:	f3ef 8b10 	mrs	fp, PRIMASK
1000079c:	b672      	cpsid	i
1000079e:	4a67      	ldr	r2, [pc, #412]	; (1000093c <irq_add_shared_handler+0x1b8>)
100007a0:	6813      	ldr	r3, [r2, #0]
100007a2:	2b00      	cmp	r3, #0
100007a4:	d0fc      	beq.n	100007a0 <irq_add_shared_handler+0x1c>
100007a6:	f3bf 8f5f 	dmb	sy
100007aa:	2500      	movs	r5, #0
100007ac:	4b64      	ldr	r3, [pc, #400]	; (10000940 <irq_add_shared_handler+0x1bc>)
100007ae:	575d      	ldrsb	r5, [r3, r5]
100007b0:	469a      	mov	sl, r3
100007b2:	2d00      	cmp	r5, #0
100007b4:	da00      	bge.n	100007b8 <irq_add_shared_handler+0x34>
100007b6:	e0a4      	b.n	10000902 <irq_add_shared_handler+0x17e>
100007b8:	006b      	lsls	r3, r5, #1
100007ba:	4c62      	ldr	r4, [pc, #392]	; (10000944 <irq_add_shared_handler+0x1c0>)
100007bc:	9303      	str	r3, [sp, #12]
100007be:	195b      	adds	r3, r3, r5
100007c0:	009b      	lsls	r3, r3, #2
100007c2:	4698      	mov	r8, r3
100007c4:	46a1      	mov	r9, r4
100007c6:	44c1      	add	r9, r8
100007c8:	464b      	mov	r3, r9
100007ca:	4652      	mov	r2, sl
100007cc:	799b      	ldrb	r3, [r3, #6]
100007ce:	3610      	adds	r6, #16
100007d0:	7013      	strb	r3, [r2, #0]
100007d2:	4b5d      	ldr	r3, [pc, #372]	; (10000948 <irq_add_shared_handler+0x1c4>)
100007d4:	00b2      	lsls	r2, r6, #2
100007d6:	689b      	ldr	r3, [r3, #8]
100007d8:	9201      	str	r2, [sp, #4]
100007da:	5899      	ldr	r1, [r3, r2]
100007dc:	1b0b      	subs	r3, r1, r4
100007de:	2b2f      	cmp	r3, #47	; 0x2f
100007e0:	d934      	bls.n	1000084c <irq_add_shared_handler+0xc8>
100007e2:	4b5a      	ldr	r3, [pc, #360]	; (1000094c <irq_add_shared_handler+0x1c8>)
100007e4:	4299      	cmp	r1, r3
100007e6:	d000      	beq.n	100007ea <irq_add_shared_handler+0x66>
100007e8:	e0a4      	b.n	10000934 <irq_add_shared_handler+0x1b0>
100007ea:	9b03      	ldr	r3, [sp, #12]
100007ec:	4a58      	ldr	r2, [pc, #352]	; (10000950 <irq_add_shared_handler+0x1cc>)
100007ee:	469c      	mov	ip, r3
100007f0:	4b58      	ldr	r3, [pc, #352]	; (10000954 <irq_add_shared_handler+0x1d0>)
100007f2:	4465      	add	r5, ip
100007f4:	00ad      	lsls	r5, r5, #2
100007f6:	5363      	strh	r3, [r4, r5]
100007f8:	4643      	mov	r3, r8
100007fa:	3302      	adds	r3, #2
100007fc:	1965      	adds	r5, r4, r5
100007fe:	18e4      	adds	r4, r4, r3
10000800:	4b55      	ldr	r3, [pc, #340]	; (10000958 <irq_add_shared_handler+0x1d4>)
10000802:	2101      	movs	r1, #1
10000804:	3b04      	subs	r3, #4
10000806:	1b1b      	subs	r3, r3, r4
10000808:	051b      	lsls	r3, r3, #20
1000080a:	0d5b      	lsrs	r3, r3, #21
1000080c:	4313      	orrs	r3, r2
1000080e:	806b      	strh	r3, [r5, #2]
10000810:	4b52      	ldr	r3, [pc, #328]	; (1000095c <irq_add_shared_handler+0x1d8>)
10000812:	71ef      	strb	r7, [r5, #7]
10000814:	80ab      	strh	r3, [r5, #4]
10000816:	23ff      	movs	r3, #255	; 0xff
10000818:	71ab      	strb	r3, [r5, #6]
1000081a:	9b02      	ldr	r3, [sp, #8]
1000081c:	60ab      	str	r3, [r5, #8]
1000081e:	464b      	mov	r3, r9
10000820:	430b      	orrs	r3, r1
10000822:	0019      	movs	r1, r3
10000824:	4b48      	ldr	r3, [pc, #288]	; (10000948 <irq_add_shared_handler+0x1c4>)
10000826:	9a01      	ldr	r2, [sp, #4]
10000828:	689b      	ldr	r3, [r3, #8]
1000082a:	5099      	str	r1, [r3, r2]
1000082c:	f3bf 8f5f 	dmb	sy
10000830:	f3bf 8f5f 	dmb	sy
10000834:	2200      	movs	r2, #0
10000836:	4b41      	ldr	r3, [pc, #260]	; (1000093c <irq_add_shared_handler+0x1b8>)
10000838:	601a      	str	r2, [r3, #0]
1000083a:	f38b 8810 	msr	PRIMASK, fp
1000083e:	b005      	add	sp, #20
10000840:	bcf0      	pop	{r4, r5, r6, r7}
10000842:	46bb      	mov	fp, r7
10000844:	46b2      	mov	sl, r6
10000846:	46a9      	mov	r9, r5
10000848:	46a0      	mov	r8, r4
1000084a:	bdf0      	pop	{r4, r5, r6, r7, pc}
1000084c:	2001      	movs	r0, #1
1000084e:	000a      	movs	r2, r1
10000850:	4382      	bics	r2, r0
10000852:	79d3      	ldrb	r3, [r2, #7]
10000854:	42bb      	cmp	r3, r7
10000856:	d82f      	bhi.n	100008b8 <irq_add_shared_handler+0x134>
10000858:	4645      	mov	r5, r8
1000085a:	464e      	mov	r6, r9
1000085c:	0013      	movs	r3, r2
1000085e:	4940      	ldr	r1, [pc, #256]	; (10000960 <irq_add_shared_handler+0x1dc>)
10000860:	1b1b      	subs	r3, r3, r4
10000862:	415b      	adcs	r3, r3
10000864:	4359      	muls	r1, r3
10000866:	0d09      	lsrs	r1, r1, #20
10000868:	4b3a      	ldr	r3, [pc, #232]	; (10000954 <irq_add_shared_handler+0x1d0>)
1000086a:	5363      	strh	r3, [r4, r5]
1000086c:	4b3a      	ldr	r3, [pc, #232]	; (10000958 <irq_add_shared_handler+0x1d4>)
1000086e:	3502      	adds	r5, #2
10000870:	1965      	adds	r5, r4, r5
10000872:	3b04      	subs	r3, #4
10000874:	1b5b      	subs	r3, r3, r5
10000876:	051b      	lsls	r3, r3, #20
10000878:	4d35      	ldr	r5, [pc, #212]	; (10000950 <irq_add_shared_handler+0x1cc>)
1000087a:	0d5b      	lsrs	r3, r3, #21
1000087c:	432b      	orrs	r3, r5
1000087e:	8073      	strh	r3, [r6, #2]
10000880:	2604      	movs	r6, #4
10000882:	46b4      	mov	ip, r6
10000884:	44e0      	add	r8, ip
10000886:	4444      	add	r4, r8
10000888:	1f13      	subs	r3, r2, #4
1000088a:	1b1b      	subs	r3, r3, r4
1000088c:	464c      	mov	r4, r9
1000088e:	71a1      	strb	r1, [r4, #6]
10000890:	9902      	ldr	r1, [sp, #8]
10000892:	051b      	lsls	r3, r3, #20
10000894:	60a1      	str	r1, [r4, #8]
10000896:	4649      	mov	r1, r9
10000898:	0d5b      	lsrs	r3, r3, #21
1000089a:	432b      	orrs	r3, r5
1000089c:	80a3      	strh	r3, [r4, #4]
1000089e:	4b31      	ldr	r3, [pc, #196]	; (10000964 <irq_add_shared_handler+0x1e0>)
100008a0:	71e7      	strb	r7, [r4, #7]
100008a2:	4301      	orrs	r1, r0
100008a4:	6013      	str	r3, [r2, #0]
100008a6:	e7bd      	b.n	10000824 <irq_add_shared_handler+0xa0>
100008a8:	0058      	lsls	r0, r3, #1
100008aa:	18c0      	adds	r0, r0, r3
100008ac:	0080      	lsls	r0, r0, #2
100008ae:	1820      	adds	r0, r4, r0
100008b0:	79c6      	ldrb	r6, [r0, #7]
100008b2:	42be      	cmp	r6, r7
100008b4:	d92b      	bls.n	1000090e <irq_add_shared_handler+0x18a>
100008b6:	0002      	movs	r2, r0
100008b8:	2306      	movs	r3, #6
100008ba:	56d3      	ldrsb	r3, [r2, r3]
100008bc:	2b00      	cmp	r3, #0
100008be:	daf3      	bge.n	100008a8 <irq_add_shared_handler+0x124>
100008c0:	1d10      	adds	r0, r2, #4
100008c2:	4682      	mov	sl, r0
100008c4:	4828      	ldr	r0, [pc, #160]	; (10000968 <irq_add_shared_handler+0x1e4>)
100008c6:	4680      	mov	r8, r0
100008c8:	2604      	movs	r6, #4
100008ca:	4276      	negs	r6, r6
100008cc:	46b4      	mov	ip, r6
100008ce:	44e1      	add	r9, ip
100008d0:	4650      	mov	r0, sl
100008d2:	464e      	mov	r6, r9
100008d4:	1a36      	subs	r6, r6, r0
100008d6:	0530      	lsls	r0, r6, #20
100008d8:	0d40      	lsrs	r0, r0, #21
100008da:	4682      	mov	sl, r0
100008dc:	4656      	mov	r6, sl
100008de:	481c      	ldr	r0, [pc, #112]	; (10000950 <irq_add_shared_handler+0x1cc>)
100008e0:	7195      	strb	r5, [r2, #6]
100008e2:	4306      	orrs	r6, r0
100008e4:	8096      	strh	r6, [r2, #4]
100008e6:	9a03      	ldr	r2, [sp, #12]
100008e8:	4694      	mov	ip, r2
100008ea:	4465      	add	r5, ip
100008ec:	4a1d      	ldr	r2, [pc, #116]	; (10000964 <irq_add_shared_handler+0x1e0>)
100008ee:	00ad      	lsls	r5, r5, #2
100008f0:	1964      	adds	r4, r4, r5
100008f2:	6022      	str	r2, [r4, #0]
100008f4:	4642      	mov	r2, r8
100008f6:	71a3      	strb	r3, [r4, #6]
100008f8:	9b02      	ldr	r3, [sp, #8]
100008fa:	80a2      	strh	r2, [r4, #4]
100008fc:	71e7      	strb	r7, [r4, #7]
100008fe:	60a3      	str	r3, [r4, #8]
10000900:	e790      	b.n	10000824 <irq_add_shared_handler+0xa0>
10000902:	f001 faa7 	bl	10001e54 <hard_assertion_failure>
10000906:	2500      	movs	r5, #0
10000908:	4653      	mov	r3, sl
1000090a:	575d      	ldrsb	r5, [r3, r5]
1000090c:	e754      	b.n	100007b8 <irq_add_shared_handler+0x34>
1000090e:	1d10      	adds	r0, r2, #4
10000910:	4682      	mov	sl, r0
10000912:	8890      	ldrh	r0, [r2, #4]
10000914:	0540      	lsls	r0, r0, #21
10000916:	1500      	asrs	r0, r0, #20
10000918:	4684      	mov	ip, r0
1000091a:	4640      	mov	r0, r8
1000091c:	44d4      	add	ip, sl
1000091e:	4666      	mov	r6, ip
10000920:	3004      	adds	r0, #4
10000922:	1820      	adds	r0, r4, r0
10000924:	1a30      	subs	r0, r6, r0
10000926:	26e0      	movs	r6, #224	; 0xe0
10000928:	0500      	lsls	r0, r0, #20
1000092a:	0d40      	lsrs	r0, r0, #21
1000092c:	0236      	lsls	r6, r6, #8
1000092e:	4330      	orrs	r0, r6
10000930:	4680      	mov	r8, r0
10000932:	e7c9      	b.n	100008c8 <irq_add_shared_handler+0x144>
10000934:	f001 fa8e 	bl	10001e54 <hard_assertion_failure>
10000938:	e757      	b.n	100007ea <irq_add_shared_handler+0x66>
1000093a:	46c0      	nop			; (mov r8, r8)
1000093c:	d0000124 	.word	0xd0000124
10000940:	20002515 	.word	0x20002515
10000944:	20000e1c 	.word	0x20000e1c
10000948:	e000ed00 	.word	0xe000ed00
1000094c:	100001cd 	.word	0x100001cd
10000950:	ffffe000 	.word	0xffffe000
10000954:	ffffa100 	.word	0xffffa100
10000958:	20000e4c 	.word	0x20000e4c
1000095c:	ffffbd01 	.word	0xffffbd01
10000960:	0000aaaa 	.word	0x0000aaaa
10000964:	47804801 	.word	0x47804801
10000968:	0000bd01 	.word	0x0000bd01

1000096c <irq_remove_handler>:
1000096c:	b5f0      	push	{r4, r5, r6, r7, lr}
1000096e:	46de      	mov	lr, fp
10000970:	4657      	mov	r7, sl
10000972:	464e      	mov	r6, r9
10000974:	4645      	mov	r5, r8
10000976:	b5e0      	push	{r5, r6, r7, lr}
10000978:	000c      	movs	r4, r1
1000097a:	b083      	sub	sp, #12
1000097c:	f3ef 8910 	mrs	r9, PRIMASK
10000980:	b672      	cpsid	i
10000982:	4a58      	ldr	r2, [pc, #352]	; (10000ae4 <irq_remove_handler+0x178>)
10000984:	6813      	ldr	r3, [r2, #0]
10000986:	2b00      	cmp	r3, #0
10000988:	d0fc      	beq.n	10000984 <irq_remove_handler+0x18>
1000098a:	f3bf 8f5f 	dmb	sy
1000098e:	4b56      	ldr	r3, [pc, #344]	; (10000ae8 <irq_remove_handler+0x17c>)
10000990:	689a      	ldr	r2, [r3, #8]
10000992:	0003      	movs	r3, r0
10000994:	3310      	adds	r3, #16
10000996:	009f      	lsls	r7, r3, #2
10000998:	59d5      	ldr	r5, [r2, r7]
1000099a:	4a54      	ldr	r2, [pc, #336]	; (10000aec <irq_remove_handler+0x180>)
1000099c:	4690      	mov	r8, r2
1000099e:	4295      	cmp	r5, r2
100009a0:	d032      	beq.n	10000a08 <irq_remove_handler+0x9c>
100009a2:	42a5      	cmp	r5, r4
100009a4:	d043      	beq.n	10000a2e <irq_remove_handler+0xc2>
100009a6:	4e52      	ldr	r6, [pc, #328]	; (10000af0 <irq_remove_handler+0x184>)
100009a8:	1baa      	subs	r2, r5, r6
100009aa:	2a2f      	cmp	r2, #47	; 0x2f
100009ac:	d82c      	bhi.n	10000a08 <irq_remove_handler+0x9c>
100009ae:	2201      	movs	r2, #1
100009b0:	4082      	lsls	r2, r0
100009b2:	4692      	mov	sl, r2
100009b4:	4651      	mov	r1, sl
100009b6:	4a4f      	ldr	r2, [pc, #316]	; (10000af4 <irq_remove_handler+0x188>)
100009b8:	6812      	ldr	r2, [r2, #0]
100009ba:	4011      	ands	r1, r2
100009bc:	9101      	str	r1, [sp, #4]
100009be:	4651      	mov	r1, sl
100009c0:	4a4d      	ldr	r2, [pc, #308]	; (10000af8 <irq_remove_handler+0x18c>)
100009c2:	6011      	str	r1, [r2, #0]
100009c4:	f3bf 8f5f 	dmb	sy
100009c8:	f3ef 8205 	mrs	r2, IPSR
100009cc:	4693      	mov	fp, r2
100009ce:	2a00      	cmp	r2, #0
100009d0:	d133      	bne.n	10000a3a <irq_remove_handler+0xce>
100009d2:	2301      	movs	r3, #1
100009d4:	002a      	movs	r2, r5
100009d6:	439a      	bics	r2, r3
100009d8:	6893      	ldr	r3, [r2, #8]
100009da:	429c      	cmp	r4, r3
100009dc:	d108      	bne.n	100009f0 <irq_remove_handler+0x84>
100009de:	e077      	b.n	10000ad0 <irq_remove_handler+0x164>
100009e0:	004b      	lsls	r3, r1, #1
100009e2:	185b      	adds	r3, r3, r1
100009e4:	009b      	lsls	r3, r3, #2
100009e6:	18f3      	adds	r3, r6, r3
100009e8:	6899      	ldr	r1, [r3, #8]
100009ea:	42a1      	cmp	r1, r4
100009ec:	d02a      	beq.n	10000a44 <irq_remove_handler+0xd8>
100009ee:	001a      	movs	r2, r3
100009f0:	2106      	movs	r1, #6
100009f2:	5651      	ldrsb	r1, [r2, r1]
100009f4:	2900      	cmp	r1, #0
100009f6:	daf3      	bge.n	100009e0 <irq_remove_handler+0x74>
100009f8:	9b01      	ldr	r3, [sp, #4]
100009fa:	2b00      	cmp	r3, #0
100009fc:	d019      	beq.n	10000a32 <irq_remove_handler+0xc6>
100009fe:	4652      	mov	r2, sl
10000a00:	4b3e      	ldr	r3, [pc, #248]	; (10000afc <irq_remove_handler+0x190>)
10000a02:	601a      	str	r2, [r3, #0]
10000a04:	4b3b      	ldr	r3, [pc, #236]	; (10000af4 <irq_remove_handler+0x188>)
10000a06:	601a      	str	r2, [r3, #0]
10000a08:	4b37      	ldr	r3, [pc, #220]	; (10000ae8 <irq_remove_handler+0x17c>)
10000a0a:	689b      	ldr	r3, [r3, #8]
10000a0c:	51dd      	str	r5, [r3, r7]
10000a0e:	f3bf 8f5f 	dmb	sy
10000a12:	f3bf 8f5f 	dmb	sy
10000a16:	2200      	movs	r2, #0
10000a18:	4b32      	ldr	r3, [pc, #200]	; (10000ae4 <irq_remove_handler+0x178>)
10000a1a:	601a      	str	r2, [r3, #0]
10000a1c:	f389 8810 	msr	PRIMASK, r9
10000a20:	b003      	add	sp, #12
10000a22:	bcf0      	pop	{r4, r5, r6, r7}
10000a24:	46bb      	mov	fp, r7
10000a26:	46b2      	mov	sl, r6
10000a28:	46a9      	mov	r9, r5
10000a2a:	46a0      	mov	r8, r4
10000a2c:	bdf0      	pop	{r4, r5, r6, r7, pc}
10000a2e:	0015      	movs	r5, r2
10000a30:	e7ea      	b.n	10000a08 <irq_remove_handler+0x9c>
10000a32:	4652      	mov	r2, sl
10000a34:	4b30      	ldr	r3, [pc, #192]	; (10000af8 <irq_remove_handler+0x18c>)
10000a36:	601a      	str	r2, [r3, #0]
10000a38:	e7e6      	b.n	10000a08 <irq_remove_handler+0x9c>
10000a3a:	4293      	cmp	r3, r2
10000a3c:	d0c9      	beq.n	100009d2 <irq_remove_handler+0x66>
10000a3e:	f001 fa09 	bl	10001e54 <hard_assertion_failure>
10000a42:	e7c6      	b.n	100009d2 <irq_remove_handler+0x66>
10000a44:	2106      	movs	r1, #6
10000a46:	5659      	ldrsb	r1, [r3, r1]
10000a48:	2900      	cmp	r1, #0
10000a4a:	db21      	blt.n	10000a90 <irq_remove_handler+0x124>
10000a4c:	004a      	lsls	r2, r1, #1
10000a4e:	1850      	adds	r0, r2, r1
10000a50:	0080      	lsls	r0, r0, #2
10000a52:	1834      	adds	r4, r6, r0
10000a54:	4680      	mov	r8, r0
10000a56:	68a0      	ldr	r0, [r4, #8]
10000a58:	6098      	str	r0, [r3, #8]
10000a5a:	79e0      	ldrb	r0, [r4, #7]
10000a5c:	71d8      	strb	r0, [r3, #7]
10000a5e:	2006      	movs	r0, #6
10000a60:	5620      	ldrsb	r0, [r4, r0]
10000a62:	7198      	strb	r0, [r3, #6]
10000a64:	2800      	cmp	r0, #0
10000a66:	db24      	blt.n	10000ab2 <irq_remove_handler+0x146>
10000a68:	88a4      	ldrh	r4, [r4, #4]
10000a6a:	1af0      	subs	r0, r6, r3
10000a6c:	0564      	lsls	r4, r4, #21
10000a6e:	1524      	asrs	r4, r4, #20
10000a70:	4444      	add	r4, r8
10000a72:	1900      	adds	r0, r0, r4
10000a74:	24e0      	movs	r4, #224	; 0xe0
10000a76:	0500      	lsls	r0, r0, #20
10000a78:	0d40      	lsrs	r0, r0, #21
10000a7a:	0224      	lsls	r4, r4, #8
10000a7c:	4320      	orrs	r0, r4
10000a7e:	8098      	strh	r0, [r3, #4]
10000a80:	1852      	adds	r2, r2, r1
10000a82:	4b1f      	ldr	r3, [pc, #124]	; (10000b00 <irq_remove_handler+0x194>)
10000a84:	0092      	lsls	r2, r2, #2
10000a86:	18b6      	adds	r6, r6, r2
10000a88:	781a      	ldrb	r2, [r3, #0]
10000a8a:	7019      	strb	r1, [r3, #0]
10000a8c:	71b2      	strb	r2, [r6, #6]
10000a8e:	e7b3      	b.n	100009f8 <irq_remove_handler+0x8c>
10000a90:	4659      	mov	r1, fp
10000a92:	2900      	cmp	r1, #0
10000a94:	d10f      	bne.n	10000ab6 <irq_remove_handler+0x14a>
10000a96:	31ff      	adds	r1, #255	; 0xff
10000a98:	7191      	strb	r1, [r2, #6]
10000a9a:	491a      	ldr	r1, [pc, #104]	; (10000b04 <irq_remove_handler+0x198>)
10000a9c:	8091      	strh	r1, [r2, #4]
10000a9e:	4918      	ldr	r1, [pc, #96]	; (10000b00 <irq_remove_handler+0x194>)
10000aa0:	780a      	ldrb	r2, [r1, #0]
10000aa2:	719a      	strb	r2, [r3, #6]
10000aa4:	4a18      	ldr	r2, [pc, #96]	; (10000b08 <irq_remove_handler+0x19c>)
10000aa6:	1b9b      	subs	r3, r3, r6
10000aa8:	415b      	adcs	r3, r3
10000aaa:	435a      	muls	r2, r3
10000aac:	0d12      	lsrs	r2, r2, #20
10000aae:	700a      	strb	r2, [r1, #0]
10000ab0:	e7a2      	b.n	100009f8 <irq_remove_handler+0x8c>
10000ab2:	4816      	ldr	r0, [pc, #88]	; (10000b0c <irq_remove_handler+0x1a0>)
10000ab4:	e7e3      	b.n	10000a7e <irq_remove_handler+0x112>
10000ab6:	4a16      	ldr	r2, [pc, #88]	; (10000b10 <irq_remove_handler+0x1a4>)
10000ab8:	4916      	ldr	r1, [pc, #88]	; (10000b14 <irq_remove_handler+0x1a8>)
10000aba:	1ad2      	subs	r2, r2, r3
10000abc:	3a08      	subs	r2, #8
10000abe:	0250      	lsls	r0, r2, #9
10000ac0:	0d40      	lsrs	r0, r0, #21
10000ac2:	4301      	orrs	r1, r0
10000ac4:	8099      	strh	r1, [r3, #4]
10000ac6:	4914      	ldr	r1, [pc, #80]	; (10000b18 <irq_remove_handler+0x1ac>)
10000ac8:	0852      	lsrs	r2, r2, #1
10000aca:	430a      	orrs	r2, r1
10000acc:	80da      	strh	r2, [r3, #6]
10000ace:	e793      	b.n	100009f8 <irq_remove_handler+0x8c>
10000ad0:	2106      	movs	r1, #6
10000ad2:	5651      	ldrsb	r1, [r2, r1]
10000ad4:	0013      	movs	r3, r2
10000ad6:	2900      	cmp	r1, #0
10000ad8:	dab8      	bge.n	10000a4c <irq_remove_handler+0xe0>
10000ada:	465a      	mov	r2, fp
10000adc:	2a00      	cmp	r2, #0
10000ade:	d1ea      	bne.n	10000ab6 <irq_remove_handler+0x14a>
10000ae0:	4645      	mov	r5, r8
10000ae2:	e7dc      	b.n	10000a9e <irq_remove_handler+0x132>
10000ae4:	d0000124 	.word	0xd0000124
10000ae8:	e000ed00 	.word	0xe000ed00
10000aec:	100001cd 	.word	0x100001cd
10000af0:	20000e1c 	.word	0x20000e1c
10000af4:	e000e100 	.word	0xe000e100
10000af8:	e000e180 	.word	0xe000e180
10000afc:	e000e280 	.word	0xe000e280
10000b00:	20002515 	.word	0x20002515
10000b04:	ffffbd01 	.word	0xffffbd01
10000b08:	0000aaaa 	.word	0x0000aaaa
10000b0c:	0000bd01 	.word	0x0000bd01
10000b10:	20000e56 	.word	0x20000e56
10000b14:	fffff000 	.word	0xfffff000
10000b18:	fffff800 	.word	0xfffff800

10000b1c <irq_add_tail_to_free_list>:
10000b1c:	b570      	push	{r4, r5, r6, lr}
10000b1e:	f3ef 8105 	mrs	r1, IPSR
10000b22:	2401      	movs	r4, #1
10000b24:	4304      	orrs	r4, r0
10000b26:	f3ef 8c10 	mrs	ip, PRIMASK
10000b2a:	b672      	cpsid	i
10000b2c:	4a21      	ldr	r2, [pc, #132]	; (10000bb4 <irq_add_tail_to_free_list+0x98>)
10000b2e:	6813      	ldr	r3, [r2, #0]
10000b30:	2b00      	cmp	r3, #0
10000b32:	d0fc      	beq.n	10000b2e <irq_add_tail_to_free_list+0x12>
10000b34:	f3bf 8f5f 	dmb	sy
10000b38:	4b1f      	ldr	r3, [pc, #124]	; (10000bb8 <irq_add_tail_to_free_list+0x9c>)
10000b3a:	0005      	movs	r5, r0
10000b3c:	4a1f      	ldr	r2, [pc, #124]	; (10000bbc <irq_add_tail_to_free_list+0xa0>)
10000b3e:	1aed      	subs	r5, r5, r3
10000b40:	416d      	adcs	r5, r5
10000b42:	436a      	muls	r2, r5
10000b44:	0d12      	lsrs	r2, r2, #20
10000b46:	4d1e      	ldr	r5, [pc, #120]	; (10000bc0 <irq_add_tail_to_free_list+0xa4>)
10000b48:	0089      	lsls	r1, r1, #2
10000b4a:	68ae      	ldr	r6, [r5, #8]
10000b4c:	b252      	sxtb	r2, r2
10000b4e:	5876      	ldr	r6, [r6, r1]
10000b50:	42a6      	cmp	r6, r4
10000b52:	d01c      	beq.n	10000b8e <irq_add_tail_to_free_list+0x72>
10000b54:	2106      	movs	r1, #6
10000b56:	5659      	ldrsb	r1, [r3, r1]
10000b58:	4291      	cmp	r1, r2
10000b5a:	d01c      	beq.n	10000b96 <irq_add_tail_to_free_list+0x7a>
10000b5c:	2112      	movs	r1, #18
10000b5e:	5659      	ldrsb	r1, [r3, r1]
10000b60:	4291      	cmp	r1, r2
10000b62:	d022      	beq.n	10000baa <irq_add_tail_to_free_list+0x8e>
10000b64:	211e      	movs	r1, #30
10000b66:	5659      	ldrsb	r1, [r3, r1]
10000b68:	4291      	cmp	r1, r2
10000b6a:	d020      	beq.n	10000bae <irq_add_tail_to_free_list+0x92>
10000b6c:	212a      	movs	r1, #42	; 0x2a
10000b6e:	5659      	ldrsb	r1, [r3, r1]
10000b70:	2403      	movs	r4, #3
10000b72:	4291      	cmp	r1, r2
10000b74:	d010      	beq.n	10000b98 <irq_add_tail_to_free_list+0x7c>
10000b76:	4b13      	ldr	r3, [pc, #76]	; (10000bc4 <irq_add_tail_to_free_list+0xa8>)
10000b78:	7819      	ldrb	r1, [r3, #0]
10000b7a:	701a      	strb	r2, [r3, #0]
10000b7c:	7181      	strb	r1, [r0, #6]
10000b7e:	f3bf 8f5f 	dmb	sy
10000b82:	2200      	movs	r2, #0
10000b84:	4b0b      	ldr	r3, [pc, #44]	; (10000bb4 <irq_add_tail_to_free_list+0x98>)
10000b86:	601a      	str	r2, [r3, #0]
10000b88:	f38c 8810 	msr	PRIMASK, ip
10000b8c:	bd70      	pop	{r4, r5, r6, pc}
10000b8e:	68ab      	ldr	r3, [r5, #8]
10000b90:	4c0d      	ldr	r4, [pc, #52]	; (10000bc8 <irq_add_tail_to_free_list+0xac>)
10000b92:	505c      	str	r4, [r3, r1]
10000b94:	e7ef      	b.n	10000b76 <irq_add_tail_to_free_list+0x5a>
10000b96:	2400      	movs	r4, #0
10000b98:	0061      	lsls	r1, r4, #1
10000b9a:	1909      	adds	r1, r1, r4
10000b9c:	0089      	lsls	r1, r1, #2
10000b9e:	185b      	adds	r3, r3, r1
10000ba0:	21ff      	movs	r1, #255	; 0xff
10000ba2:	7199      	strb	r1, [r3, #6]
10000ba4:	4909      	ldr	r1, [pc, #36]	; (10000bcc <irq_add_tail_to_free_list+0xb0>)
10000ba6:	8099      	strh	r1, [r3, #4]
10000ba8:	e7e5      	b.n	10000b76 <irq_add_tail_to_free_list+0x5a>
10000baa:	2401      	movs	r4, #1
10000bac:	e7f4      	b.n	10000b98 <irq_add_tail_to_free_list+0x7c>
10000bae:	2402      	movs	r4, #2
10000bb0:	e7f2      	b.n	10000b98 <irq_add_tail_to_free_list+0x7c>
10000bb2:	46c0      	nop			; (mov r8, r8)
10000bb4:	d0000124 	.word	0xd0000124
10000bb8:	20000e1c 	.word	0x20000e1c
10000bbc:	0000aaaa 	.word	0x0000aaaa
10000bc0:	e000ed00 	.word	0xe000ed00
10000bc4:	20002515 	.word	0x20002515
10000bc8:	100001cd 	.word	0x100001cd
10000bcc:	ffffbd01 	.word	0xffffbd01

10000bd0 <irq_init_priorities>:
10000bd0:	4b05      	ldr	r3, [pc, #20]	; (10000be8 <irq_init_priorities+0x18>)
10000bd2:	4a06      	ldr	r2, [pc, #24]	; (10000bec <irq_init_priorities+0x1c>)
10000bd4:	6013      	str	r3, [r2, #0]
10000bd6:	4a06      	ldr	r2, [pc, #24]	; (10000bf0 <irq_init_priorities+0x20>)
10000bd8:	6013      	str	r3, [r2, #0]
10000bda:	6053      	str	r3, [r2, #4]
10000bdc:	6093      	str	r3, [r2, #8]
10000bde:	60d3      	str	r3, [r2, #12]
10000be0:	6113      	str	r3, [r2, #16]
10000be2:	6153      	str	r3, [r2, #20]
10000be4:	6193      	str	r3, [r2, #24]
10000be6:	4770      	bx	lr
10000be8:	80808080 	.word	0x80808080
10000bec:	e000e400 	.word	0xe000e400
10000bf0:	e000e404 	.word	0xe000e404

10000bf4 <user_irq_claim_unused>:
10000bf4:	b500      	push	{lr}
10000bf6:	4b07      	ldr	r3, [pc, #28]	; (10000c14 <user_irq_claim_unused+0x20>)
10000bf8:	b083      	sub	sp, #12
10000bfa:	0001      	movs	r1, r0
10000bfc:	9300      	str	r3, [sp, #0]
10000bfe:	2200      	movs	r2, #0
10000c00:	2305      	movs	r3, #5
10000c02:	4805      	ldr	r0, [pc, #20]	; (10000c18 <user_irq_claim_unused+0x24>)
10000c04:	f7ff fce4 	bl	100005d0 <hw_claim_unused_from_range>
10000c08:	2800      	cmp	r0, #0
10000c0a:	db01      	blt.n	10000c10 <user_irq_claim_unused+0x1c>
10000c0c:	231f      	movs	r3, #31
10000c0e:	1a18      	subs	r0, r3, r0
10000c10:	b003      	add	sp, #12
10000c12:	bd00      	pop	{pc}
10000c14:	100051b0 	.word	0x100051b0
10000c18:	2000251a 	.word	0x2000251a

10000c1c <lock_init>:
10000c1c:	4b02      	ldr	r3, [pc, #8]	; (10000c28 <lock_init+0xc>)
10000c1e:	469c      	mov	ip, r3
10000c20:	4461      	add	r1, ip
10000c22:	0089      	lsls	r1, r1, #2
10000c24:	6001      	str	r1, [r0, #0]
10000c26:	4770      	bx	lr
10000c28:	34000040 	.word	0x34000040

10000c2c <mutex_init>:
10000c2c:	b510      	push	{r4, lr}
10000c2e:	0004      	movs	r4, r0
10000c30:	f7ff fd2a 	bl	10000688 <next_striped_spin_lock_num>
10000c34:	0001      	movs	r1, r0
10000c36:	0020      	movs	r0, r4
10000c38:	f7ff fff0 	bl	10000c1c <lock_init>
10000c3c:	23ff      	movs	r3, #255	; 0xff
10000c3e:	7123      	strb	r3, [r4, #4]
10000c40:	f3bf 8f5f 	dmb	sy
10000c44:	bd10      	pop	{r4, pc}
10000c46:	46c0      	nop			; (mov r8, r8)

10000c48 <recursive_mutex_init>:
10000c48:	b510      	push	{r4, lr}
10000c4a:	0004      	movs	r4, r0
10000c4c:	f7ff fd1c 	bl	10000688 <next_striped_spin_lock_num>
10000c50:	0001      	movs	r1, r0
10000c52:	0020      	movs	r0, r4
10000c54:	f7ff ffe2 	bl	10000c1c <lock_init>
10000c58:	23ff      	movs	r3, #255	; 0xff
10000c5a:	80a3      	strh	r3, [r4, #4]
10000c5c:	f3bf 8f5f 	dmb	sy
10000c60:	bd10      	pop	{r4, pc}
10000c62:	46c0      	nop			; (mov r8, r8)

10000c64 <critical_section_init>:
10000c64:	b510      	push	{r4, lr}
10000c66:	0004      	movs	r4, r0
10000c68:	2001      	movs	r0, #1
10000c6a:	f7ff fd19 	bl	100006a0 <spin_lock_claim_unused>
10000c6e:	4b04      	ldr	r3, [pc, #16]	; (10000c80 <critical_section_init+0x1c>)
10000c70:	469c      	mov	ip, r3
10000c72:	4460      	add	r0, ip
10000c74:	0080      	lsls	r0, r0, #2
10000c76:	6020      	str	r0, [r4, #0]
10000c78:	f3bf 8f5f 	dmb	sy
10000c7c:	bd10      	pop	{r4, pc}
10000c7e:	46c0      	nop			; (mov r8, r8)
10000c80:	34000040 	.word	0x34000040

10000c84 <critical_section_init_with_lock_num>:
10000c84:	4b03      	ldr	r3, [pc, #12]	; (10000c94 <critical_section_init_with_lock_num+0x10>)
10000c86:	469c      	mov	ip, r3
10000c88:	4461      	add	r1, ip
10000c8a:	0089      	lsls	r1, r1, #2
10000c8c:	6001      	str	r1, [r0, #0]
10000c8e:	f3bf 8f5f 	dmb	sy
10000c92:	4770      	bx	lr
10000c94:	34000040 	.word	0x34000040

10000c98 <timer_pool_entry_comparator>:
10000c98:	6883      	ldr	r3, [r0, #8]
10000c9a:	480b      	ldr	r0, [pc, #44]	; (10000cc8 <timer_pool_entry_comparator+0x30>)
10000c9c:	b510      	push	{r4, lr}
10000c9e:	4684      	mov	ip, r0
10000ca0:	4461      	add	r1, ip
10000ca2:	4462      	add	r2, ip
10000ca4:	0109      	lsls	r1, r1, #4
10000ca6:	0112      	lsls	r2, r2, #4
10000ca8:	189a      	adds	r2, r3, r2
10000caa:	1859      	adds	r1, r3, r1
10000cac:	6854      	ldr	r4, [r2, #4]
10000cae:	684b      	ldr	r3, [r1, #4]
10000cb0:	2001      	movs	r0, #1
10000cb2:	429c      	cmp	r4, r3
10000cb4:	d801      	bhi.n	10000cba <timer_pool_entry_comparator+0x22>
10000cb6:	d002      	beq.n	10000cbe <timer_pool_entry_comparator+0x26>
10000cb8:	2000      	movs	r0, #0
10000cba:	b2c0      	uxtb	r0, r0
10000cbc:	bd10      	pop	{r4, pc}
10000cbe:	6812      	ldr	r2, [r2, #0]
10000cc0:	680b      	ldr	r3, [r1, #0]
10000cc2:	429a      	cmp	r2, r3
10000cc4:	d8f9      	bhi.n	10000cba <timer_pool_entry_comparator+0x22>
10000cc6:	e7f7      	b.n	10000cb8 <timer_pool_entry_comparator+0x20>
10000cc8:	0fffffff 	.word	0x0fffffff

10000ccc <sleep_until_callback>:
10000ccc:	4b0a      	ldr	r3, [pc, #40]	; (10000cf8 <sleep_until_callback+0x2c>)
10000cce:	6819      	ldr	r1, [r3, #0]
10000cd0:	f3ef 8010 	mrs	r0, PRIMASK
10000cd4:	b672      	cpsid	i
10000cd6:	680a      	ldr	r2, [r1, #0]
10000cd8:	2a00      	cmp	r2, #0
10000cda:	d0fc      	beq.n	10000cd6 <sleep_until_callback+0xa>
10000cdc:	f3bf 8f5f 	dmb	sy
10000ce0:	681b      	ldr	r3, [r3, #0]
10000ce2:	f3bf 8f5f 	dmb	sy
10000ce6:	2200      	movs	r2, #0
10000ce8:	601a      	str	r2, [r3, #0]
10000cea:	f380 8810 	msr	PRIMASK, r0
10000cee:	bf40      	sev
10000cf0:	2000      	movs	r0, #0
10000cf2:	2100      	movs	r1, #0
10000cf4:	4770      	bx	lr
10000cf6:	46c0      	nop			; (mov r8, r8)
10000cf8:	200024e4 	.word	0x200024e4

10000cfc <add_alarm_under_lock.isra.0>:
10000cfc:	b5f8      	push	{r3, r4, r5, r6, r7, lr}
10000cfe:	4657      	mov	r7, sl
10000d00:	464e      	mov	r6, r9
10000d02:	4645      	mov	r5, r8
10000d04:	46de      	mov	lr, fp
10000d06:	b5e0      	push	{r5, r6, r7, lr}
10000d08:	4699      	mov	r9, r3
10000d0a:	ab0c      	add	r3, sp, #48	; 0x30
10000d0c:	781c      	ldrb	r4, [r3, #0]
10000d0e:	ab0d      	add	r3, sp, #52	; 0x34
10000d10:	781b      	ldrb	r3, [r3, #0]
10000d12:	0006      	movs	r6, r0
10000d14:	4690      	mov	r8, r2
10000d16:	469a      	mov	sl, r3
10000d18:	6807      	ldr	r7, [r0, #0]
10000d1a:	2c00      	cmp	r4, #0
10000d1c:	d111      	bne.n	10000d42 <add_alarm_under_lock.isra.0+0x46>
10000d1e:	7bbc      	ldrb	r4, [r7, #14]
10000d20:	2c00      	cmp	r4, #0
10000d22:	d042      	beq.n	10000daa <add_alarm_under_lock.isra.0+0xae>
10000d24:	0065      	lsls	r5, r4, #1
10000d26:	683b      	ldr	r3, [r7, #0]
10000d28:	192d      	adds	r5, r5, r4
10000d2a:	3d03      	subs	r5, #3
10000d2c:	1959      	adds	r1, r3, r5
10000d2e:	784b      	ldrb	r3, [r1, #1]
10000d30:	73bb      	strb	r3, [r7, #14]
10000d32:	2b00      	cmp	r3, #0
10000d34:	d100      	bne.n	10000d38 <add_alarm_under_lock.isra.0+0x3c>
10000d36:	73fb      	strb	r3, [r7, #15]
10000d38:	2300      	movs	r3, #0
10000d3a:	708b      	strb	r3, [r1, #2]
10000d3c:	704b      	strb	r3, [r1, #1]
10000d3e:	700b      	strb	r3, [r1, #0]
10000d40:	e004      	b.n	10000d4c <add_alarm_under_lock.isra.0+0x50>
10000d42:	0065      	lsls	r5, r4, #1
10000d44:	683b      	ldr	r3, [r7, #0]
10000d46:	192d      	adds	r5, r5, r4
10000d48:	3d03      	subs	r5, #3
10000d4a:	1959      	adds	r1, r3, r5
10000d4c:	68b2      	ldr	r2, [r6, #8]
10000d4e:	4b2a      	ldr	r3, [pc, #168]	; (10000df8 <add_alarm_under_lock.isra.0+0xfc>)
10000d50:	4694      	mov	ip, r2
10000d52:	4642      	mov	r2, r8
10000d54:	18e3      	adds	r3, r4, r3
10000d56:	011b      	lsls	r3, r3, #4
10000d58:	4463      	add	r3, ip
10000d5a:	601a      	str	r2, [r3, #0]
10000d5c:	464a      	mov	r2, r9
10000d5e:	605a      	str	r2, [r3, #4]
10000d60:	9a0a      	ldr	r2, [sp, #40]	; 0x28
10000d62:	609a      	str	r2, [r3, #8]
10000d64:	9a0b      	ldr	r2, [sp, #44]	; 0x2c
10000d66:	60da      	str	r2, [r3, #12]
10000d68:	2300      	movs	r3, #0
10000d6a:	708b      	strb	r3, [r1, #2]
10000d6c:	704b      	strb	r3, [r1, #1]
10000d6e:	700b      	strb	r3, [r1, #0]
10000d70:	7b7b      	ldrb	r3, [r7, #13]
10000d72:	469b      	mov	fp, r3
10000d74:	2b00      	cmp	r3, #0
10000d76:	d02b      	beq.n	10000dd0 <add_alarm_under_lock.isra.0+0xd4>
10000d78:	0022      	movs	r2, r4
10000d7a:	4659      	mov	r1, fp
10000d7c:	68b8      	ldr	r0, [r7, #8]
10000d7e:	687b      	ldr	r3, [r7, #4]
10000d80:	4798      	blx	r3
10000d82:	683a      	ldr	r2, [r7, #0]
10000d84:	2800      	cmp	r0, #0
10000d86:	d016      	beq.n	10000db6 <add_alarm_under_lock.isra.0+0xba>
10000d88:	465b      	mov	r3, fp
10000d8a:	4658      	mov	r0, fp
10000d8c:	005b      	lsls	r3, r3, #1
10000d8e:	445b      	add	r3, fp
10000d90:	1955      	adds	r5, r2, r5
10000d92:	3b03      	subs	r3, #3
10000d94:	70a8      	strb	r0, [r5, #2]
10000d96:	18d1      	adds	r1, r2, r3
10000d98:	5cd3      	ldrb	r3, [r2, r3]
10000d9a:	2b00      	cmp	r3, #0
10000d9c:	d000      	beq.n	10000da0 <add_alarm_under_lock.isra.0+0xa4>
10000d9e:	706b      	strb	r3, [r5, #1]
10000da0:	465b      	mov	r3, fp
10000da2:	700c      	strb	r4, [r1, #0]
10000da4:	737b      	strb	r3, [r7, #13]
10000da6:	45a3      	cmp	fp, r4
10000da8:	d013      	beq.n	10000dd2 <add_alarm_under_lock.isra.0+0xd6>
10000daa:	bcf0      	pop	{r4, r5, r6, r7}
10000dac:	46bb      	mov	fp, r7
10000dae:	46b2      	mov	sl, r6
10000db0:	46a9      	mov	r9, r5
10000db2:	46a0      	mov	r8, r4
10000db4:	bdf8      	pop	{r3, r4, r5, r6, r7, pc}
10000db6:	465b      	mov	r3, fp
10000db8:	005b      	lsls	r3, r3, #1
10000dba:	445b      	add	r3, fp
10000dbc:	3b03      	subs	r3, #3
10000dbe:	18d3      	adds	r3, r2, r3
10000dc0:	709c      	strb	r4, [r3, #2]
10000dc2:	1951      	adds	r1, r2, r5
10000dc4:	5d52      	ldrb	r2, [r2, r5]
10000dc6:	2a00      	cmp	r2, #0
10000dc8:	d000      	beq.n	10000dcc <add_alarm_under_lock.isra.0+0xd0>
10000dca:	705a      	strb	r2, [r3, #1]
10000dcc:	465b      	mov	r3, fp
10000dce:	700b      	strb	r3, [r1, #0]
10000dd0:	737c      	strb	r4, [r7, #13]
10000dd2:	4642      	mov	r2, r8
10000dd4:	464b      	mov	r3, r9
10000dd6:	7d30      	ldrb	r0, [r6, #20]
10000dd8:	f000 fb0a 	bl	100013f0 <hardware_alarm_set_target>
10000ddc:	1e05      	subs	r5, r0, #0
10000dde:	d006      	beq.n	10000dee <add_alarm_under_lock.isra.0+0xf2>
10000de0:	4653      	mov	r3, sl
10000de2:	2b00      	cmp	r3, #0
10000de4:	d103      	bne.n	10000dee <add_alarm_under_lock.isra.0+0xf2>
10000de6:	0021      	movs	r1, r4
10000de8:	6830      	ldr	r0, [r6, #0]
10000dea:	f000 fd25 	bl	10001838 <ph_remove_and_free_node>
10000dee:	9b0e      	ldr	r3, [sp, #56]	; 0x38
10000df0:	2b00      	cmp	r3, #0
10000df2:	d0da      	beq.n	10000daa <add_alarm_under_lock.isra.0+0xae>
10000df4:	701d      	strb	r5, [r3, #0]
10000df6:	e7d8      	b.n	10000daa <add_alarm_under_lock.isra.0+0xae>
10000df8:	0fffffff 	.word	0x0fffffff

10000dfc <alarm_pool_alarm_callback>:
10000dfc:	b5f0      	push	{r4, r5, r6, r7, lr}
10000dfe:	46de      	mov	lr, fp
10000e00:	4657      	mov	r7, sl
10000e02:	464e      	mov	r6, r9
10000e04:	4645      	mov	r5, r8
10000e06:	2300      	movs	r3, #0
10000e08:	b5e0      	push	{r5, r6, r7, lr}
10000e0a:	b08b      	sub	sp, #44	; 0x2c
10000e0c:	9308      	str	r3, [sp, #32]
10000e0e:	4b67      	ldr	r3, [pc, #412]	; (10000fac <alarm_pool_alarm_callback+0x1b0>)
10000e10:	0082      	lsls	r2, r0, #2
10000e12:	58d4      	ldr	r4, [r2, r3]
10000e14:	2300      	movs	r3, #0
10000e16:	469b      	mov	fp, r3
10000e18:	9009      	str	r0, [sp, #36]	; 0x24
10000e1a:	f000 fa99 	bl	10001350 <time_us_64>
10000e1e:	6862      	ldr	r2, [r4, #4]
10000e20:	0006      	movs	r6, r0
10000e22:	000f      	movs	r7, r1
10000e24:	f3ef 8510 	mrs	r5, PRIMASK
10000e28:	b672      	cpsid	i
10000e2a:	6813      	ldr	r3, [r2, #0]
10000e2c:	2b00      	cmp	r3, #0
10000e2e:	d0fc      	beq.n	10000e2a <alarm_pool_alarm_callback+0x2e>
10000e30:	f3bf 8f5f 	dmb	sy
10000e34:	6823      	ldr	r3, [r4, #0]
10000e36:	469c      	mov	ip, r3
10000e38:	7b5b      	ldrb	r3, [r3, #13]
10000e3a:	4699      	mov	r9, r3
10000e3c:	2b00      	cmp	r3, #0
10000e3e:	d100      	bne.n	10000e42 <alarm_pool_alarm_callback+0x46>
10000e40:	e069      	b.n	10000f16 <alarm_pool_alarm_callback+0x11a>
10000e42:	68a2      	ldr	r2, [r4, #8]
10000e44:	4b5a      	ldr	r3, [pc, #360]	; (10000fb0 <alarm_pool_alarm_callback+0x1b4>)
10000e46:	4690      	mov	r8, r2
10000e48:	444b      	add	r3, r9
10000e4a:	011b      	lsls	r3, r3, #4
10000e4c:	4498      	add	r8, r3
10000e4e:	4643      	mov	r3, r8
10000e50:	681a      	ldr	r2, [r3, #0]
10000e52:	685b      	ldr	r3, [r3, #4]
10000e54:	0010      	movs	r0, r2
10000e56:	0019      	movs	r1, r3
10000e58:	1b80      	subs	r0, r0, r6
10000e5a:	41b9      	sbcs	r1, r7
10000e5c:	2900      	cmp	r1, #0
10000e5e:	dc00      	bgt.n	10000e62 <alarm_pool_alarm_callback+0x66>
10000e60:	e063      	b.n	10000f2a <alarm_pool_alarm_callback+0x12e>
10000e62:	9809      	ldr	r0, [sp, #36]	; 0x24
10000e64:	f000 fac4 	bl	100013f0 <hardware_alarm_set_target>
10000e68:	2300      	movs	r3, #0
10000e6a:	2200      	movs	r2, #0
10000e6c:	4698      	mov	r8, r3
10000e6e:	2300      	movs	r3, #0
10000e70:	9206      	str	r2, [sp, #24]
10000e72:	9307      	str	r3, [sp, #28]
10000e74:	2300      	movs	r3, #0
10000e76:	469a      	mov	sl, r3
10000e78:	6863      	ldr	r3, [r4, #4]
10000e7a:	f3bf 8f5f 	dmb	sy
10000e7e:	465a      	mov	r2, fp
10000e80:	601a      	str	r2, [r3, #0]
10000e82:	f385 8810 	msr	PRIMASK, r5
10000e86:	4653      	mov	r3, sl
10000e88:	2b00      	cmp	r3, #0
10000e8a:	d108      	bne.n	10000e9e <alarm_pool_alarm_callback+0xa2>
10000e8c:	2800      	cmp	r0, #0
10000e8e:	d1c4      	bne.n	10000e1a <alarm_pool_alarm_callback+0x1e>
10000e90:	b00b      	add	sp, #44	; 0x2c
10000e92:	bcf0      	pop	{r4, r5, r6, r7}
10000e94:	46bb      	mov	fp, r7
10000e96:	46b2      	mov	sl, r6
10000e98:	46a9      	mov	r9, r5
10000e9a:	46a0      	mov	r8, r4
10000e9c:	bdf0      	pop	{r4, r5, r6, r7, pc}
10000e9e:	9b08      	ldr	r3, [sp, #32]
10000ea0:	4641      	mov	r1, r8
10000ea2:	0218      	lsls	r0, r3, #8
10000ea4:	464b      	mov	r3, r9
10000ea6:	4318      	orrs	r0, r3
10000ea8:	47d0      	blx	sl
10000eaa:	6862      	ldr	r2, [r4, #4]
10000eac:	0006      	movs	r6, r0
10000eae:	000f      	movs	r7, r1
10000eb0:	f3ef 8510 	mrs	r5, PRIMASK
10000eb4:	b672      	cpsid	i
10000eb6:	6813      	ldr	r3, [r2, #0]
10000eb8:	2b00      	cmp	r3, #0
10000eba:	d0fc      	beq.n	10000eb6 <alarm_pool_alarm_callback+0xba>
10000ebc:	f3bf 8f5f 	dmb	sy
10000ec0:	2f00      	cmp	r7, #0
10000ec2:	db50      	blt.n	10000f66 <alarm_pool_alarm_callback+0x16a>
10000ec4:	0033      	movs	r3, r6
10000ec6:	433b      	orrs	r3, r7
10000ec8:	d002      	beq.n	10000ed0 <alarm_pool_alarm_callback+0xd4>
10000eca:	6923      	ldr	r3, [r4, #16]
10000ecc:	2b00      	cmp	r3, #0
10000ece:	d161      	bne.n	10000f94 <alarm_pool_alarm_callback+0x198>
10000ed0:	6823      	ldr	r3, [r4, #0]
10000ed2:	7bd9      	ldrb	r1, [r3, #15]
10000ed4:	2900      	cmp	r1, #0
10000ed6:	d007      	beq.n	10000ee8 <alarm_pool_alarm_callback+0xec>
10000ed8:	004a      	lsls	r2, r1, #1
10000eda:	1852      	adds	r2, r2, r1
10000edc:	6819      	ldr	r1, [r3, #0]
10000ede:	468c      	mov	ip, r1
10000ee0:	4649      	mov	r1, r9
10000ee2:	4462      	add	r2, ip
10000ee4:	3a03      	subs	r2, #3
10000ee6:	7051      	strb	r1, [r2, #1]
10000ee8:	7b9a      	ldrb	r2, [r3, #14]
10000eea:	2a00      	cmp	r2, #0
10000eec:	d101      	bne.n	10000ef2 <alarm_pool_alarm_callback+0xf6>
10000eee:	464a      	mov	r2, r9
10000ef0:	739a      	strb	r2, [r3, #14]
10000ef2:	464a      	mov	r2, r9
10000ef4:	73da      	strb	r2, [r3, #15]
10000ef6:	464b      	mov	r3, r9
10000ef8:	68e1      	ldr	r1, [r4, #12]
10000efa:	3b01      	subs	r3, #1
10000efc:	5cca      	ldrb	r2, [r1, r3]
10000efe:	3201      	adds	r2, #1
10000f00:	54ca      	strb	r2, [r1, r3]
10000f02:	465b      	mov	r3, fp
10000f04:	6123      	str	r3, [r4, #16]
10000f06:	6863      	ldr	r3, [r4, #4]
10000f08:	f3bf 8f5f 	dmb	sy
10000f0c:	465a      	mov	r2, fp
10000f0e:	601a      	str	r2, [r3, #0]
10000f10:	f385 8810 	msr	PRIMASK, r5
10000f14:	e781      	b.n	10000e1a <alarm_pool_alarm_callback+0x1e>
10000f16:	2300      	movs	r3, #0
10000f18:	2200      	movs	r2, #0
10000f1a:	4698      	mov	r8, r3
10000f1c:	2300      	movs	r3, #0
10000f1e:	9206      	str	r2, [sp, #24]
10000f20:	9307      	str	r3, [sp, #28]
10000f22:	2300      	movs	r3, #0
10000f24:	2000      	movs	r0, #0
10000f26:	469a      	mov	sl, r3
10000f28:	e7a6      	b.n	10000e78 <alarm_pool_alarm_callback+0x7c>
10000f2a:	2900      	cmp	r1, #0
10000f2c:	d102      	bne.n	10000f34 <alarm_pool_alarm_callback+0x138>
10000f2e:	2800      	cmp	r0, #0
10000f30:	d000      	beq.n	10000f34 <alarm_pool_alarm_callback+0x138>
10000f32:	e796      	b.n	10000e62 <alarm_pool_alarm_callback+0x66>
10000f34:	2100      	movs	r1, #0
10000f36:	4660      	mov	r0, ip
10000f38:	f000 fbfc 	bl	10001734 <ph_remove_head>
10000f3c:	4643      	mov	r3, r8
10000f3e:	681a      	ldr	r2, [r3, #0]
10000f40:	685b      	ldr	r3, [r3, #4]
10000f42:	9206      	str	r2, [sp, #24]
10000f44:	9307      	str	r3, [sp, #28]
10000f46:	4643      	mov	r3, r8
10000f48:	689b      	ldr	r3, [r3, #8]
10000f4a:	469a      	mov	sl, r3
10000f4c:	4643      	mov	r3, r8
10000f4e:	68db      	ldr	r3, [r3, #12]
10000f50:	4698      	mov	r8, r3
10000f52:	68e3      	ldr	r3, [r4, #12]
10000f54:	444b      	add	r3, r9
10000f56:	3b01      	subs	r3, #1
10000f58:	781b      	ldrb	r3, [r3, #0]
10000f5a:	9308      	str	r3, [sp, #32]
10000f5c:	021b      	lsls	r3, r3, #8
10000f5e:	4303      	orrs	r3, r0
10000f60:	6123      	str	r3, [r4, #16]
10000f62:	2000      	movs	r0, #0
10000f64:	e788      	b.n	10000e78 <alarm_pool_alarm_callback+0x7c>
10000f66:	6923      	ldr	r3, [r4, #16]
10000f68:	2b00      	cmp	r3, #0
10000f6a:	d0b1      	beq.n	10000ed0 <alarm_pool_alarm_callback+0xd4>
10000f6c:	9a06      	ldr	r2, [sp, #24]
10000f6e:	9b07      	ldr	r3, [sp, #28]
10000f70:	1b92      	subs	r2, r2, r6
10000f72:	41bb      	sbcs	r3, r7
10000f74:	2b00      	cmp	r3, #0
10000f76:	db15      	blt.n	10000fa4 <alarm_pool_alarm_callback+0x1a8>
10000f78:	4659      	mov	r1, fp
10000f7a:	9104      	str	r1, [sp, #16]
10000f7c:	2101      	movs	r1, #1
10000f7e:	9103      	str	r1, [sp, #12]
10000f80:	4649      	mov	r1, r9
10000f82:	9102      	str	r1, [sp, #8]
10000f84:	4641      	mov	r1, r8
10000f86:	9101      	str	r1, [sp, #4]
10000f88:	4651      	mov	r1, sl
10000f8a:	0020      	movs	r0, r4
10000f8c:	9100      	str	r1, [sp, #0]
10000f8e:	f7ff feb5 	bl	10000cfc <add_alarm_under_lock.isra.0>
10000f92:	e7b6      	b.n	10000f02 <alarm_pool_alarm_callback+0x106>
10000f94:	f000 f9dc 	bl	10001350 <time_us_64>
10000f98:	0032      	movs	r2, r6
10000f9a:	003b      	movs	r3, r7
10000f9c:	1812      	adds	r2, r2, r0
10000f9e:	414b      	adcs	r3, r1
10000fa0:	2b00      	cmp	r3, #0
10000fa2:	dae9      	bge.n	10000f78 <alarm_pool_alarm_callback+0x17c>
10000fa4:	2201      	movs	r2, #1
10000fa6:	4b03      	ldr	r3, [pc, #12]	; (10000fb4 <alarm_pool_alarm_callback+0x1b8>)
10000fa8:	4252      	negs	r2, r2
10000faa:	e7e5      	b.n	10000f78 <alarm_pool_alarm_callback+0x17c>
10000fac:	200024c8 	.word	0x200024c8
10000fb0:	0fffffff 	.word	0x0fffffff
10000fb4:	7fffffff 	.word	0x7fffffff

10000fb8 <alarm_pool_init_default>:
10000fb8:	b510      	push	{r4, lr}
10000fba:	4c14      	ldr	r4, [pc, #80]	; (1000100c <alarm_pool_init_default+0x54>)
10000fbc:	6863      	ldr	r3, [r4, #4]
10000fbe:	2b00      	cmp	r3, #0
10000fc0:	d004      	beq.n	10000fcc <alarm_pool_init_default+0x14>
10000fc2:	210a      	movs	r1, #10
10000fc4:	4812      	ldr	r0, [pc, #72]	; (10001010 <alarm_pool_init_default+0x58>)
10000fc6:	f7ff fe29 	bl	10000c1c <lock_init>
10000fca:	bd10      	pop	{r4, pc}
10000fcc:	0023      	movs	r3, r4
10000fce:	4a11      	ldr	r2, [pc, #68]	; (10001014 <alarm_pool_init_default+0x5c>)
10000fd0:	2110      	movs	r1, #16
10000fd2:	6820      	ldr	r0, [r4, #0]
10000fd4:	f000 fac8 	bl	10001568 <ph_post_alloc_init>
10000fd8:	2003      	movs	r0, #3
10000fda:	f000 f9ad 	bl	10001338 <hardware_alarm_claim>
10000fde:	2003      	movs	r0, #3
10000fe0:	f000 fa70 	bl	100014c4 <hardware_alarm_cancel>
10000fe4:	2003      	movs	r0, #3
10000fe6:	490c      	ldr	r1, [pc, #48]	; (10001018 <alarm_pool_init_default+0x60>)
10000fe8:	f000 f9bc 	bl	10001364 <hardware_alarm_set_callback>
10000fec:	f7ff fb4c 	bl	10000688 <next_striped_spin_lock_num>
10000ff0:	4b0a      	ldr	r3, [pc, #40]	; (1000101c <alarm_pool_init_default+0x64>)
10000ff2:	469c      	mov	ip, r3
10000ff4:	2303      	movs	r3, #3
10000ff6:	7523      	strb	r3, [r4, #20]
10000ff8:	23d0      	movs	r3, #208	; 0xd0
10000ffa:	061b      	lsls	r3, r3, #24
10000ffc:	681b      	ldr	r3, [r3, #0]
10000ffe:	4460      	add	r0, ip
10001000:	7563      	strb	r3, [r4, #21]
10001002:	4b07      	ldr	r3, [pc, #28]	; (10001020 <alarm_pool_init_default+0x68>)
10001004:	0080      	lsls	r0, r0, #2
10001006:	6060      	str	r0, [r4, #4]
10001008:	60dc      	str	r4, [r3, #12]
1000100a:	e7da      	b.n	10000fc2 <alarm_pool_init_default+0xa>
1000100c:	20000e64 	.word	0x20000e64
10001010:	200024e4 	.word	0x200024e4
10001014:	10000c99 	.word	0x10000c99
10001018:	10000dfd 	.word	0x10000dfd
1000101c:	34000040 	.word	0x34000040
10001020:	200024c8 	.word	0x200024c8

10001024 <alarm_pool_get_default>:
10001024:	4800      	ldr	r0, [pc, #0]	; (10001028 <alarm_pool_get_default+0x4>)
10001026:	4770      	bx	lr
10001028:	20000e64 	.word	0x20000e64

1000102c <alarm_pool_add_alarm_at>:
1000102c:	b5f0      	push	{r4, r5, r6, r7, lr}
1000102e:	464e      	mov	r6, r9
10001030:	4645      	mov	r5, r8
10001032:	46de      	mov	lr, fp
10001034:	4657      	mov	r7, sl
10001036:	b5e0      	push	{r5, r6, r7, lr}
10001038:	b085      	sub	sp, #20
1000103a:	9301      	str	r3, [sp, #4]
1000103c:	ab10      	add	r3, sp, #64	; 0x40
1000103e:	781b      	ldrb	r3, [r3, #0]
10001040:	0006      	movs	r6, r0
10001042:	9303      	str	r3, [sp, #12]
10001044:	2300      	movs	r3, #0
10001046:	4699      	mov	r9, r3
10001048:	4698      	mov	r8, r3
1000104a:	9200      	str	r2, [sp, #0]
1000104c:	6872      	ldr	r2, [r6, #4]
1000104e:	f3ef 8b10 	mrs	fp, PRIMASK
10001052:	b672      	cpsid	i
10001054:	6813      	ldr	r3, [r2, #0]
10001056:	2b00      	cmp	r3, #0
10001058:	d0fc      	beq.n	10001054 <alarm_pool_add_alarm_at+0x28>
1000105a:	f3bf 8f5f 	dmb	sy
1000105e:	6835      	ldr	r5, [r6, #0]
10001060:	7bac      	ldrb	r4, [r5, #14]
10001062:	2c00      	cmp	r4, #0
10001064:	d03d      	beq.n	100010e2 <alarm_pool_add_alarm_at+0xb6>
10001066:	0067      	lsls	r7, r4, #1
10001068:	682b      	ldr	r3, [r5, #0]
1000106a:	193f      	adds	r7, r7, r4
1000106c:	3f03      	subs	r7, #3
1000106e:	19db      	adds	r3, r3, r7
10001070:	785a      	ldrb	r2, [r3, #1]
10001072:	73aa      	strb	r2, [r5, #14]
10001074:	2a00      	cmp	r2, #0
10001076:	d100      	bne.n	1000107a <alarm_pool_add_alarm_at+0x4e>
10001078:	73ea      	strb	r2, [r5, #15]
1000107a:	68b1      	ldr	r1, [r6, #8]
1000107c:	4a47      	ldr	r2, [pc, #284]	; (1000119c <alarm_pool_add_alarm_at+0x170>)
1000107e:	468c      	mov	ip, r1
10001080:	9800      	ldr	r0, [sp, #0]
10001082:	9901      	ldr	r1, [sp, #4]
10001084:	18a2      	adds	r2, r4, r2
10001086:	0112      	lsls	r2, r2, #4
10001088:	4462      	add	r2, ip
1000108a:	6010      	str	r0, [r2, #0]
1000108c:	6051      	str	r1, [r2, #4]
1000108e:	990e      	ldr	r1, [sp, #56]	; 0x38
10001090:	6091      	str	r1, [r2, #8]
10001092:	990f      	ldr	r1, [sp, #60]	; 0x3c
10001094:	60d1      	str	r1, [r2, #12]
10001096:	4642      	mov	r2, r8
10001098:	709a      	strb	r2, [r3, #2]
1000109a:	705a      	strb	r2, [r3, #1]
1000109c:	701a      	strb	r2, [r3, #0]
1000109e:	7b6b      	ldrb	r3, [r5, #13]
100010a0:	469a      	mov	sl, r3
100010a2:	2b00      	cmp	r3, #0
100010a4:	d067      	beq.n	10001176 <alarm_pool_add_alarm_at+0x14a>
100010a6:	0022      	movs	r2, r4
100010a8:	0019      	movs	r1, r3
100010aa:	68a8      	ldr	r0, [r5, #8]
100010ac:	686b      	ldr	r3, [r5, #4]
100010ae:	4798      	blx	r3
100010b0:	682a      	ldr	r2, [r5, #0]
100010b2:	2800      	cmp	r0, #0
100010b4:	d052      	beq.n	1000115c <alarm_pool_add_alarm_at+0x130>
100010b6:	4653      	mov	r3, sl
100010b8:	4650      	mov	r0, sl
100010ba:	005b      	lsls	r3, r3, #1
100010bc:	4453      	add	r3, sl
100010be:	19d7      	adds	r7, r2, r7
100010c0:	3b03      	subs	r3, #3
100010c2:	70b8      	strb	r0, [r7, #2]
100010c4:	18d1      	adds	r1, r2, r3
100010c6:	5cd3      	ldrb	r3, [r2, r3]
100010c8:	2b00      	cmp	r3, #0
100010ca:	d000      	beq.n	100010ce <alarm_pool_add_alarm_at+0xa2>
100010cc:	707b      	strb	r3, [r7, #1]
100010ce:	4653      	mov	r3, sl
100010d0:	700c      	strb	r4, [r1, #0]
100010d2:	736b      	strb	r3, [r5, #13]
100010d4:	4554      	cmp	r4, sl
100010d6:	d04f      	beq.n	10001178 <alarm_pool_add_alarm_at+0x14c>
100010d8:	68f3      	ldr	r3, [r6, #12]
100010da:	191b      	adds	r3, r3, r4
100010dc:	3b01      	subs	r3, #1
100010de:	7818      	ldrb	r0, [r3, #0]
100010e0:	e000      	b.n	100010e4 <alarm_pool_add_alarm_at+0xb8>
100010e2:	2000      	movs	r0, #0
100010e4:	6873      	ldr	r3, [r6, #4]
100010e6:	f3bf 8f5f 	dmb	sy
100010ea:	4642      	mov	r2, r8
100010ec:	601a      	str	r2, [r3, #0]
100010ee:	f38b 8810 	msr	PRIMASK, fp
100010f2:	2c00      	cmp	r4, #0
100010f4:	d04f      	beq.n	10001196 <alarm_pool_add_alarm_at+0x16a>
100010f6:	464b      	mov	r3, r9
100010f8:	2b00      	cmp	r3, #0
100010fa:	d108      	bne.n	1000110e <alarm_pool_add_alarm_at+0xe2>
100010fc:	0200      	lsls	r0, r0, #8
100010fe:	4320      	orrs	r0, r4
10001100:	b005      	add	sp, #20
10001102:	bcf0      	pop	{r4, r5, r6, r7}
10001104:	46bb      	mov	fp, r7
10001106:	46b2      	mov	sl, r6
10001108:	46a9      	mov	r9, r5
1000110a:	46a0      	mov	r8, r4
1000110c:	bdf0      	pop	{r4, r5, r6, r7, pc}
1000110e:	9b03      	ldr	r3, [sp, #12]
10001110:	2b00      	cmp	r3, #0
10001112:	d03e      	beq.n	10001192 <alarm_pool_add_alarm_at+0x166>
10001114:	9b0e      	ldr	r3, [sp, #56]	; 0x38
10001116:	2000      	movs	r0, #0
10001118:	990f      	ldr	r1, [sp, #60]	; 0x3c
1000111a:	4798      	blx	r3
1000111c:	0003      	movs	r3, r0
1000111e:	0004      	movs	r4, r0
10001120:	000d      	movs	r5, r1
10001122:	430b      	orrs	r3, r1
10001124:	d035      	beq.n	10001192 <alarm_pool_add_alarm_at+0x166>
10001126:	2900      	cmp	r1, #0
10001128:	da0a      	bge.n	10001140 <alarm_pool_add_alarm_at+0x114>
1000112a:	9a00      	ldr	r2, [sp, #0]
1000112c:	9b01      	ldr	r3, [sp, #4]
1000112e:	1b12      	subs	r2, r2, r4
10001130:	41ab      	sbcs	r3, r5
10001132:	9200      	str	r2, [sp, #0]
10001134:	9301      	str	r3, [sp, #4]
10001136:	2b00      	cmp	r3, #0
10001138:	db0a      	blt.n	10001150 <alarm_pool_add_alarm_at+0x124>
1000113a:	9b03      	ldr	r3, [sp, #12]
1000113c:	4699      	mov	r9, r3
1000113e:	e785      	b.n	1000104c <alarm_pool_add_alarm_at+0x20>
10001140:	f000 f906 	bl	10001350 <time_us_64>
10001144:	1824      	adds	r4, r4, r0
10001146:	414d      	adcs	r5, r1
10001148:	9400      	str	r4, [sp, #0]
1000114a:	9501      	str	r5, [sp, #4]
1000114c:	2d00      	cmp	r5, #0
1000114e:	daf4      	bge.n	1000113a <alarm_pool_add_alarm_at+0x10e>
10001150:	2301      	movs	r3, #1
10001152:	4c13      	ldr	r4, [pc, #76]	; (100011a0 <alarm_pool_add_alarm_at+0x174>)
10001154:	425b      	negs	r3, r3
10001156:	9300      	str	r3, [sp, #0]
10001158:	9401      	str	r4, [sp, #4]
1000115a:	e7ee      	b.n	1000113a <alarm_pool_add_alarm_at+0x10e>
1000115c:	4653      	mov	r3, sl
1000115e:	005b      	lsls	r3, r3, #1
10001160:	4453      	add	r3, sl
10001162:	3b03      	subs	r3, #3
10001164:	18d3      	adds	r3, r2, r3
10001166:	709c      	strb	r4, [r3, #2]
10001168:	19d1      	adds	r1, r2, r7
1000116a:	5dd2      	ldrb	r2, [r2, r7]
1000116c:	2a00      	cmp	r2, #0
1000116e:	d000      	beq.n	10001172 <alarm_pool_add_alarm_at+0x146>
10001170:	705a      	strb	r2, [r3, #1]
10001172:	4653      	mov	r3, sl
10001174:	700b      	strb	r3, [r1, #0]
10001176:	736c      	strb	r4, [r5, #13]
10001178:	7d30      	ldrb	r0, [r6, #20]
1000117a:	9a00      	ldr	r2, [sp, #0]
1000117c:	9b01      	ldr	r3, [sp, #4]
1000117e:	f000 f937 	bl	100013f0 <hardware_alarm_set_target>
10001182:	4681      	mov	r9, r0
10001184:	2800      	cmp	r0, #0
10001186:	d0a7      	beq.n	100010d8 <alarm_pool_add_alarm_at+0xac>
10001188:	0021      	movs	r1, r4
1000118a:	6830      	ldr	r0, [r6, #0]
1000118c:	f000 fb54 	bl	10001838 <ph_remove_and_free_node>
10001190:	e7a2      	b.n	100010d8 <alarm_pool_add_alarm_at+0xac>
10001192:	2000      	movs	r0, #0
10001194:	e7b4      	b.n	10001100 <alarm_pool_add_alarm_at+0xd4>
10001196:	2001      	movs	r0, #1
10001198:	4240      	negs	r0, r0
1000119a:	e7b1      	b.n	10001100 <alarm_pool_add_alarm_at+0xd4>
1000119c:	0fffffff 	.word	0x0fffffff
100011a0:	7fffffff 	.word	0x7fffffff

100011a4 <alarm_pool_core_num>:
100011a4:	7d40      	ldrb	r0, [r0, #21]
100011a6:	4770      	bx	lr

100011a8 <best_effort_wfe_or_timeout>:
100011a8:	b5f0      	push	{r4, r5, r6, r7, lr}
100011aa:	f3ef 8305 	mrs	r3, IPSR
100011ae:	46ce      	mov	lr, r9
100011b0:	4647      	mov	r7, r8
100011b2:	b580      	push	{r7, lr}
100011b4:	0005      	movs	r5, r0
100011b6:	000c      	movs	r4, r1
100011b8:	b085      	sub	sp, #20
100011ba:	2b00      	cmp	r3, #0
100011bc:	d012      	beq.n	100011e4 <best_effort_wfe_or_timeout+0x3c>
100011be:	4a2c      	ldr	r2, [pc, #176]	; (10001270 <best_effort_wfe_or_timeout+0xc8>)
100011c0:	2000      	movs	r0, #0
100011c2:	6a53      	ldr	r3, [r2, #36]	; 0x24
100011c4:	429c      	cmp	r4, r3
100011c6:	d803      	bhi.n	100011d0 <best_effort_wfe_or_timeout+0x28>
100011c8:	6a92      	ldr	r2, [r2, #40]	; 0x28
100011ca:	3001      	adds	r0, #1
100011cc:	42aa      	cmp	r2, r5
100011ce:	d304      	bcc.n	100011da <best_effort_wfe_or_timeout+0x32>
100011d0:	b005      	add	sp, #20
100011d2:	bcc0      	pop	{r6, r7}
100011d4:	46b9      	mov	r9, r7
100011d6:	46b0      	mov	r8, r6
100011d8:	bdf0      	pop	{r4, r5, r6, r7, pc}
100011da:	1ae0      	subs	r0, r4, r3
100011dc:	1e42      	subs	r2, r0, #1
100011de:	4190      	sbcs	r0, r2
100011e0:	b2c0      	uxtb	r0, r0
100011e2:	e7f5      	b.n	100011d0 <best_effort_wfe_or_timeout+0x28>
100011e4:	4e23      	ldr	r6, [pc, #140]	; (10001274 <best_effort_wfe_or_timeout+0xcc>)
100011e6:	9302      	str	r3, [sp, #8]
100011e8:	9301      	str	r3, [sp, #4]
100011ea:	4b23      	ldr	r3, [pc, #140]	; (10001278 <best_effort_wfe_or_timeout+0xd0>)
100011ec:	0002      	movs	r2, r0
100011ee:	9300      	str	r3, [sp, #0]
100011f0:	0030      	movs	r0, r6
100011f2:	000b      	movs	r3, r1
100011f4:	f7ff ff1a 	bl	1000102c <alarm_pool_add_alarm_at>
100011f8:	1e03      	subs	r3, r0, #0
100011fa:	dde0      	ble.n	100011be <best_effort_wfe_or_timeout+0x16>
100011fc:	bf20      	wfe
100011fe:	6871      	ldr	r1, [r6, #4]
10001200:	f3ef 8710 	mrs	r7, PRIMASK
10001204:	b672      	cpsid	i
10001206:	680a      	ldr	r2, [r1, #0]
10001208:	2a00      	cmp	r2, #0
1000120a:	d0fc      	beq.n	10001206 <best_effort_wfe_or_timeout+0x5e>
1000120c:	f3bf 8f5f 	dmb	sy
10001210:	b2da      	uxtb	r2, r3
10001212:	4694      	mov	ip, r2
10001214:	6830      	ldr	r0, [r6, #0]
10001216:	7b42      	ldrb	r2, [r0, #13]
10001218:	4562      	cmp	r2, ip
1000121a:	d01d      	beq.n	10001258 <best_effort_wfe_or_timeout+0xb0>
1000121c:	22ff      	movs	r2, #255	; 0xff
1000121e:	401a      	ands	r2, r3
10001220:	0051      	lsls	r1, r2, #1
10001222:	4689      	mov	r9, r1
10001224:	6801      	ldr	r1, [r0, #0]
10001226:	4491      	add	r9, r2
10001228:	4688      	mov	r8, r1
1000122a:	4649      	mov	r1, r9
1000122c:	4441      	add	r1, r8
1000122e:	3903      	subs	r1, #3
10001230:	7889      	ldrb	r1, [r1, #2]
10001232:	2900      	cmp	r1, #0
10001234:	d013      	beq.n	1000125e <best_effort_wfe_or_timeout+0xb6>
10001236:	68f1      	ldr	r1, [r6, #12]
10001238:	0a1b      	lsrs	r3, r3, #8
1000123a:	4688      	mov	r8, r1
1000123c:	4442      	add	r2, r8
1000123e:	3a01      	subs	r2, #1
10001240:	7812      	ldrb	r2, [r2, #0]
10001242:	b2db      	uxtb	r3, r3
10001244:	429a      	cmp	r2, r3
10001246:	d00f      	beq.n	10001268 <best_effort_wfe_or_timeout+0xc0>
10001248:	6873      	ldr	r3, [r6, #4]
1000124a:	f3bf 8f5f 	dmb	sy
1000124e:	2200      	movs	r2, #0
10001250:	601a      	str	r2, [r3, #0]
10001252:	f387 8810 	msr	PRIMASK, r7
10001256:	e7b2      	b.n	100011be <best_effort_wfe_or_timeout+0x16>
10001258:	22ff      	movs	r2, #255	; 0xff
1000125a:	401a      	ands	r2, r3
1000125c:	e7eb      	b.n	10001236 <best_effort_wfe_or_timeout+0x8e>
1000125e:	6932      	ldr	r2, [r6, #16]
10001260:	4293      	cmp	r3, r2
10001262:	d1f1      	bne.n	10001248 <best_effort_wfe_or_timeout+0xa0>
10001264:	6131      	str	r1, [r6, #16]
10001266:	e7ef      	b.n	10001248 <best_effort_wfe_or_timeout+0xa0>
10001268:	4661      	mov	r1, ip
1000126a:	f000 fae5 	bl	10001838 <ph_remove_and_free_node>
1000126e:	e7eb      	b.n	10001248 <best_effort_wfe_or_timeout+0xa0>
10001270:	40054000 	.word	0x40054000
10001274:	20000e64 	.word	0x20000e64
10001278:	10000ccd 	.word	0x10000ccd

1000127c <hardware_alarm_irq_handler>:
1000127c:	b5f0      	push	{r4, r5, r6, r7, lr}
1000127e:	f3ef 8205 	mrs	r2, IPSR
10001282:	46d6      	mov	lr, sl
10001284:	464f      	mov	r7, r9
10001286:	4646      	mov	r6, r8
10001288:	0010      	movs	r0, r2
1000128a:	b5c0      	push	{r6, r7, lr}
1000128c:	3810      	subs	r0, #16
1000128e:	f3ef 8810 	mrs	r8, PRIMASK
10001292:	b672      	cpsid	i
10001294:	4c21      	ldr	r4, [pc, #132]	; (1000131c <hardware_alarm_irq_handler+0xa0>)
10001296:	6823      	ldr	r3, [r4, #0]
10001298:	2b00      	cmp	r3, #0
1000129a:	d0fc      	beq.n	10001296 <hardware_alarm_irq_handler+0x1a>
1000129c:	f3bf 8f5f 	dmb	sy
100012a0:	2301      	movs	r3, #1
100012a2:	0019      	movs	r1, r3
100012a4:	4081      	lsls	r1, r0
100012a6:	4d1e      	ldr	r5, [pc, #120]	; (10001320 <hardware_alarm_irq_handler+0xa4>)
100012a8:	001f      	movs	r7, r3
100012aa:	6369      	str	r1, [r5, #52]	; 0x34
100012ac:	46aa      	mov	sl, r5
100012ae:	4d1d      	ldr	r5, [pc, #116]	; (10001324 <hardware_alarm_irq_handler+0xa8>)
100012b0:	6029      	str	r1, [r5, #0]
100012b2:	4d1d      	ldr	r5, [pc, #116]	; (10001328 <hardware_alarm_irq_handler+0xac>)
100012b4:	782e      	ldrb	r6, [r5, #0]
100012b6:	46ac      	mov	ip, r5
100012b8:	0035      	movs	r5, r6
100012ba:	40c5      	lsrs	r5, r0
100012bc:	402f      	ands	r7, r5
100012be:	422b      	tst	r3, r5
100012c0:	d109      	bne.n	100012d6 <hardware_alarm_irq_handler+0x5a>
100012c2:	f3bf 8f5f 	dmb	sy
100012c6:	6027      	str	r7, [r4, #0]
100012c8:	f388 8810 	msr	PRIMASK, r8
100012cc:	bce0      	pop	{r5, r6, r7}
100012ce:	46ba      	mov	sl, r7
100012d0:	46b1      	mov	r9, r6
100012d2:	46a8      	mov	r8, r5
100012d4:	bdf0      	pop	{r4, r5, r6, r7, pc}
100012d6:	4653      	mov	r3, sl
100012d8:	4d14      	ldr	r5, [pc, #80]	; (1000132c <hardware_alarm_irq_handler+0xb0>)
100012da:	6a5f      	ldr	r7, [r3, #36]	; 0x24
100012dc:	0083      	lsls	r3, r0, #2
100012de:	595d      	ldr	r5, [r3, r5]
100012e0:	42af      	cmp	r7, r5
100012e2:	d30e      	bcc.n	10001302 <hardware_alarm_irq_handler+0x86>
100012e4:	4a12      	ldr	r2, [pc, #72]	; (10001330 <hardware_alarm_irq_handler+0xb4>)
100012e6:	438e      	bics	r6, r1
100012e8:	589b      	ldr	r3, [r3, r2]
100012ea:	4662      	mov	r2, ip
100012ec:	7016      	strb	r6, [r2, #0]
100012ee:	f3bf 8f5f 	dmb	sy
100012f2:	2200      	movs	r2, #0
100012f4:	6022      	str	r2, [r4, #0]
100012f6:	f388 8810 	msr	PRIMASK, r8
100012fa:	2b00      	cmp	r3, #0
100012fc:	d0e6      	beq.n	100012cc <hardware_alarm_irq_handler+0x50>
100012fe:	4798      	blx	r3
10001300:	e7e4      	b.n	100012cc <hardware_alarm_irq_handler+0x50>
10001302:	4b0c      	ldr	r3, [pc, #48]	; (10001334 <hardware_alarm_irq_handler+0xb8>)
10001304:	0092      	lsls	r2, r2, #2
10001306:	469c      	mov	ip, r3
10001308:	4462      	add	r2, ip
1000130a:	6813      	ldr	r3, [r2, #0]
1000130c:	6013      	str	r3, [r2, #0]
1000130e:	f3bf 8f5f 	dmb	sy
10001312:	2300      	movs	r3, #0
10001314:	6023      	str	r3, [r4, #0]
10001316:	f388 8810 	msr	PRIMASK, r8
1000131a:	e7d7      	b.n	100012cc <hardware_alarm_irq_handler+0x50>
1000131c:	d0000128 	.word	0xd0000128
10001320:	40054000 	.word	0x40054000
10001324:	4005703c 	.word	0x4005703c
10001328:	20002519 	.word	0x20002519
1000132c:	200024f0 	.word	0x200024f0
10001330:	20001ef8 	.word	0x20001ef8
10001334:	40053fd0 	.word	0x40053fd0

10001338 <hardware_alarm_claim>:
10001338:	b510      	push	{r4, lr}
1000133a:	0001      	movs	r1, r0
1000133c:	4a02      	ldr	r2, [pc, #8]	; (10001348 <hardware_alarm_claim+0x10>)
1000133e:	4803      	ldr	r0, [pc, #12]	; (1000134c <hardware_alarm_claim+0x14>)
10001340:	f7ff f924 	bl	1000058c <hw_claim_or_assert>
10001344:	bd10      	pop	{r4, pc}
10001346:	46c0      	nop			; (mov r8, r8)
10001348:	100051cc 	.word	0x100051cc
1000134c:	20002514 	.word	0x20002514

10001350 <time_us_64>:
10001350:	4b03      	ldr	r3, [pc, #12]	; (10001360 <time_us_64+0x10>)
10001352:	6a59      	ldr	r1, [r3, #36]	; 0x24
10001354:	000a      	movs	r2, r1
10001356:	6a98      	ldr	r0, [r3, #40]	; 0x28
10001358:	6a59      	ldr	r1, [r3, #36]	; 0x24
1000135a:	428a      	cmp	r2, r1
1000135c:	d1fa      	bne.n	10001354 <time_us_64+0x4>
1000135e:	4770      	bx	lr
10001360:	40054000 	.word	0x40054000

10001364 <hardware_alarm_set_callback>:
10001364:	b570      	push	{r4, r5, r6, lr}
10001366:	0004      	movs	r4, r0
10001368:	000d      	movs	r5, r1
1000136a:	f3ef 8610 	mrs	r6, PRIMASK
1000136e:	b672      	cpsid	i
10001370:	4a1a      	ldr	r2, [pc, #104]	; (100013dc <hardware_alarm_set_callback+0x78>)
10001372:	6813      	ldr	r3, [r2, #0]
10001374:	2b00      	cmp	r3, #0
10001376:	d0fc      	beq.n	10001372 <hardware_alarm_set_callback+0xe>
10001378:	f3bf 8f5f 	dmb	sy
1000137c:	2d00      	cmp	r5, #0
1000137e:	d01b      	beq.n	100013b8 <hardware_alarm_set_callback+0x54>
10001380:	0020      	movs	r0, r4
10001382:	f7ff f9cd 	bl	10000720 <irq_get_vtable_handler>
10001386:	4916      	ldr	r1, [pc, #88]	; (100013e0 <hardware_alarm_set_callback+0x7c>)
10001388:	4281      	cmp	r1, r0
1000138a:	d00a      	beq.n	100013a2 <hardware_alarm_set_callback+0x3e>
1000138c:	0020      	movs	r0, r4
1000138e:	f7ff f9cf 	bl	10000730 <irq_set_exclusive_handler>
10001392:	2101      	movs	r1, #1
10001394:	0020      	movs	r0, r4
10001396:	f7ff f993 	bl	100006c0 <irq_set_enabled>
1000139a:	2301      	movs	r3, #1
1000139c:	40a3      	lsls	r3, r4
1000139e:	4a11      	ldr	r2, [pc, #68]	; (100013e4 <hardware_alarm_set_callback+0x80>)
100013a0:	6013      	str	r3, [r2, #0]
100013a2:	4b11      	ldr	r3, [pc, #68]	; (100013e8 <hardware_alarm_set_callback+0x84>)
100013a4:	00a4      	lsls	r4, r4, #2
100013a6:	50e5      	str	r5, [r4, r3]
100013a8:	f3bf 8f5f 	dmb	sy
100013ac:	2200      	movs	r2, #0
100013ae:	4b0b      	ldr	r3, [pc, #44]	; (100013dc <hardware_alarm_set_callback+0x78>)
100013b0:	601a      	str	r2, [r3, #0]
100013b2:	f386 8810 	msr	PRIMASK, r6
100013b6:	bd70      	pop	{r4, r5, r6, pc}
100013b8:	4b0b      	ldr	r3, [pc, #44]	; (100013e8 <hardware_alarm_set_callback+0x84>)
100013ba:	00a2      	lsls	r2, r4, #2
100013bc:	50d5      	str	r5, [r2, r3]
100013be:	2201      	movs	r2, #1
100013c0:	40a2      	lsls	r2, r4
100013c2:	490a      	ldr	r1, [pc, #40]	; (100013ec <hardware_alarm_set_callback+0x88>)
100013c4:	0020      	movs	r0, r4
100013c6:	780b      	ldrb	r3, [r1, #0]
100013c8:	4393      	bics	r3, r2
100013ca:	700b      	strb	r3, [r1, #0]
100013cc:	4904      	ldr	r1, [pc, #16]	; (100013e0 <hardware_alarm_set_callback+0x7c>)
100013ce:	f7ff facd 	bl	1000096c <irq_remove_handler>
100013d2:	2100      	movs	r1, #0
100013d4:	0020      	movs	r0, r4
100013d6:	f7ff f973 	bl	100006c0 <irq_set_enabled>
100013da:	e7e5      	b.n	100013a8 <hardware_alarm_set_callback+0x44>
100013dc:	d0000128 	.word	0xd0000128
100013e0:	1000127d 	.word	0x1000127d
100013e4:	40056038 	.word	0x40056038
100013e8:	20001ef8 	.word	0x20001ef8
100013ec:	20002519 	.word	0x20002519

100013f0 <hardware_alarm_set_target>:
100013f0:	b5f0      	push	{r4, r5, r6, r7, lr}
100013f2:	464f      	mov	r7, r9
100013f4:	46d6      	mov	lr, sl
100013f6:	4646      	mov	r6, r8
100013f8:	b5c0      	push	{r6, r7, lr}
100013fa:	0007      	movs	r7, r0
100013fc:	4c2c      	ldr	r4, [pc, #176]	; (100014b0 <hardware_alarm_set_target+0xc0>)
100013fe:	6a61      	ldr	r1, [r4, #36]	; 0x24
10001400:	000d      	movs	r5, r1
10001402:	6aa6      	ldr	r6, [r4, #40]	; 0x28
10001404:	6a61      	ldr	r1, [r4, #36]	; 0x24
10001406:	42a9      	cmp	r1, r5
10001408:	d1fa      	bne.n	10001400 <hardware_alarm_set_target+0x10>
1000140a:	428b      	cmp	r3, r1
1000140c:	d808      	bhi.n	10001420 <hardware_alarm_set_target+0x30>
1000140e:	d005      	beq.n	1000141c <hardware_alarm_set_target+0x2c>
10001410:	2001      	movs	r0, #1
10001412:	bce0      	pop	{r5, r6, r7}
10001414:	46ba      	mov	sl, r7
10001416:	46b1      	mov	r9, r6
10001418:	46a8      	mov	r8, r5
1000141a:	bdf0      	pop	{r4, r5, r6, r7, pc}
1000141c:	42b2      	cmp	r2, r6
1000141e:	d9f7      	bls.n	10001410 <hardware_alarm_set_target+0x20>
10001420:	f3ef 8a10 	mrs	sl, PRIMASK
10001424:	b672      	cpsid	i
10001426:	4823      	ldr	r0, [pc, #140]	; (100014b4 <hardware_alarm_set_target+0xc4>)
10001428:	6801      	ldr	r1, [r0, #0]
1000142a:	2900      	cmp	r1, #0
1000142c:	d0fc      	beq.n	10001428 <hardware_alarm_set_target+0x38>
1000142e:	f3bf 8f5f 	dmb	sy
10001432:	2501      	movs	r5, #1
10001434:	40bd      	lsls	r5, r7
10001436:	4920      	ldr	r1, [pc, #128]	; (100014b8 <hardware_alarm_set_target+0xc8>)
10001438:	4c1d      	ldr	r4, [pc, #116]	; (100014b0 <hardware_alarm_set_target+0xc0>)
1000143a:	4688      	mov	r8, r1
1000143c:	7809      	ldrb	r1, [r1, #0]
1000143e:	4689      	mov	r9, r1
10001440:	4329      	orrs	r1, r5
10001442:	b2c9      	uxtb	r1, r1
10001444:	468c      	mov	ip, r1
10001446:	4641      	mov	r1, r8
10001448:	4660      	mov	r0, ip
1000144a:	7008      	strb	r0, [r1, #0]
1000144c:	1d39      	adds	r1, r7, #4
1000144e:	481b      	ldr	r0, [pc, #108]	; (100014bc <hardware_alarm_set_target+0xcc>)
10001450:	0089      	lsls	r1, r1, #2
10001452:	6365      	str	r5, [r4, #52]	; 0x34
10001454:	510a      	str	r2, [r1, r4]
10001456:	00b9      	lsls	r1, r7, #2
10001458:	500b      	str	r3, [r1, r0]
1000145a:	6a21      	ldr	r1, [r4, #32]
1000145c:	2000      	movs	r0, #0
1000145e:	4229      	tst	r1, r5
10001460:	d019      	beq.n	10001496 <hardware_alarm_set_target+0xa6>
10001462:	6a61      	ldr	r1, [r4, #36]	; 0x24
10001464:	0008      	movs	r0, r1
10001466:	6aa6      	ldr	r6, [r4, #40]	; 0x28
10001468:	6a61      	ldr	r1, [r4, #36]	; 0x24
1000146a:	4281      	cmp	r1, r0
1000146c:	d1fa      	bne.n	10001464 <hardware_alarm_set_target+0x74>
1000146e:	428b      	cmp	r3, r1
10001470:	d819      	bhi.n	100014a6 <hardware_alarm_set_target+0xb6>
10001472:	d101      	bne.n	10001478 <hardware_alarm_set_target+0x88>
10001474:	42b2      	cmp	r2, r6
10001476:	d816      	bhi.n	100014a6 <hardware_alarm_set_target+0xb6>
10001478:	45cc      	cmp	ip, r9
1000147a:	d016      	beq.n	100014aa <hardware_alarm_set_target+0xba>
1000147c:	4b0c      	ldr	r3, [pc, #48]	; (100014b0 <hardware_alarm_set_target+0xc0>)
1000147e:	201f      	movs	r0, #31
10001480:	621d      	str	r5, [r3, #32]
10001482:	635d      	str	r5, [r3, #52]	; 0x34
10001484:	2301      	movs	r3, #1
10001486:	4007      	ands	r7, r0
10001488:	40bb      	lsls	r3, r7
1000148a:	4a0d      	ldr	r2, [pc, #52]	; (100014c0 <hardware_alarm_set_target+0xd0>)
1000148c:	381e      	subs	r0, #30
1000148e:	6013      	str	r3, [r2, #0]
10001490:	4643      	mov	r3, r8
10001492:	464a      	mov	r2, r9
10001494:	701a      	strb	r2, [r3, #0]
10001496:	f3bf 8f5f 	dmb	sy
1000149a:	2200      	movs	r2, #0
1000149c:	4b05      	ldr	r3, [pc, #20]	; (100014b4 <hardware_alarm_set_target+0xc4>)
1000149e:	601a      	str	r2, [r3, #0]
100014a0:	f38a 8810 	msr	PRIMASK, sl
100014a4:	e7b5      	b.n	10001412 <hardware_alarm_set_target+0x22>
100014a6:	2000      	movs	r0, #0
100014a8:	e7f5      	b.n	10001496 <hardware_alarm_set_target+0xa6>
100014aa:	2001      	movs	r0, #1
100014ac:	e7f3      	b.n	10001496 <hardware_alarm_set_target+0xa6>
100014ae:	46c0      	nop			; (mov r8, r8)
100014b0:	40054000 	.word	0x40054000
100014b4:	d0000128 	.word	0xd0000128
100014b8:	20002519 	.word	0x20002519
100014bc:	200024f0 	.word	0x200024f0
100014c0:	e000e280 	.word	0xe000e280

100014c4 <hardware_alarm_cancel>:
100014c4:	f3ef 8c10 	mrs	ip, PRIMASK
100014c8:	b672      	cpsid	i
100014ca:	490a      	ldr	r1, [pc, #40]	; (100014f4 <hardware_alarm_cancel+0x30>)
100014cc:	680b      	ldr	r3, [r1, #0]
100014ce:	2b00      	cmp	r3, #0
100014d0:	d0fc      	beq.n	100014cc <hardware_alarm_cancel+0x8>
100014d2:	f3bf 8f5f 	dmb	sy
100014d6:	2301      	movs	r3, #1
100014d8:	4083      	lsls	r3, r0
100014da:	4a07      	ldr	r2, [pc, #28]	; (100014f8 <hardware_alarm_cancel+0x34>)
100014dc:	4807      	ldr	r0, [pc, #28]	; (100014fc <hardware_alarm_cancel+0x38>)
100014de:	6213      	str	r3, [r2, #32]
100014e0:	7802      	ldrb	r2, [r0, #0]
100014e2:	439a      	bics	r2, r3
100014e4:	7002      	strb	r2, [r0, #0]
100014e6:	f3bf 8f5f 	dmb	sy
100014ea:	2300      	movs	r3, #0
100014ec:	600b      	str	r3, [r1, #0]
100014ee:	f38c 8810 	msr	PRIMASK, ip
100014f2:	4770      	bx	lr
100014f4:	d0000128 	.word	0xd0000128
100014f8:	40054000 	.word	0x40054000
100014fc:	20002519 	.word	0x20002519

10001500 <ph_merge_nodes>:
10001500:	b570      	push	{r4, r5, r6, lr}
10001502:	0005      	movs	r5, r0
10001504:	0014      	movs	r4, r2
10001506:	0016      	movs	r6, r2
10001508:	2900      	cmp	r1, #0
1000150a:	d015      	beq.n	10001538 <ph_merge_nodes+0x38>
1000150c:	000c      	movs	r4, r1
1000150e:	2a00      	cmp	r2, #0
10001510:	d012      	beq.n	10001538 <ph_merge_nodes+0x38>
10001512:	6880      	ldr	r0, [r0, #8]
10001514:	686b      	ldr	r3, [r5, #4]
10001516:	4798      	blx	r3
10001518:	6829      	ldr	r1, [r5, #0]
1000151a:	2800      	cmp	r0, #0
1000151c:	d00e      	beq.n	1000153c <ph_merge_nodes+0x3c>
1000151e:	0073      	lsls	r3, r6, #1
10001520:	199b      	adds	r3, r3, r6
10001522:	0062      	lsls	r2, r4, #1
10001524:	3b03      	subs	r3, #3
10001526:	1912      	adds	r2, r2, r4
10001528:	18cb      	adds	r3, r1, r3
1000152a:	3a03      	subs	r2, #3
1000152c:	709c      	strb	r4, [r3, #2]
1000152e:	1888      	adds	r0, r1, r2
10001530:	5c8a      	ldrb	r2, [r1, r2]
10001532:	2a00      	cmp	r2, #0
10001534:	d115      	bne.n	10001562 <ph_merge_nodes+0x62>
10001536:	7006      	strb	r6, [r0, #0]
10001538:	0020      	movs	r0, r4
1000153a:	bd70      	pop	{r4, r5, r6, pc}
1000153c:	0063      	lsls	r3, r4, #1
1000153e:	191b      	adds	r3, r3, r4
10001540:	0072      	lsls	r2, r6, #1
10001542:	3b03      	subs	r3, #3
10001544:	1992      	adds	r2, r2, r6
10001546:	18cb      	adds	r3, r1, r3
10001548:	3a03      	subs	r2, #3
1000154a:	709e      	strb	r6, [r3, #2]
1000154c:	1888      	adds	r0, r1, r2
1000154e:	5c8a      	ldrb	r2, [r1, r2]
10001550:	2a00      	cmp	r2, #0
10001552:	d102      	bne.n	1000155a <ph_merge_nodes+0x5a>
10001554:	7004      	strb	r4, [r0, #0]
10001556:	0034      	movs	r4, r6
10001558:	e7ee      	b.n	10001538 <ph_merge_nodes+0x38>
1000155a:	705a      	strb	r2, [r3, #1]
1000155c:	7004      	strb	r4, [r0, #0]
1000155e:	0034      	movs	r4, r6
10001560:	e7ea      	b.n	10001538 <ph_merge_nodes+0x38>
10001562:	705a      	strb	r2, [r3, #1]
10001564:	7006      	strb	r6, [r0, #0]
10001566:	e7e7      	b.n	10001538 <ph_merge_nodes+0x38>

10001568 <ph_post_alloc_init>:
10001568:	b530      	push	{r4, r5, lr}
1000156a:	6083      	str	r3, [r0, #8]
1000156c:	2300      	movs	r3, #0
1000156e:	b2cc      	uxtb	r4, r1
10001570:	7343      	strb	r3, [r0, #13]
10001572:	3301      	adds	r3, #1
10001574:	7304      	strb	r4, [r0, #12]
10001576:	6042      	str	r2, [r0, #4]
10001578:	7383      	strb	r3, [r0, #14]
1000157a:	73c4      	strb	r4, [r0, #15]
1000157c:	000d      	movs	r5, r1
1000157e:	6800      	ldr	r0, [r0, #0]
10001580:	2c01      	cmp	r4, #1
10001582:	d906      	bls.n	10001592 <ph_post_alloc_init+0x2a>
10001584:	1c42      	adds	r2, r0, #1
10001586:	3301      	adds	r3, #1
10001588:	b2db      	uxtb	r3, r3
1000158a:	7013      	strb	r3, [r2, #0]
1000158c:	3203      	adds	r2, #3
1000158e:	429c      	cmp	r4, r3
10001590:	d1f9      	bne.n	10001586 <ph_post_alloc_init+0x1e>
10001592:	21ff      	movs	r1, #255	; 0xff
10001594:	4029      	ands	r1, r5
10001596:	004b      	lsls	r3, r1, #1
10001598:	1859      	adds	r1, r3, r1
1000159a:	2300      	movs	r3, #0
1000159c:	1840      	adds	r0, r0, r1
1000159e:	3803      	subs	r0, #3
100015a0:	7043      	strb	r3, [r0, #1]
100015a2:	bd30      	pop	{r4, r5, pc}

100015a4 <ph_merge_two_pass>:
100015a4:	b5f8      	push	{r3, r4, r5, r6, r7, lr}
100015a6:	46ce      	mov	lr, r9
100015a8:	4647      	mov	r7, r8
100015aa:	0006      	movs	r6, r0
100015ac:	000c      	movs	r4, r1
100015ae:	b580      	push	{r7, lr}
100015b0:	2900      	cmp	r1, #0
100015b2:	d007      	beq.n	100015c4 <ph_merge_two_pass+0x20>
100015b4:	004d      	lsls	r5, r1, #1
100015b6:	6803      	ldr	r3, [r0, #0]
100015b8:	186d      	adds	r5, r5, r1
100015ba:	3d03      	subs	r5, #3
100015bc:	195a      	adds	r2, r3, r5
100015be:	7857      	ldrb	r7, [r2, #1]
100015c0:	2f00      	cmp	r7, #0
100015c2:	d104      	bne.n	100015ce <ph_merge_two_pass+0x2a>
100015c4:	0020      	movs	r0, r4
100015c6:	bcc0      	pop	{r6, r7}
100015c8:	46b9      	mov	r9, r7
100015ca:	46b0      	mov	r8, r6
100015cc:	bdf8      	pop	{r3, r4, r5, r6, r7, pc}
100015ce:	0079      	lsls	r1, r7, #1
100015d0:	19c9      	adds	r1, r1, r7
100015d2:	3903      	subs	r1, #3
100015d4:	4688      	mov	r8, r1
100015d6:	4443      	add	r3, r8
100015d8:	7859      	ldrb	r1, [r3, #1]
100015da:	4689      	mov	r9, r1
100015dc:	2100      	movs	r1, #0
100015de:	7059      	strb	r1, [r3, #1]
100015e0:	7051      	strb	r1, [r2, #1]
100015e2:	6873      	ldr	r3, [r6, #4]
100015e4:	003a      	movs	r2, r7
100015e6:	0021      	movs	r1, r4
100015e8:	6880      	ldr	r0, [r0, #8]
100015ea:	4798      	blx	r3
100015ec:	6833      	ldr	r3, [r6, #0]
100015ee:	2800      	cmp	r0, #0
100015f0:	d014      	beq.n	1000161c <ph_merge_two_pass+0x78>
100015f2:	4642      	mov	r2, r8
100015f4:	189a      	adds	r2, r3, r2
100015f6:	7094      	strb	r4, [r2, #2]
100015f8:	1959      	adds	r1, r3, r5
100015fa:	5d5b      	ldrb	r3, [r3, r5]
100015fc:	2b00      	cmp	r3, #0
100015fe:	d000      	beq.n	10001602 <ph_merge_two_pass+0x5e>
10001600:	7053      	strb	r3, [r2, #1]
10001602:	700f      	strb	r7, [r1, #0]
10001604:	0027      	movs	r7, r4
10001606:	4649      	mov	r1, r9
10001608:	0030      	movs	r0, r6
1000160a:	f7ff ffcb 	bl	100015a4 <ph_merge_two_pass>
1000160e:	0039      	movs	r1, r7
10001610:	0002      	movs	r2, r0
10001612:	0030      	movs	r0, r6
10001614:	f7ff ff74 	bl	10001500 <ph_merge_nodes>
10001618:	0004      	movs	r4, r0
1000161a:	e7d3      	b.n	100015c4 <ph_merge_two_pass+0x20>
1000161c:	4642      	mov	r2, r8
1000161e:	4641      	mov	r1, r8
10001620:	195d      	adds	r5, r3, r5
10001622:	70af      	strb	r7, [r5, #2]
10001624:	189a      	adds	r2, r3, r2
10001626:	5c5b      	ldrb	r3, [r3, r1]
10001628:	2b00      	cmp	r3, #0
1000162a:	d000      	beq.n	1000162e <ph_merge_two_pass+0x8a>
1000162c:	706b      	strb	r3, [r5, #1]
1000162e:	7014      	strb	r4, [r2, #0]
10001630:	e7e9      	b.n	10001606 <ph_merge_two_pass+0x62>
10001632:	46c0      	nop			; (mov r8, r8)

10001634 <ph_remove_any_head>:
10001634:	b5f0      	push	{r4, r5, r6, r7, lr}
10001636:	4657      	mov	r7, sl
10001638:	4645      	mov	r5, r8
1000163a:	46de      	mov	lr, fp
1000163c:	464e      	mov	r6, r9
1000163e:	b5e0      	push	{r5, r6, r7, lr}
10001640:	000d      	movs	r5, r1
10001642:	006b      	lsls	r3, r5, #1
10001644:	6801      	ldr	r1, [r0, #0]
10001646:	195b      	adds	r3, r3, r5
10001648:	1edf      	subs	r7, r3, #3
1000164a:	0004      	movs	r4, r0
1000164c:	5dc8      	ldrb	r0, [r1, r7]
1000164e:	b083      	sub	sp, #12
10001650:	9201      	str	r2, [sp, #4]
10001652:	19ca      	adds	r2, r1, r7
10001654:	2800      	cmp	r0, #0
10001656:	d050      	beq.n	100016fa <ph_remove_any_head+0xc6>
10001658:	0043      	lsls	r3, r0, #1
1000165a:	181b      	adds	r3, r3, r0
1000165c:	3b03      	subs	r3, #3
1000165e:	18cb      	adds	r3, r1, r3
10001660:	785e      	ldrb	r6, [r3, #1]
10001662:	46b4      	mov	ip, r6
10001664:	2e00      	cmp	r6, #0
10001666:	d11a      	bne.n	1000169e <ph_remove_any_head+0x6a>
10001668:	9e01      	ldr	r6, [sp, #4]
1000166a:	2e00      	cmp	r6, #0
1000166c:	d042      	beq.n	100016f4 <ph_remove_any_head+0xc0>
1000166e:	7be6      	ldrb	r6, [r4, #15]
10001670:	2e00      	cmp	r6, #0
10001672:	d004      	beq.n	1000167e <ph_remove_any_head+0x4a>
10001674:	0073      	lsls	r3, r6, #1
10001676:	199b      	adds	r3, r3, r6
10001678:	18cb      	adds	r3, r1, r3
1000167a:	3b03      	subs	r3, #3
1000167c:	705d      	strb	r5, [r3, #1]
1000167e:	7ba3      	ldrb	r3, [r4, #14]
10001680:	2b00      	cmp	r3, #0
10001682:	d100      	bne.n	10001686 <ph_remove_any_head+0x52>
10001684:	73a5      	strb	r5, [r4, #14]
10001686:	73e5      	strb	r5, [r4, #15]
10001688:	2800      	cmp	r0, #0
1000168a:	d12f      	bne.n	100016ec <ph_remove_any_head+0xb8>
1000168c:	2300      	movs	r3, #0
1000168e:	7053      	strb	r3, [r2, #1]
10001690:	b003      	add	sp, #12
10001692:	bcf0      	pop	{r4, r5, r6, r7}
10001694:	46bb      	mov	fp, r7
10001696:	46b2      	mov	sl, r6
10001698:	46a9      	mov	r9, r5
1000169a:	46a0      	mov	r8, r4
1000169c:	bdf0      	pop	{r4, r5, r6, r7, pc}
1000169e:	0072      	lsls	r2, r6, #1
100016a0:	4462      	add	r2, ip
100016a2:	3a03      	subs	r2, #3
100016a4:	1889      	adds	r1, r1, r2
100016a6:	784a      	ldrb	r2, [r1, #1]
100016a8:	4690      	mov	r8, r2
100016aa:	2200      	movs	r2, #0
100016ac:	704a      	strb	r2, [r1, #1]
100016ae:	4691      	mov	r9, r2
100016b0:	705a      	strb	r2, [r3, #1]
100016b2:	0001      	movs	r1, r0
100016b4:	0032      	movs	r2, r6
100016b6:	0020      	movs	r0, r4
100016b8:	f7ff ff22 	bl	10001500 <ph_merge_nodes>
100016bc:	4643      	mov	r3, r8
100016be:	4682      	mov	sl, r0
100016c0:	2b00      	cmp	r3, #0
100016c2:	d007      	beq.n	100016d4 <ph_remove_any_head+0xa0>
100016c4:	005b      	lsls	r3, r3, #1
100016c6:	6821      	ldr	r1, [r4, #0]
100016c8:	4443      	add	r3, r8
100016ca:	3b03      	subs	r3, #3
100016cc:	18cb      	adds	r3, r1, r3
100016ce:	785a      	ldrb	r2, [r3, #1]
100016d0:	2a00      	cmp	r2, #0
100016d2:	d116      	bne.n	10001702 <ph_remove_any_head+0xce>
100016d4:	4642      	mov	r2, r8
100016d6:	4651      	mov	r1, sl
100016d8:	0020      	movs	r0, r4
100016da:	f7ff ff11 	bl	10001500 <ph_merge_nodes>
100016de:	6821      	ldr	r1, [r4, #0]
100016e0:	9b01      	ldr	r3, [sp, #4]
100016e2:	19ca      	adds	r2, r1, r7
100016e4:	2b00      	cmp	r3, #0
100016e6:	d1c2      	bne.n	1000166e <ph_remove_any_head+0x3a>
100016e8:	2800      	cmp	r0, #0
100016ea:	d0cf      	beq.n	1000168c <ph_remove_any_head+0x58>
100016ec:	0043      	lsls	r3, r0, #1
100016ee:	181b      	adds	r3, r3, r0
100016f0:	3b03      	subs	r3, #3
100016f2:	18cb      	adds	r3, r1, r3
100016f4:	2100      	movs	r1, #0
100016f6:	7099      	strb	r1, [r3, #2]
100016f8:	e7c8      	b.n	1000168c <ph_remove_any_head+0x58>
100016fa:	9b01      	ldr	r3, [sp, #4]
100016fc:	2b00      	cmp	r3, #0
100016fe:	d1b6      	bne.n	1000166e <ph_remove_any_head+0x3a>
10001700:	e7c4      	b.n	1000168c <ph_remove_any_head+0x58>
10001702:	0050      	lsls	r0, r2, #1
10001704:	1880      	adds	r0, r0, r2
10001706:	3803      	subs	r0, #3
10001708:	1809      	adds	r1, r1, r0
1000170a:	7848      	ldrb	r0, [r1, #1]
1000170c:	4683      	mov	fp, r0
1000170e:	4648      	mov	r0, r9
10001710:	7048      	strb	r0, [r1, #1]
10001712:	7058      	strb	r0, [r3, #1]
10001714:	4641      	mov	r1, r8
10001716:	0020      	movs	r0, r4
10001718:	f7ff fef2 	bl	10001500 <ph_merge_nodes>
1000171c:	4659      	mov	r1, fp
1000171e:	4680      	mov	r8, r0
10001720:	0020      	movs	r0, r4
10001722:	f7ff ff3f 	bl	100015a4 <ph_merge_two_pass>
10001726:	4641      	mov	r1, r8
10001728:	0002      	movs	r2, r0
1000172a:	0020      	movs	r0, r4
1000172c:	f7ff fee8 	bl	10001500 <ph_merge_nodes>
10001730:	4680      	mov	r8, r0
10001732:	e7cf      	b.n	100016d4 <ph_remove_any_head+0xa0>

10001734 <ph_remove_head>:
10001734:	b5f0      	push	{r4, r5, r6, r7, lr}
10001736:	4657      	mov	r7, sl
10001738:	4645      	mov	r5, r8
1000173a:	46de      	mov	lr, fp
1000173c:	464e      	mov	r6, r9
1000173e:	b5e0      	push	{r5, r6, r7, lr}
10001740:	b083      	sub	sp, #12
10001742:	9101      	str	r1, [sp, #4]
10001744:	7b45      	ldrb	r5, [r0, #13]
10001746:	0004      	movs	r4, r0
10001748:	006b      	lsls	r3, r5, #1
1000174a:	6800      	ldr	r0, [r0, #0]
1000174c:	195b      	adds	r3, r3, r5
1000174e:	1edf      	subs	r7, r3, #3
10001750:	5dc1      	ldrb	r1, [r0, r7]
10001752:	19c2      	adds	r2, r0, r7
10001754:	2900      	cmp	r1, #0
10001756:	d052      	beq.n	100017fe <ph_remove_head+0xca>
10001758:	004b      	lsls	r3, r1, #1
1000175a:	185b      	adds	r3, r3, r1
1000175c:	3b03      	subs	r3, #3
1000175e:	18c3      	adds	r3, r0, r3
10001760:	785e      	ldrb	r6, [r3, #1]
10001762:	46b4      	mov	ip, r6
10001764:	2e00      	cmp	r6, #0
10001766:	d11c      	bne.n	100017a2 <ph_remove_head+0x6e>
10001768:	9e01      	ldr	r6, [sp, #4]
1000176a:	2e00      	cmp	r6, #0
1000176c:	d044      	beq.n	100017f8 <ph_remove_head+0xc4>
1000176e:	7be6      	ldrb	r6, [r4, #15]
10001770:	2e00      	cmp	r6, #0
10001772:	d004      	beq.n	1000177e <ph_remove_head+0x4a>
10001774:	0073      	lsls	r3, r6, #1
10001776:	199b      	adds	r3, r3, r6
10001778:	18c3      	adds	r3, r0, r3
1000177a:	3b03      	subs	r3, #3
1000177c:	705d      	strb	r5, [r3, #1]
1000177e:	7ba3      	ldrb	r3, [r4, #14]
10001780:	2b00      	cmp	r3, #0
10001782:	d100      	bne.n	10001786 <ph_remove_head+0x52>
10001784:	73a5      	strb	r5, [r4, #14]
10001786:	73e5      	strb	r5, [r4, #15]
10001788:	2900      	cmp	r1, #0
1000178a:	d131      	bne.n	100017f0 <ph_remove_head+0xbc>
1000178c:	2300      	movs	r3, #0
1000178e:	0028      	movs	r0, r5
10001790:	7053      	strb	r3, [r2, #1]
10001792:	7361      	strb	r1, [r4, #13]
10001794:	b003      	add	sp, #12
10001796:	bcf0      	pop	{r4, r5, r6, r7}
10001798:	46bb      	mov	fp, r7
1000179a:	46b2      	mov	sl, r6
1000179c:	46a9      	mov	r9, r5
1000179e:	46a0      	mov	r8, r4
100017a0:	bdf0      	pop	{r4, r5, r6, r7, pc}
100017a2:	0072      	lsls	r2, r6, #1
100017a4:	4462      	add	r2, ip
100017a6:	3a03      	subs	r2, #3
100017a8:	1880      	adds	r0, r0, r2
100017aa:	7842      	ldrb	r2, [r0, #1]
100017ac:	4690      	mov	r8, r2
100017ae:	2200      	movs	r2, #0
100017b0:	7042      	strb	r2, [r0, #1]
100017b2:	4691      	mov	r9, r2
100017b4:	705a      	strb	r2, [r3, #1]
100017b6:	0020      	movs	r0, r4
100017b8:	0032      	movs	r2, r6
100017ba:	f7ff fea1 	bl	10001500 <ph_merge_nodes>
100017be:	4643      	mov	r3, r8
100017c0:	4682      	mov	sl, r0
100017c2:	2b00      	cmp	r3, #0
100017c4:	d007      	beq.n	100017d6 <ph_remove_head+0xa2>
100017c6:	005b      	lsls	r3, r3, #1
100017c8:	6821      	ldr	r1, [r4, #0]
100017ca:	4443      	add	r3, r8
100017cc:	3b03      	subs	r3, #3
100017ce:	18cb      	adds	r3, r1, r3
100017d0:	785a      	ldrb	r2, [r3, #1]
100017d2:	2a00      	cmp	r2, #0
100017d4:	d117      	bne.n	10001806 <ph_remove_head+0xd2>
100017d6:	4642      	mov	r2, r8
100017d8:	4651      	mov	r1, sl
100017da:	0020      	movs	r0, r4
100017dc:	f7ff fe90 	bl	10001500 <ph_merge_nodes>
100017e0:	9b01      	ldr	r3, [sp, #4]
100017e2:	0001      	movs	r1, r0
100017e4:	6820      	ldr	r0, [r4, #0]
100017e6:	19c2      	adds	r2, r0, r7
100017e8:	2b00      	cmp	r3, #0
100017ea:	d1c0      	bne.n	1000176e <ph_remove_head+0x3a>
100017ec:	2900      	cmp	r1, #0
100017ee:	d0cd      	beq.n	1000178c <ph_remove_head+0x58>
100017f0:	004b      	lsls	r3, r1, #1
100017f2:	185b      	adds	r3, r3, r1
100017f4:	3b03      	subs	r3, #3
100017f6:	18c3      	adds	r3, r0, r3
100017f8:	2000      	movs	r0, #0
100017fa:	7098      	strb	r0, [r3, #2]
100017fc:	e7c6      	b.n	1000178c <ph_remove_head+0x58>
100017fe:	9b01      	ldr	r3, [sp, #4]
10001800:	2b00      	cmp	r3, #0
10001802:	d1b4      	bne.n	1000176e <ph_remove_head+0x3a>
10001804:	e7c2      	b.n	1000178c <ph_remove_head+0x58>
10001806:	0050      	lsls	r0, r2, #1
10001808:	1880      	adds	r0, r0, r2
1000180a:	3803      	subs	r0, #3
1000180c:	1809      	adds	r1, r1, r0
1000180e:	7848      	ldrb	r0, [r1, #1]
10001810:	4683      	mov	fp, r0
10001812:	4648      	mov	r0, r9
10001814:	7048      	strb	r0, [r1, #1]
10001816:	7058      	strb	r0, [r3, #1]
10001818:	4641      	mov	r1, r8
1000181a:	0020      	movs	r0, r4
1000181c:	f7ff fe70 	bl	10001500 <ph_merge_nodes>
10001820:	4659      	mov	r1, fp
10001822:	4680      	mov	r8, r0
10001824:	0020      	movs	r0, r4
10001826:	f7ff febd 	bl	100015a4 <ph_merge_two_pass>
1000182a:	4641      	mov	r1, r8
1000182c:	0002      	movs	r2, r0
1000182e:	0020      	movs	r0, r4
10001830:	f7ff fe66 	bl	10001500 <ph_merge_nodes>
10001834:	4680      	mov	r8, r0
10001836:	e7ce      	b.n	100017d6 <ph_remove_head+0xa2>

10001838 <ph_remove_and_free_node>:
10001838:	b570      	push	{r4, r5, r6, lr}
1000183a:	0004      	movs	r4, r0
1000183c:	2900      	cmp	r1, #0
1000183e:	d02c      	beq.n	1000189a <ph_remove_and_free_node+0x62>
10001840:	7b43      	ldrb	r3, [r0, #13]
10001842:	428b      	cmp	r3, r1
10001844:	d02e      	beq.n	100018a4 <ph_remove_and_free_node+0x6c>
10001846:	6805      	ldr	r5, [r0, #0]
10001848:	0048      	lsls	r0, r1, #1
1000184a:	1840      	adds	r0, r0, r1
1000184c:	3803      	subs	r0, #3
1000184e:	1828      	adds	r0, r5, r0
10001850:	7882      	ldrb	r2, [r0, #2]
10001852:	2a00      	cmp	r2, #0
10001854:	d021      	beq.n	1000189a <ph_remove_and_free_node+0x62>
10001856:	0053      	lsls	r3, r2, #1
10001858:	189b      	adds	r3, r3, r2
1000185a:	3b03      	subs	r3, #3
1000185c:	5cea      	ldrb	r2, [r5, r3]
1000185e:	18ee      	adds	r6, r5, r3
10001860:	428a      	cmp	r2, r1
10001862:	d102      	bne.n	1000186a <ph_remove_and_free_node+0x32>
10001864:	e01b      	b.n	1000189e <ph_remove_and_free_node+0x66>
10001866:	2a00      	cmp	r2, #0
10001868:	d008      	beq.n	1000187c <ph_remove_and_free_node+0x44>
1000186a:	0053      	lsls	r3, r2, #1
1000186c:	189b      	adds	r3, r3, r2
1000186e:	3b03      	subs	r3, #3
10001870:	18eb      	adds	r3, r5, r3
10001872:	785a      	ldrb	r2, [r3, #1]
10001874:	428a      	cmp	r2, r1
10001876:	d1f6      	bne.n	10001866 <ph_remove_and_free_node+0x2e>
10001878:	7842      	ldrb	r2, [r0, #1]
1000187a:	705a      	strb	r2, [r3, #1]
1000187c:	2300      	movs	r3, #0
1000187e:	2201      	movs	r2, #1
10001880:	7083      	strb	r3, [r0, #2]
10001882:	7043      	strb	r3, [r0, #1]
10001884:	0020      	movs	r0, r4
10001886:	f7ff fed5 	bl	10001634 <ph_remove_any_head>
1000188a:	7b61      	ldrb	r1, [r4, #13]
1000188c:	0002      	movs	r2, r0
1000188e:	0020      	movs	r0, r4
10001890:	f7ff fe36 	bl	10001500 <ph_merge_nodes>
10001894:	7360      	strb	r0, [r4, #13]
10001896:	2001      	movs	r0, #1
10001898:	e000      	b.n	1000189c <ph_remove_and_free_node+0x64>
1000189a:	2000      	movs	r0, #0
1000189c:	bd70      	pop	{r4, r5, r6, pc}
1000189e:	7843      	ldrb	r3, [r0, #1]
100018a0:	7033      	strb	r3, [r6, #0]
100018a2:	e7eb      	b.n	1000187c <ph_remove_and_free_node+0x44>
100018a4:	2201      	movs	r2, #1
100018a6:	0019      	movs	r1, r3
100018a8:	f7ff fec4 	bl	10001634 <ph_remove_any_head>
100018ac:	7360      	strb	r0, [r4, #13]
100018ae:	2001      	movs	r0, #1
100018b0:	e7f4      	b.n	1000189c <ph_remove_and_free_node+0x64>
100018b2:	46c0      	nop			; (mov r8, r8)

100018b4 <clocks_init>:
100018b4:	b530      	push	{r4, r5, lr}
100018b6:	200c      	movs	r0, #12
100018b8:	b083      	sub	sp, #12
100018ba:	f000 f9b3 	bl	10001c24 <watchdog_start_tick>
100018be:	f7fe fe47 	bl	10000550 <running_on_fpga>
100018c2:	2800      	cmp	r0, #0
100018c4:	d00e      	beq.n	100018e4 <clocks_init+0x30>
100018c6:	4b99      	ldr	r3, [pc, #612]	; (10001b2c <clocks_init+0x278>)
100018c8:	4a99      	ldr	r2, [pc, #612]	; (10001b30 <clocks_init+0x27c>)
100018ca:	601a      	str	r2, [r3, #0]
100018cc:	605a      	str	r2, [r3, #4]
100018ce:	609a      	str	r2, [r3, #8]
100018d0:	60da      	str	r2, [r3, #12]
100018d2:	611a      	str	r2, [r3, #16]
100018d4:	615a      	str	r2, [r3, #20]
100018d6:	619a      	str	r2, [r3, #24]
100018d8:	61da      	str	r2, [r3, #28]
100018da:	621a      	str	r2, [r3, #32]
100018dc:	4a95      	ldr	r2, [pc, #596]	; (10001b34 <clocks_init+0x280>)
100018de:	625a      	str	r2, [r3, #36]	; 0x24
100018e0:	b003      	add	sp, #12
100018e2:	bd30      	pop	{r4, r5, pc}
100018e4:	4c94      	ldr	r4, [pc, #592]	; (10001b38 <clocks_init+0x284>)
100018e6:	67a0      	str	r0, [r4, #120]	; 0x78
100018e8:	f000 f9f0 	bl	10001ccc <xosc_init>
100018ec:	2201      	movs	r2, #1
100018ee:	4b93      	ldr	r3, [pc, #588]	; (10001b3c <clocks_init+0x288>)
100018f0:	601a      	str	r2, [r3, #0]
100018f2:	6c63      	ldr	r3, [r4, #68]	; 0x44
100018f4:	2b01      	cmp	r3, #1
100018f6:	d1fc      	bne.n	100018f2 <clocks_init+0x3e>
100018f8:	2203      	movs	r2, #3
100018fa:	4b91      	ldr	r3, [pc, #580]	; (10001b40 <clocks_init+0x28c>)
100018fc:	601a      	str	r2, [r3, #0]
100018fe:	4a8e      	ldr	r2, [pc, #568]	; (10001b38 <clocks_init+0x284>)
10001900:	6b93      	ldr	r3, [r2, #56]	; 0x38
10001902:	2b01      	cmp	r3, #1
10001904:	d1fc      	bne.n	10001900 <clocks_init+0x4c>
10001906:	3301      	adds	r3, #1
10001908:	2101      	movs	r1, #1
1000190a:	4a8e      	ldr	r2, [pc, #568]	; (10001b44 <clocks_init+0x290>)
1000190c:	488e      	ldr	r0, [pc, #568]	; (10001b48 <clocks_init+0x294>)
1000190e:	9300      	str	r3, [sp, #0]
10001910:	3304      	adds	r3, #4
10001912:	f000 f937 	bl	10001b84 <pll_init>
10001916:	2305      	movs	r3, #5
10001918:	4a8c      	ldr	r2, [pc, #560]	; (10001b4c <clocks_init+0x298>)
1000191a:	9300      	str	r3, [sp, #0]
1000191c:	2101      	movs	r1, #1
1000191e:	488c      	ldr	r0, [pc, #560]	; (10001b50 <clocks_init+0x29c>)
10001920:	f000 f930 	bl	10001b84 <pll_init>
10001924:	4b8b      	ldr	r3, [pc, #556]	; (10001b54 <clocks_init+0x2a0>)
10001926:	685a      	ldr	r2, [r3, #4]
10001928:	2aff      	cmp	r2, #255	; 0xff
1000192a:	d802      	bhi.n	10001932 <clocks_init+0x7e>
1000192c:	2280      	movs	r2, #128	; 0x80
1000192e:	0052      	lsls	r2, r2, #1
10001930:	605a      	str	r2, [r3, #4]
10001932:	2280      	movs	r2, #128	; 0x80
10001934:	4c7d      	ldr	r4, [pc, #500]	; (10001b2c <clocks_init+0x278>)
10001936:	4b82      	ldr	r3, [pc, #520]	; (10001b40 <clocks_init+0x28c>)
10001938:	6921      	ldr	r1, [r4, #16]
1000193a:	0112      	lsls	r2, r2, #4
1000193c:	4d85      	ldr	r5, [pc, #532]	; (10001b54 <clocks_init+0x2a0>)
1000193e:	601a      	str	r2, [r3, #0]
10001940:	2900      	cmp	r1, #0
10001942:	d007      	beq.n	10001954 <clocks_init+0xa0>
10001944:	6960      	ldr	r0, [r4, #20]
10001946:	f000 fae5 	bl	10001f14 <__wrap___aeabi_uidiv>
1000194a:	1c43      	adds	r3, r0, #1
1000194c:	0058      	lsls	r0, r3, #1
1000194e:	18c0      	adds	r0, r0, r3
10001950:	3803      	subs	r0, #3
10001952:	d2fd      	bcs.n	10001950 <clocks_init+0x9c>
10001954:	21e0      	movs	r1, #224	; 0xe0
10001956:	4b7f      	ldr	r3, [pc, #508]	; (10001b54 <clocks_init+0x2a0>)
10001958:	2002      	movs	r0, #2
1000195a:	681a      	ldr	r2, [r3, #0]
1000195c:	4011      	ands	r1, r2
1000195e:	2280      	movs	r2, #128	; 0x80
10001960:	0152      	lsls	r2, r2, #5
10001962:	432a      	orrs	r2, r5
10001964:	6011      	str	r1, [r2, #0]
10001966:	6819      	ldr	r1, [r3, #0]
10001968:	4048      	eors	r0, r1
1000196a:	2103      	movs	r1, #3
1000196c:	4001      	ands	r1, r0
1000196e:	6011      	str	r1, [r2, #0]
10001970:	2104      	movs	r1, #4
10001972:	689a      	ldr	r2, [r3, #8]
10001974:	4211      	tst	r1, r2
10001976:	d0fc      	beq.n	10001972 <clocks_init+0xbe>
10001978:	2280      	movs	r2, #128	; 0x80
1000197a:	2180      	movs	r1, #128	; 0x80
1000197c:	0192      	lsls	r2, r2, #6
1000197e:	432a      	orrs	r2, r5
10001980:	0109      	lsls	r1, r1, #4
10001982:	6011      	str	r1, [r2, #0]
10001984:	2280      	movs	r2, #128	; 0x80
10001986:	0052      	lsls	r2, r2, #1
10001988:	605a      	str	r2, [r3, #4]
1000198a:	4b73      	ldr	r3, [pc, #460]	; (10001b58 <clocks_init+0x2a4>)
1000198c:	6123      	str	r3, [r4, #16]
1000198e:	4b73      	ldr	r3, [pc, #460]	; (10001b5c <clocks_init+0x2a8>)
10001990:	6859      	ldr	r1, [r3, #4]
10001992:	29ff      	cmp	r1, #255	; 0xff
10001994:	d800      	bhi.n	10001998 <clocks_init+0xe4>
10001996:	605a      	str	r2, [r3, #4]
10001998:	2103      	movs	r1, #3
1000199a:	4a68      	ldr	r2, [pc, #416]	; (10001b3c <clocks_init+0x288>)
1000199c:	4b6f      	ldr	r3, [pc, #444]	; (10001b5c <clocks_init+0x2a8>)
1000199e:	6011      	str	r1, [r2, #0]
100019a0:	3902      	subs	r1, #2
100019a2:	689a      	ldr	r2, [r3, #8]
100019a4:	4211      	tst	r1, r2
100019a6:	d0fc      	beq.n	100019a2 <clocks_init+0xee>
100019a8:	20e0      	movs	r0, #224	; 0xe0
100019aa:	681a      	ldr	r2, [r3, #0]
100019ac:	4010      	ands	r0, r2
100019ae:	2280      	movs	r2, #128	; 0x80
100019b0:	0152      	lsls	r2, r2, #5
100019b2:	431a      	orrs	r2, r3
100019b4:	6010      	str	r0, [r2, #0]
100019b6:	6818      	ldr	r0, [r3, #0]
100019b8:	4048      	eors	r0, r1
100019ba:	2103      	movs	r1, #3
100019bc:	4001      	ands	r1, r0
100019be:	2002      	movs	r0, #2
100019c0:	6011      	str	r1, [r2, #0]
100019c2:	4966      	ldr	r1, [pc, #408]	; (10001b5c <clocks_init+0x2a8>)
100019c4:	688a      	ldr	r2, [r1, #8]
100019c6:	4210      	tst	r0, r2
100019c8:	d0fc      	beq.n	100019c4 <clocks_init+0x110>
100019ca:	2280      	movs	r2, #128	; 0x80
100019cc:	0192      	lsls	r2, r2, #6
100019ce:	4313      	orrs	r3, r2
100019d0:	2280      	movs	r2, #128	; 0x80
100019d2:	0112      	lsls	r2, r2, #4
100019d4:	601a      	str	r2, [r3, #0]
100019d6:	2280      	movs	r2, #128	; 0x80
100019d8:	4b61      	ldr	r3, [pc, #388]	; (10001b60 <clocks_init+0x2ac>)
100019da:	0052      	lsls	r2, r2, #1
100019dc:	604a      	str	r2, [r1, #4]
100019de:	6163      	str	r3, [r4, #20]
100019e0:	4b60      	ldr	r3, [pc, #384]	; (10001b64 <clocks_init+0x2b0>)
100019e2:	6859      	ldr	r1, [r3, #4]
100019e4:	29ff      	cmp	r1, #255	; 0xff
100019e6:	d800      	bhi.n	100019ea <clocks_init+0x136>
100019e8:	605a      	str	r2, [r3, #4]
100019ea:	2280      	movs	r2, #128	; 0x80
100019ec:	4b5e      	ldr	r3, [pc, #376]	; (10001b68 <clocks_init+0x2b4>)
100019ee:	69e1      	ldr	r1, [r4, #28]
100019f0:	0112      	lsls	r2, r2, #4
100019f2:	4d5c      	ldr	r5, [pc, #368]	; (10001b64 <clocks_init+0x2b0>)
100019f4:	601a      	str	r2, [r3, #0]
100019f6:	2900      	cmp	r1, #0
100019f8:	d007      	beq.n	10001a0a <clocks_init+0x156>
100019fa:	6960      	ldr	r0, [r4, #20]
100019fc:	f000 fa8a 	bl	10001f14 <__wrap___aeabi_uidiv>
10001a00:	1c43      	adds	r3, r0, #1
10001a02:	0058      	lsls	r0, r3, #1
10001a04:	18c0      	adds	r0, r0, r3
10001a06:	3803      	subs	r0, #3
10001a08:	d2fd      	bcs.n	10001a06 <clocks_init+0x152>
10001a0a:	22e0      	movs	r2, #224	; 0xe0
10001a0c:	4955      	ldr	r1, [pc, #340]	; (10001b64 <clocks_init+0x2b0>)
10001a0e:	680b      	ldr	r3, [r1, #0]
10001a10:	401a      	ands	r2, r3
10001a12:	2380      	movs	r3, #128	; 0x80
10001a14:	015b      	lsls	r3, r3, #5
10001a16:	432b      	orrs	r3, r5
10001a18:	601a      	str	r2, [r3, #0]
10001a1a:	2380      	movs	r3, #128	; 0x80
10001a1c:	2280      	movs	r2, #128	; 0x80
10001a1e:	019b      	lsls	r3, r3, #6
10001a20:	432b      	orrs	r3, r5
10001a22:	0112      	lsls	r2, r2, #4
10001a24:	601a      	str	r2, [r3, #0]
10001a26:	2280      	movs	r2, #128	; 0x80
10001a28:	4b41      	ldr	r3, [pc, #260]	; (10001b30 <clocks_init+0x27c>)
10001a2a:	0052      	lsls	r2, r2, #1
10001a2c:	604a      	str	r2, [r1, #4]
10001a2e:	61e3      	str	r3, [r4, #28]
10001a30:	4b4e      	ldr	r3, [pc, #312]	; (10001b6c <clocks_init+0x2b8>)
10001a32:	6859      	ldr	r1, [r3, #4]
10001a34:	29ff      	cmp	r1, #255	; 0xff
10001a36:	d800      	bhi.n	10001a3a <clocks_init+0x186>
10001a38:	605a      	str	r2, [r3, #4]
10001a3a:	2280      	movs	r2, #128	; 0x80
10001a3c:	4b4c      	ldr	r3, [pc, #304]	; (10001b70 <clocks_init+0x2bc>)
10001a3e:	6a21      	ldr	r1, [r4, #32]
10001a40:	0112      	lsls	r2, r2, #4
10001a42:	4d4a      	ldr	r5, [pc, #296]	; (10001b6c <clocks_init+0x2b8>)
10001a44:	601a      	str	r2, [r3, #0]
10001a46:	2900      	cmp	r1, #0
10001a48:	d007      	beq.n	10001a5a <clocks_init+0x1a6>
10001a4a:	6960      	ldr	r0, [r4, #20]
10001a4c:	f000 fa62 	bl	10001f14 <__wrap___aeabi_uidiv>
10001a50:	1c43      	adds	r3, r0, #1
10001a52:	0058      	lsls	r0, r3, #1
10001a54:	18c0      	adds	r0, r0, r3
10001a56:	3803      	subs	r0, #3
10001a58:	d2fd      	bcs.n	10001a56 <clocks_init+0x1a2>
10001a5a:	22e0      	movs	r2, #224	; 0xe0
10001a5c:	4943      	ldr	r1, [pc, #268]	; (10001b6c <clocks_init+0x2b8>)
10001a5e:	680b      	ldr	r3, [r1, #0]
10001a60:	401a      	ands	r2, r3
10001a62:	2380      	movs	r3, #128	; 0x80
10001a64:	015b      	lsls	r3, r3, #5
10001a66:	432b      	orrs	r3, r5
10001a68:	601a      	str	r2, [r3, #0]
10001a6a:	2380      	movs	r3, #128	; 0x80
10001a6c:	2280      	movs	r2, #128	; 0x80
10001a6e:	019b      	lsls	r3, r3, #6
10001a70:	432b      	orrs	r3, r5
10001a72:	0112      	lsls	r2, r2, #4
10001a74:	601a      	str	r2, [r3, #0]
10001a76:	2380      	movs	r3, #128	; 0x80
10001a78:	2280      	movs	r2, #128	; 0x80
10001a7a:	005b      	lsls	r3, r3, #1
10001a7c:	604b      	str	r3, [r1, #4]
10001a7e:	4b2c      	ldr	r3, [pc, #176]	; (10001b30 <clocks_init+0x27c>)
10001a80:	02d2      	lsls	r2, r2, #11
10001a82:	6223      	str	r3, [r4, #32]
10001a84:	4b3b      	ldr	r3, [pc, #236]	; (10001b74 <clocks_init+0x2c0>)
10001a86:	6859      	ldr	r1, [r3, #4]
10001a88:	4291      	cmp	r1, r2
10001a8a:	d200      	bcs.n	10001a8e <clocks_init+0x1da>
10001a8c:	605a      	str	r2, [r3, #4]
10001a8e:	2280      	movs	r2, #128	; 0x80
10001a90:	4b39      	ldr	r3, [pc, #228]	; (10001b78 <clocks_init+0x2c4>)
10001a92:	6a61      	ldr	r1, [r4, #36]	; 0x24
10001a94:	0112      	lsls	r2, r2, #4
10001a96:	4d37      	ldr	r5, [pc, #220]	; (10001b74 <clocks_init+0x2c0>)
10001a98:	601a      	str	r2, [r3, #0]
10001a9a:	2900      	cmp	r1, #0
10001a9c:	d007      	beq.n	10001aae <clocks_init+0x1fa>
10001a9e:	6960      	ldr	r0, [r4, #20]
10001aa0:	f000 fa38 	bl	10001f14 <__wrap___aeabi_uidiv>
10001aa4:	1c43      	adds	r3, r0, #1
10001aa6:	0058      	lsls	r0, r3, #1
10001aa8:	18c0      	adds	r0, r0, r3
10001aaa:	3803      	subs	r0, #3
10001aac:	d2fd      	bcs.n	10001aaa <clocks_init+0x1f6>
10001aae:	22e0      	movs	r2, #224	; 0xe0
10001ab0:	4930      	ldr	r1, [pc, #192]	; (10001b74 <clocks_init+0x2c0>)
10001ab2:	680b      	ldr	r3, [r1, #0]
10001ab4:	401a      	ands	r2, r3
10001ab6:	2380      	movs	r3, #128	; 0x80
10001ab8:	015b      	lsls	r3, r3, #5
10001aba:	432b      	orrs	r3, r5
10001abc:	601a      	str	r2, [r3, #0]
10001abe:	2380      	movs	r3, #128	; 0x80
10001ac0:	2280      	movs	r2, #128	; 0x80
10001ac2:	019b      	lsls	r3, r3, #6
10001ac4:	432b      	orrs	r3, r5
10001ac6:	0112      	lsls	r2, r2, #4
10001ac8:	601a      	str	r2, [r3, #0]
10001aca:	2380      	movs	r3, #128	; 0x80
10001acc:	02db      	lsls	r3, r3, #11
10001ace:	604b      	str	r3, [r1, #4]
10001ad0:	4b18      	ldr	r3, [pc, #96]	; (10001b34 <clocks_init+0x280>)
10001ad2:	6263      	str	r3, [r4, #36]	; 0x24
10001ad4:	4b29      	ldr	r3, [pc, #164]	; (10001b7c <clocks_init+0x2c8>)
10001ad6:	685a      	ldr	r2, [r3, #4]
10001ad8:	2aff      	cmp	r2, #255	; 0xff
10001ada:	d802      	bhi.n	10001ae2 <clocks_init+0x22e>
10001adc:	2280      	movs	r2, #128	; 0x80
10001ade:	0052      	lsls	r2, r2, #1
10001ae0:	605a      	str	r2, [r3, #4]
10001ae2:	2280      	movs	r2, #128	; 0x80
10001ae4:	4b26      	ldr	r3, [pc, #152]	; (10001b80 <clocks_init+0x2cc>)
10001ae6:	69a1      	ldr	r1, [r4, #24]
10001ae8:	0112      	lsls	r2, r2, #4
10001aea:	4d24      	ldr	r5, [pc, #144]	; (10001b7c <clocks_init+0x2c8>)
10001aec:	601a      	str	r2, [r3, #0]
10001aee:	2900      	cmp	r1, #0
10001af0:	d007      	beq.n	10001b02 <clocks_init+0x24e>
10001af2:	6960      	ldr	r0, [r4, #20]
10001af4:	f000 fa0e 	bl	10001f14 <__wrap___aeabi_uidiv>
10001af8:	1c43      	adds	r3, r0, #1
10001afa:	0058      	lsls	r0, r3, #1
10001afc:	18c0      	adds	r0, r0, r3
10001afe:	3803      	subs	r0, #3
10001b00:	d2fd      	bcs.n	10001afe <clocks_init+0x24a>
10001b02:	22e0      	movs	r2, #224	; 0xe0
10001b04:	491d      	ldr	r1, [pc, #116]	; (10001b7c <clocks_init+0x2c8>)
10001b06:	680b      	ldr	r3, [r1, #0]
10001b08:	401a      	ands	r2, r3
10001b0a:	2380      	movs	r3, #128	; 0x80
10001b0c:	015b      	lsls	r3, r3, #5
10001b0e:	432b      	orrs	r3, r5
10001b10:	601a      	str	r2, [r3, #0]
10001b12:	2380      	movs	r3, #128	; 0x80
10001b14:	2280      	movs	r2, #128	; 0x80
10001b16:	019b      	lsls	r3, r3, #6
10001b18:	432b      	orrs	r3, r5
10001b1a:	0112      	lsls	r2, r2, #4
10001b1c:	601a      	str	r2, [r3, #0]
10001b1e:	2380      	movs	r3, #128	; 0x80
10001b20:	005b      	lsls	r3, r3, #1
10001b22:	604b      	str	r3, [r1, #4]
10001b24:	4b0e      	ldr	r3, [pc, #56]	; (10001b60 <clocks_init+0x2ac>)
10001b26:	61a3      	str	r3, [r4, #24]
10001b28:	e6da      	b.n	100018e0 <clocks_init+0x2c>
10001b2a:	46c0      	nop			; (mov r8, r8)
10001b2c:	20002014 	.word	0x20002014
10001b30:	02dc6c00 	.word	0x02dc6c00
10001b34:	0000b71b 	.word	0x0000b71b
10001b38:	40008000 	.word	0x40008000
10001b3c:	4000b03c 	.word	0x4000b03c
10001b40:	4000b030 	.word	0x4000b030
10001b44:	59682f00 	.word	0x59682f00
10001b48:	40028000 	.word	0x40028000
10001b4c:	47868c00 	.word	0x47868c00
10001b50:	4002c000 	.word	0x4002c000
10001b54:	40008030 	.word	0x40008030
10001b58:	00b71b00 	.word	0x00b71b00
10001b5c:	4000803c 	.word	0x4000803c
10001b60:	07735940 	.word	0x07735940
10001b64:	40008054 	.word	0x40008054
10001b68:	4000b054 	.word	0x4000b054
10001b6c:	40008060 	.word	0x40008060
10001b70:	4000b060 	.word	0x4000b060
10001b74:	4000806c 	.word	0x4000806c
10001b78:	4000b06c 	.word	0x4000b06c
10001b7c:	40008048 	.word	0x40008048
10001b80:	4000b048 	.word	0x4000b048

10001b84 <pll_init>:
10001b84:	b5f8      	push	{r3, r4, r5, r6, r7, lr}
10001b86:	0004      	movs	r4, r0
10001b88:	4821      	ldr	r0, [pc, #132]	; (10001c10 <pll_init+0x8c>)
10001b8a:	001d      	movs	r5, r3
10001b8c:	0017      	movs	r7, r2
10001b8e:	000e      	movs	r6, r1
10001b90:	f000 f9c0 	bl	10001f14 <__wrap___aeabi_uidiv>
10001b94:	0001      	movs	r1, r0
10001b96:	0038      	movs	r0, r7
10001b98:	f000 f9bc 	bl	10001f14 <__wrap___aeabi_uidiv>
10001b9c:	9b06      	ldr	r3, [sp, #24]
10001b9e:	0429      	lsls	r1, r5, #16
10001ba0:	031b      	lsls	r3, r3, #12
10001ba2:	4319      	orrs	r1, r3
10001ba4:	6823      	ldr	r3, [r4, #0]
10001ba6:	2b00      	cmp	r3, #0
10001ba8:	db20      	blt.n	10001bec <pll_init+0x68>
10001baa:	4b1a      	ldr	r3, [pc, #104]	; (10001c14 <pll_init+0x90>)
10001bac:	4d1a      	ldr	r5, [pc, #104]	; (10001c18 <pll_init+0x94>)
10001bae:	18e2      	adds	r2, r4, r3
10001bb0:	4253      	negs	r3, r2
10001bb2:	415a      	adcs	r2, r3
10001bb4:	2380      	movs	r3, #128	; 0x80
10001bb6:	015b      	lsls	r3, r3, #5
10001bb8:	469c      	mov	ip, r3
10001bba:	0312      	lsls	r2, r2, #12
10001bbc:	4b17      	ldr	r3, [pc, #92]	; (10001c1c <pll_init+0x98>)
10001bbe:	4462      	add	r2, ip
10001bc0:	601a      	str	r2, [r3, #0]
10001bc2:	4b17      	ldr	r3, [pc, #92]	; (10001c20 <pll_init+0x9c>)
10001bc4:	601a      	str	r2, [r3, #0]
10001bc6:	0017      	movs	r7, r2
10001bc8:	68ab      	ldr	r3, [r5, #8]
10001bca:	439f      	bics	r7, r3
10001bcc:	d1fb      	bne.n	10001bc6 <pll_init+0x42>
10001bce:	22c0      	movs	r2, #192	; 0xc0
10001bd0:	1d23      	adds	r3, r4, #4
10001bd2:	0192      	lsls	r2, r2, #6
10001bd4:	431a      	orrs	r2, r3
10001bd6:	2321      	movs	r3, #33	; 0x21
10001bd8:	6026      	str	r6, [r4, #0]
10001bda:	60a0      	str	r0, [r4, #8]
10001bdc:	6013      	str	r3, [r2, #0]
10001bde:	6823      	ldr	r3, [r4, #0]
10001be0:	2b00      	cmp	r3, #0
10001be2:	dafc      	bge.n	10001bde <pll_init+0x5a>
10001be4:	2308      	movs	r3, #8
10001be6:	60e1      	str	r1, [r4, #12]
10001be8:	6013      	str	r3, [r2, #0]
10001bea:	bdf8      	pop	{r3, r4, r5, r6, r7, pc}
10001bec:	233f      	movs	r3, #63	; 0x3f
10001bee:	6822      	ldr	r2, [r4, #0]
10001bf0:	4013      	ands	r3, r2
10001bf2:	42b3      	cmp	r3, r6
10001bf4:	d1d9      	bne.n	10001baa <pll_init+0x26>
10001bf6:	68a3      	ldr	r3, [r4, #8]
10001bf8:	051b      	lsls	r3, r3, #20
10001bfa:	0d1b      	lsrs	r3, r3, #20
10001bfc:	4283      	cmp	r3, r0
10001bfe:	d1d4      	bne.n	10001baa <pll_init+0x26>
10001c00:	22ee      	movs	r2, #238	; 0xee
10001c02:	68e3      	ldr	r3, [r4, #12]
10001c04:	02d2      	lsls	r2, r2, #11
10001c06:	4013      	ands	r3, r2
10001c08:	428b      	cmp	r3, r1
10001c0a:	d1ce      	bne.n	10001baa <pll_init+0x26>
10001c0c:	e7ed      	b.n	10001bea <pll_init+0x66>
10001c0e:	46c0      	nop			; (mov r8, r8)
10001c10:	00b71b00 	.word	0x00b71b00
10001c14:	bffd4000 	.word	0xbffd4000
10001c18:	4000c000 	.word	0x4000c000
10001c1c:	4000e000 	.word	0x4000e000
10001c20:	4000f000 	.word	0x4000f000

10001c24 <watchdog_start_tick>:
10001c24:	2380      	movs	r3, #128	; 0x80
10001c26:	4a02      	ldr	r2, [pc, #8]	; (10001c30 <watchdog_start_tick+0xc>)
10001c28:	009b      	lsls	r3, r3, #2
10001c2a:	4303      	orrs	r3, r0
10001c2c:	62d3      	str	r3, [r2, #44]	; 0x2c
10001c2e:	4770      	bx	lr
10001c30:	40058000 	.word	0x40058000

10001c34 <watchdog_reboot>:
10001c34:	b510      	push	{r4, lr}
10001c36:	0014      	movs	r4, r2
10001c38:	2280      	movs	r2, #128	; 0x80
10001c3a:	4b1b      	ldr	r3, [pc, #108]	; (10001ca8 <watchdog_reboot+0x74>)
10001c3c:	05d2      	lsls	r2, r2, #23
10001c3e:	601a      	str	r2, [r3, #0]
10001c40:	2800      	cmp	r0, #0
10001c42:	d01a      	beq.n	10001c7a <watchdog_reboot+0x46>
10001c44:	2301      	movs	r3, #1
10001c46:	4a19      	ldr	r2, [pc, #100]	; (10001cac <watchdog_reboot+0x78>)
10001c48:	4318      	orrs	r0, r3
10001c4a:	4b19      	ldr	r3, [pc, #100]	; (10001cb0 <watchdog_reboot+0x7c>)
10001c4c:	61da      	str	r2, [r3, #28]
10001c4e:	4a19      	ldr	r2, [pc, #100]	; (10001cb4 <watchdog_reboot+0x80>)
10001c50:	4042      	eors	r2, r0
10001c52:	621a      	str	r2, [r3, #32]
10001c54:	6259      	str	r1, [r3, #36]	; 0x24
10001c56:	6298      	str	r0, [r3, #40]	; 0x28
10001c58:	2280      	movs	r2, #128	; 0x80
10001c5a:	4b13      	ldr	r3, [pc, #76]	; (10001ca8 <watchdog_reboot+0x74>)
10001c5c:	05d2      	lsls	r2, r2, #23
10001c5e:	601a      	str	r2, [r3, #0]
10001c60:	4915      	ldr	r1, [pc, #84]	; (10001cb8 <watchdog_reboot+0x84>)
10001c62:	4a16      	ldr	r2, [pc, #88]	; (10001cbc <watchdog_reboot+0x88>)
10001c64:	6011      	str	r1, [r2, #0]
10001c66:	22e0      	movs	r2, #224	; 0xe0
10001c68:	04d2      	lsls	r2, r2, #19
10001c6a:	601a      	str	r2, [r3, #0]
10001c6c:	2c00      	cmp	r4, #0
10001c6e:	d107      	bne.n	10001c80 <watchdog_reboot+0x4c>
10001c70:	2280      	movs	r2, #128	; 0x80
10001c72:	4b13      	ldr	r3, [pc, #76]	; (10001cc0 <watchdog_reboot+0x8c>)
10001c74:	0612      	lsls	r2, r2, #24
10001c76:	601a      	str	r2, [r3, #0]
10001c78:	bd10      	pop	{r4, pc}
10001c7a:	4b0d      	ldr	r3, [pc, #52]	; (10001cb0 <watchdog_reboot+0x7c>)
10001c7c:	61d8      	str	r0, [r3, #28]
10001c7e:	e7eb      	b.n	10001c58 <watchdog_reboot+0x24>
10001c80:	0163      	lsls	r3, r4, #5
10001c82:	1b1b      	subs	r3, r3, r4
10001c84:	009a      	lsls	r2, r3, #2
10001c86:	2380      	movs	r3, #128	; 0x80
10001c88:	1912      	adds	r2, r2, r4
10001c8a:	0112      	lsls	r2, r2, #4
10001c8c:	045b      	lsls	r3, r3, #17
10001c8e:	429a      	cmp	r2, r3
10001c90:	d300      	bcc.n	10001c94 <watchdog_reboot+0x60>
10001c92:	4a0c      	ldr	r2, [pc, #48]	; (10001cc4 <watchdog_reboot+0x90>)
10001c94:	4b0c      	ldr	r3, [pc, #48]	; (10001cc8 <watchdog_reboot+0x94>)
10001c96:	601a      	str	r2, [r3, #0]
10001c98:	4b05      	ldr	r3, [pc, #20]	; (10001cb0 <watchdog_reboot+0x7c>)
10001c9a:	605a      	str	r2, [r3, #4]
10001c9c:	2280      	movs	r2, #128	; 0x80
10001c9e:	4b08      	ldr	r3, [pc, #32]	; (10001cc0 <watchdog_reboot+0x8c>)
10001ca0:	05d2      	lsls	r2, r2, #23
10001ca2:	601a      	str	r2, [r3, #0]
10001ca4:	e7e8      	b.n	10001c78 <watchdog_reboot+0x44>
10001ca6:	46c0      	nop			; (mov r8, r8)
10001ca8:	4005b000 	.word	0x4005b000
10001cac:	b007c0d3 	.word	0xb007c0d3
10001cb0:	40058000 	.word	0x40058000
10001cb4:	4ff83f2d 	.word	0x4ff83f2d
10001cb8:	0001fffc 	.word	0x0001fffc
10001cbc:	40012008 	.word	0x40012008
10001cc0:	4005a000 	.word	0x4005a000
10001cc4:	00ffffff 	.word	0x00ffffff
10001cc8:	200024b8 	.word	0x200024b8

10001ccc <xosc_init>:
10001ccc:	23aa      	movs	r3, #170	; 0xaa
10001cce:	4a06      	ldr	r2, [pc, #24]	; (10001ce8 <xosc_init+0x1c>)
10001cd0:	011b      	lsls	r3, r3, #4
10001cd2:	6013      	str	r3, [r2, #0]
10001cd4:	232f      	movs	r3, #47	; 0x2f
10001cd6:	4905      	ldr	r1, [pc, #20]	; (10001cec <xosc_init+0x20>)
10001cd8:	60d3      	str	r3, [r2, #12]
10001cda:	4b05      	ldr	r3, [pc, #20]	; (10001cf0 <xosc_init+0x24>)
10001cdc:	6019      	str	r1, [r3, #0]
10001cde:	6853      	ldr	r3, [r2, #4]
10001ce0:	2b00      	cmp	r3, #0
10001ce2:	dafc      	bge.n	10001cde <xosc_init+0x12>
10001ce4:	4770      	bx	lr
10001ce6:	46c0      	nop			; (mov r8, r8)
10001ce8:	40024000 	.word	0x40024000
10001cec:	00fab000 	.word	0x00fab000
10001cf0:	40026000 	.word	0x40026000

10001cf4 <runtime_init>:
10001cf4:	4b2c      	ldr	r3, [pc, #176]	; (10001da8 <runtime_init+0xb4>)
10001cf6:	4a2d      	ldr	r2, [pc, #180]	; (10001dac <runtime_init+0xb8>)
10001cf8:	b570      	push	{r4, r5, r6, lr}
10001cfa:	601a      	str	r2, [r3, #0]
10001cfc:	4a2c      	ldr	r2, [pc, #176]	; (10001db0 <runtime_init+0xbc>)
10001cfe:	4b2d      	ldr	r3, [pc, #180]	; (10001db4 <runtime_init+0xc0>)
10001d00:	492d      	ldr	r1, [pc, #180]	; (10001db8 <runtime_init+0xc4>)
10001d02:	601a      	str	r2, [r3, #0]
10001d04:	0014      	movs	r4, r2
10001d06:	688b      	ldr	r3, [r1, #8]
10001d08:	439c      	bics	r4, r3
10001d0a:	d1fb      	bne.n	10001d04 <runtime_init+0x10>
10001d0c:	4d2b      	ldr	r5, [pc, #172]	; (10001dbc <runtime_init+0xc8>)
10001d0e:	4e2c      	ldr	r6, [pc, #176]	; (10001dc0 <runtime_init+0xcc>)
10001d10:	42b5      	cmp	r5, r6
10001d12:	d208      	bcs.n	10001d26 <runtime_init+0x32>
10001d14:	3e01      	subs	r6, #1
10001d16:	1b76      	subs	r6, r6, r5
10001d18:	08b6      	lsrs	r6, r6, #2
10001d1a:	cd08      	ldmia	r5!, {r3}
10001d1c:	4798      	blx	r3
10001d1e:	0023      	movs	r3, r4
10001d20:	3401      	adds	r4, #1
10001d22:	42b3      	cmp	r3, r6
10001d24:	d1f9      	bne.n	10001d1a <runtime_init+0x26>
10001d26:	f7ff fdc5 	bl	100018b4 <clocks_init>
10001d2a:	4a26      	ldr	r2, [pc, #152]	; (10001dc4 <runtime_init+0xd0>)
10001d2c:	4b21      	ldr	r3, [pc, #132]	; (10001db4 <runtime_init+0xc0>)
10001d2e:	601a      	str	r2, [r3, #0]
10001d30:	4a21      	ldr	r2, [pc, #132]	; (10001db8 <runtime_init+0xc4>)
10001d32:	6893      	ldr	r3, [r2, #8]
10001d34:	43db      	mvns	r3, r3
10001d36:	01db      	lsls	r3, r3, #7
10001d38:	09dd      	lsrs	r5, r3, #7
10001d3a:	2b00      	cmp	r3, #0
10001d3c:	d1f9      	bne.n	10001d32 <runtime_init+0x3e>
10001d3e:	2240      	movs	r2, #64	; 0x40
10001d40:	4b21      	ldr	r3, [pc, #132]	; (10001dc8 <runtime_init+0xd4>)
10001d42:	4c22      	ldr	r4, [pc, #136]	; (10001dcc <runtime_init+0xd8>)
10001d44:	4e22      	ldr	r6, [pc, #136]	; (10001dd0 <runtime_init+0xdc>)
10001d46:	679a      	str	r2, [r3, #120]	; 0x78
10001d48:	675a      	str	r2, [r3, #116]	; 0x74
10001d4a:	671a      	str	r2, [r3, #112]	; 0x70
10001d4c:	66da      	str	r2, [r3, #108]	; 0x6c
10001d4e:	42b4      	cmp	r4, r6
10001d50:	d208      	bcs.n	10001d64 <runtime_init+0x70>
10001d52:	6823      	ldr	r3, [r4, #0]
10001d54:	0020      	movs	r0, r4
10001d56:	2b00      	cmp	r3, #0
10001d58:	d020      	beq.n	10001d9c <runtime_init+0xa8>
10001d5a:	3408      	adds	r4, #8
10001d5c:	f7fe ff74 	bl	10000c48 <recursive_mutex_init>
10001d60:	42b4      	cmp	r4, r6
10001d62:	d3f6      	bcc.n	10001d52 <runtime_init+0x5e>
10001d64:	4e1b      	ldr	r6, [pc, #108]	; (10001dd4 <runtime_init+0xe0>)
10001d66:	4c1c      	ldr	r4, [pc, #112]	; (10001dd8 <runtime_init+0xe4>)
10001d68:	22c0      	movs	r2, #192	; 0xc0
10001d6a:	68a1      	ldr	r1, [r4, #8]
10001d6c:	0030      	movs	r0, r6
10001d6e:	f000 f9d9 	bl	10002124 <__wrap___aeabi_memcpy>
10001d72:	60a6      	str	r6, [r4, #8]
10001d74:	f7fe fc7a 	bl	1000066c <spin_locks_reset>
10001d78:	f7fe ff2a 	bl	10000bd0 <irq_init_priorities>
10001d7c:	f7ff f91c 	bl	10000fb8 <alarm_pool_init_default>
10001d80:	4c16      	ldr	r4, [pc, #88]	; (10001ddc <runtime_init+0xe8>)
10001d82:	4e17      	ldr	r6, [pc, #92]	; (10001de0 <runtime_init+0xec>)
10001d84:	42b4      	cmp	r4, r6
10001d86:	d208      	bcs.n	10001d9a <runtime_init+0xa6>
10001d88:	3e01      	subs	r6, #1
10001d8a:	1b36      	subs	r6, r6, r4
10001d8c:	08b6      	lsrs	r6, r6, #2
10001d8e:	cc08      	ldmia	r4!, {r3}
10001d90:	4798      	blx	r3
10001d92:	002b      	movs	r3, r5
10001d94:	3501      	adds	r5, #1
10001d96:	429e      	cmp	r6, r3
10001d98:	d1f9      	bne.n	10001d8e <runtime_init+0x9a>
10001d9a:	bd70      	pop	{r4, r5, r6, pc}
10001d9c:	3408      	adds	r4, #8
10001d9e:	f7fe ff45 	bl	10000c2c <mutex_init>
10001da2:	42b4      	cmp	r4, r6
10001da4:	d3d5      	bcc.n	10001d52 <runtime_init+0x5e>
10001da6:	e7dd      	b.n	10001d64 <runtime_init+0x70>
10001da8:	4000e000 	.word	0x4000e000
10001dac:	fefbcdbf 	.word	0xfefbcdbf
10001db0:	003c7ffe 	.word	0x003c7ffe
10001db4:	4000f000 	.word	0x4000f000
10001db8:	4000c000 	.word	0x4000c000
10001dbc:	20001738 	.word	0x20001738
10001dc0:	20001748 	.word	0x20001748
10001dc4:	01ffffff 	.word	0x01ffffff
10001dc8:	4001f000 	.word	0x4001f000
10001dcc:	20001730 	.word	0x20001730
10001dd0:	20001738 	.word	0x20001738
10001dd4:	20000000 	.word	0x20000000
10001dd8:	e000ed00 	.word	0xe000ed00
10001ddc:	20001748 	.word	0x20001748
10001de0:	20001750 	.word	0x20001750

10001de4 <_exit>:
10001de4:	be00      	bkpt	0x0000
10001de6:	e7fd      	b.n	10001de4 <_exit>

10001de8 <_sbrk>:
10001de8:	4a09      	ldr	r2, [pc, #36]	; (10001e10 <_sbrk+0x28>)
10001dea:	0003      	movs	r3, r0
10001dec:	6810      	ldr	r0, [r2, #0]
10001dee:	2800      	cmp	r0, #0
10001df0:	d005      	beq.n	10001dfe <_sbrk+0x16>
10001df2:	4908      	ldr	r1, [pc, #32]	; (10001e14 <_sbrk+0x2c>)
10001df4:	18c3      	adds	r3, r0, r3
10001df6:	428b      	cmp	r3, r1
10001df8:	d807      	bhi.n	10001e0a <_sbrk+0x22>
10001dfa:	6013      	str	r3, [r2, #0]
10001dfc:	4770      	bx	lr
10001dfe:	4806      	ldr	r0, [pc, #24]	; (10001e18 <_sbrk+0x30>)
10001e00:	4904      	ldr	r1, [pc, #16]	; (10001e14 <_sbrk+0x2c>)
10001e02:	18c3      	adds	r3, r0, r3
10001e04:	6010      	str	r0, [r2, #0]
10001e06:	428b      	cmp	r3, r1
10001e08:	d9f7      	bls.n	10001dfa <_sbrk+0x12>
10001e0a:	2001      	movs	r0, #1
10001e0c:	4240      	negs	r0, r0
10001e0e:	e7f5      	b.n	10001dfc <_sbrk+0x14>
10001e10:	200020b0 	.word	0x200020b0
10001e14:	20040000 	.word	0x20040000
10001e18:	2000251c 	.word	0x2000251c

10001e1c <exit>:
10001e1c:	b510      	push	{r4, lr}
10001e1e:	f7ff ffe1 	bl	10001de4 <_exit>
10001e22:	46c0      	nop			; (mov r8, r8)

10001e24 <panic>:
10001e24:	b40f      	push	{r0, r1, r2, r3}
10001e26:	b500      	push	{lr}
10001e28:	4808      	ldr	r0, [pc, #32]	; (10001e4c <panic+0x28>)
10001e2a:	b083      	sub	sp, #12
10001e2c:	f000 faac 	bl	10002388 <__wrap_puts>
10001e30:	9b04      	ldr	r3, [sp, #16]
10001e32:	2b00      	cmp	r3, #0
10001e34:	d007      	beq.n	10001e46 <panic+0x22>
10001e36:	a905      	add	r1, sp, #20
10001e38:	0018      	movs	r0, r3
10001e3a:	9101      	str	r1, [sp, #4]
10001e3c:	f000 f818 	bl	10001e70 <weak_raw_vprintf>
10001e40:	4803      	ldr	r0, [pc, #12]	; (10001e50 <panic+0x2c>)
10001e42:	f000 faa1 	bl	10002388 <__wrap_puts>
10001e46:	2001      	movs	r0, #1
10001e48:	f7ff ffcc 	bl	10001de4 <_exit>
10001e4c:	100051f0 	.word	0x100051f0
10001e50:	10005200 	.word	0x10005200

10001e54 <hard_assertion_failure>:
10001e54:	b510      	push	{r4, lr}
10001e56:	4801      	ldr	r0, [pc, #4]	; (10001e5c <hard_assertion_failure+0x8>)
10001e58:	f7ff ffe4 	bl	10001e24 <panic>
10001e5c:	10005204 	.word	0x10005204

10001e60 <_out_char>:
10001e60:	b510      	push	{r4, lr}
10001e62:	2800      	cmp	r0, #0
10001e64:	d100      	bne.n	10001e68 <_out_char+0x8>
10001e66:	bd10      	pop	{r4, pc}
10001e68:	f000 fa42 	bl	100022f0 <__wrap_putchar>
10001e6c:	e7fb      	b.n	10001e66 <_out_char+0x6>
10001e6e:	46c0      	nop			; (mov r8, r8)

10001e70 <weak_raw_vprintf>:
10001e70:	b510      	push	{r4, lr}
10001e72:	4a09      	ldr	r2, [pc, #36]	; (10001e98 <weak_raw_vprintf+0x28>)
10001e74:	0003      	movs	r3, r0
10001e76:	6814      	ldr	r4, [r2, #0]
10001e78:	b084      	sub	sp, #16
10001e7a:	2c00      	cmp	r4, #0
10001e7c:	d008      	beq.n	10001e90 <weak_raw_vprintf+0x20>
10001e7e:	2201      	movs	r2, #1
10001e80:	9100      	str	r1, [sp, #0]
10001e82:	4806      	ldr	r0, [pc, #24]	; (10001e9c <weak_raw_vprintf+0x2c>)
10001e84:	4252      	negs	r2, r2
10001e86:	a903      	add	r1, sp, #12
10001e88:	47a0      	blx	r4
10001e8a:	2001      	movs	r0, #1
10001e8c:	b004      	add	sp, #16
10001e8e:	bd10      	pop	{r4, pc}
10001e90:	f000 fa7a 	bl	10002388 <__wrap_puts>
10001e94:	2000      	movs	r0, #0
10001e96:	e7f9      	b.n	10001e8c <weak_raw_vprintf+0x1c>
10001e98:	200024b4 	.word	0x200024b4
10001e9c:	10001e61 	.word	0x10001e61

10001ea0 <__aeabi_bits_init>:
10001ea0:	4801      	ldr	r0, [pc, #4]	; (10001ea8 <__aeabi_bits_init+0x8>)
10001ea2:	2104      	movs	r1, #4
10001ea4:	4b01      	ldr	r3, [pc, #4]	; (10001eac <__aeabi_bits_init+0xc>)
10001ea6:	4718      	bx	r3
10001ea8:	20000e90 	.word	0x20000e90
10001eac:	10001ed1 	.word	0x10001ed1

10001eb0 <rom_func_lookup>:
10001eb0:	2314      	movs	r3, #20
10001eb2:	b510      	push	{r4, lr}
10001eb4:	0001      	movs	r1, r0
10001eb6:	8818      	ldrh	r0, [r3, #0]
10001eb8:	3304      	adds	r3, #4
10001eba:	881b      	ldrh	r3, [r3, #0]
10001ebc:	4798      	blx	r3
10001ebe:	bd10      	pop	{r4, pc}

10001ec0 <rom_data_lookup>:
10001ec0:	2316      	movs	r3, #22
10001ec2:	b510      	push	{r4, lr}
10001ec4:	0001      	movs	r1, r0
10001ec6:	8818      	ldrh	r0, [r3, #0]
10001ec8:	3302      	adds	r3, #2
10001eca:	881b      	ldrh	r3, [r3, #0]
10001ecc:	4798      	blx	r3
10001ece:	bd10      	pop	{r4, pc}

10001ed0 <rom_funcs_lookup>:
10001ed0:	b5f8      	push	{r3, r4, r5, r6, r7, lr}
10001ed2:	4647      	mov	r7, r8
10001ed4:	46ce      	mov	lr, r9
10001ed6:	b580      	push	{r7, lr}
10001ed8:	1e0f      	subs	r7, r1, #0
10001eda:	d019      	beq.n	10001f10 <rom_funcs_lookup+0x40>
10001edc:	2314      	movs	r3, #20
10001ede:	4699      	mov	r9, r3
10001ee0:	3304      	adds	r3, #4
10001ee2:	0004      	movs	r4, r0
10001ee4:	2500      	movs	r5, #0
10001ee6:	2601      	movs	r6, #1
10001ee8:	4698      	mov	r8, r3
10001eea:	464b      	mov	r3, r9
10001eec:	8818      	ldrh	r0, [r3, #0]
10001eee:	4643      	mov	r3, r8
10001ef0:	6821      	ldr	r1, [r4, #0]
10001ef2:	881b      	ldrh	r3, [r3, #0]
10001ef4:	4798      	blx	r3
10001ef6:	c401      	stmia	r4!, {r0}
10001ef8:	1e43      	subs	r3, r0, #1
10001efa:	4198      	sbcs	r0, r3
10001efc:	3501      	adds	r5, #1
10001efe:	4240      	negs	r0, r0
10001f00:	4006      	ands	r6, r0
10001f02:	42af      	cmp	r7, r5
10001f04:	d1f1      	bne.n	10001eea <rom_funcs_lookup+0x1a>
10001f06:	0030      	movs	r0, r6
10001f08:	bcc0      	pop	{r6, r7}
10001f0a:	46b9      	mov	r9, r7
10001f0c:	46b0      	mov	r8, r6
10001f0e:	bdf8      	pop	{r3, r4, r5, r6, r7, pc}
10001f10:	2601      	movs	r6, #1
10001f12:	e7f8      	b.n	10001f06 <rom_funcs_lookup+0x36>

10001f14 <__wrap___aeabi_uidiv>:
10001f14:	4a11      	ldr	r2, [pc, #68]	; (10001f5c <divmod_u32u32_savestate+0x18>)
10001f16:	6f93      	ldr	r3, [r2, #120]	; 0x78
10001f18:	089b      	lsrs	r3, r3, #2
10001f1a:	d213      	bcs.n	10001f44 <divmod_u32u32_savestate>

10001f1c <divmod_u32u32_unsafe>:
10001f1c:	6610      	str	r0, [r2, #96]	; 0x60
10001f1e:	6651      	str	r1, [r2, #100]	; 0x64
10001f20:	2900      	cmp	r1, #0
10001f22:	d005      	beq.n	10001f30 <divmod_u32u32_unsafe+0x14>
10001f24:	e7ff      	b.n	10001f26 <divmod_u32u32_unsafe+0xa>
10001f26:	e7ff      	b.n	10001f28 <divmod_u32u32_unsafe+0xc>
10001f28:	e7ff      	b.n	10001f2a <divmod_u32u32_unsafe+0xe>
10001f2a:	6f51      	ldr	r1, [r2, #116]	; 0x74
10001f2c:	6f10      	ldr	r0, [r2, #112]	; 0x70
10001f2e:	4770      	bx	lr
10001f30:	b504      	push	{r2, lr}
10001f32:	2800      	cmp	r0, #0
10001f34:	d001      	beq.n	10001f3a <divmod_u32u32_unsafe+0x1e>
10001f36:	2000      	movs	r0, #0
10001f38:	43c0      	mvns	r0, r0
10001f3a:	f003 f8d1 	bl	100050e0 <____aeabi_idiv0_veneer>
10001f3e:	2100      	movs	r1, #0
10001f40:	bd04      	pop	{r2, pc}
10001f42:	46c0      	nop			; (mov r8, r8)

10001f44 <divmod_u32u32_savestate>:
10001f44:	b5f0      	push	{r4, r5, r6, r7, lr}
10001f46:	6e14      	ldr	r4, [r2, #96]	; 0x60
10001f48:	6e55      	ldr	r5, [r2, #100]	; 0x64
10001f4a:	6f57      	ldr	r7, [r2, #116]	; 0x74
10001f4c:	6f16      	ldr	r6, [r2, #112]	; 0x70
10001f4e:	f7ff ffe5 	bl	10001f1c <divmod_u32u32_unsafe>
10001f52:	6614      	str	r4, [r2, #96]	; 0x60
10001f54:	6655      	str	r5, [r2, #100]	; 0x64
10001f56:	6757      	str	r7, [r2, #116]	; 0x74
10001f58:	6716      	str	r6, [r2, #112]	; 0x70
10001f5a:	bdf0      	pop	{r4, r5, r6, r7, pc}
10001f5c:	d0000000 	.word	0xd0000000

10001f60 <__aeabi_double_init>:
10001f60:	2313      	movs	r3, #19
10001f62:	b570      	push	{r4, r5, r6, lr}
10001f64:	781d      	ldrb	r5, [r3, #0]
10001f66:	2d01      	cmp	r5, #1
10001f68:	d015      	beq.n	10001f96 <__aeabi_double_init+0x36>
10001f6a:	dd10      	ble.n	10001f8e <__aeabi_double_init+0x2e>
10001f6c:	481c      	ldr	r0, [pc, #112]	; (10001fe0 <__aeabi_double_init+0x80>)
10001f6e:	f7ff ffa7 	bl	10001ec0 <rom_data_lookup>
10001f72:	4c1c      	ldr	r4, [pc, #112]	; (10001fe4 <__aeabi_double_init+0x84>)
10001f74:	0001      	movs	r1, r0
10001f76:	2280      	movs	r2, #128	; 0x80
10001f78:	0020      	movs	r0, r4
10001f7a:	f000 f8d3 	bl	10002124 <__wrap___aeabi_memcpy>
10001f7e:	2d02      	cmp	r5, #2
10001f80:	d006      	beq.n	10001f90 <__aeabi_double_init+0x30>
10001f82:	4819      	ldr	r0, [pc, #100]	; (10001fe8 <__aeabi_double_init+0x88>)
10001f84:	f7ff ff94 	bl	10001eb0 <rom_func_lookup>
10001f88:	4b18      	ldr	r3, [pc, #96]	; (10001fec <__aeabi_double_init+0x8c>)
10001f8a:	6018      	str	r0, [r3, #0]
10001f8c:	bd70      	pop	{r4, r5, r6, pc}
10001f8e:	4c15      	ldr	r4, [pc, #84]	; (10001fe4 <__aeabi_double_init+0x84>)
10001f90:	4b17      	ldr	r3, [pc, #92]	; (10001ff0 <__aeabi_double_init+0x90>)
10001f92:	64a3      	str	r3, [r4, #72]	; 0x48
10001f94:	e7f5      	b.n	10001f82 <__aeabi_double_init+0x22>
10001f96:	4b16      	ldr	r3, [pc, #88]	; (10001ff0 <__aeabi_double_init+0x90>)
10001f98:	4c12      	ldr	r4, [pc, #72]	; (10001fe4 <__aeabi_double_init+0x84>)
10001f9a:	6023      	str	r3, [r4, #0]
10001f9c:	6063      	str	r3, [r4, #4]
10001f9e:	60a3      	str	r3, [r4, #8]
10001fa0:	60e3      	str	r3, [r4, #12]
10001fa2:	6123      	str	r3, [r4, #16]
10001fa4:	6163      	str	r3, [r4, #20]
10001fa6:	61a3      	str	r3, [r4, #24]
10001fa8:	61e3      	str	r3, [r4, #28]
10001faa:	6223      	str	r3, [r4, #32]
10001fac:	6263      	str	r3, [r4, #36]	; 0x24
10001fae:	62a3      	str	r3, [r4, #40]	; 0x28
10001fb0:	62e3      	str	r3, [r4, #44]	; 0x2c
10001fb2:	6323      	str	r3, [r4, #48]	; 0x30
10001fb4:	6363      	str	r3, [r4, #52]	; 0x34
10001fb6:	63a3      	str	r3, [r4, #56]	; 0x38
10001fb8:	63e3      	str	r3, [r4, #60]	; 0x3c
10001fba:	6423      	str	r3, [r4, #64]	; 0x40
10001fbc:	6463      	str	r3, [r4, #68]	; 0x44
10001fbe:	64a3      	str	r3, [r4, #72]	; 0x48
10001fc0:	64e3      	str	r3, [r4, #76]	; 0x4c
10001fc2:	6523      	str	r3, [r4, #80]	; 0x50
10001fc4:	6563      	str	r3, [r4, #84]	; 0x54
10001fc6:	65a3      	str	r3, [r4, #88]	; 0x58
10001fc8:	65e3      	str	r3, [r4, #92]	; 0x5c
10001fca:	6623      	str	r3, [r4, #96]	; 0x60
10001fcc:	6663      	str	r3, [r4, #100]	; 0x64
10001fce:	66a3      	str	r3, [r4, #104]	; 0x68
10001fd0:	66e3      	str	r3, [r4, #108]	; 0x6c
10001fd2:	6723      	str	r3, [r4, #112]	; 0x70
10001fd4:	6763      	str	r3, [r4, #116]	; 0x74
10001fd6:	67a3      	str	r3, [r4, #120]	; 0x78
10001fd8:	67e3      	str	r3, [r4, #124]	; 0x7c
10001fda:	64a3      	str	r3, [r4, #72]	; 0x48
10001fdc:	e7d1      	b.n	10001f82 <__aeabi_double_init+0x22>
10001fde:	46c0      	nop			; (mov r8, r8)
10001fe0:	00004453 	.word	0x00004453
10001fe4:	20001858 	.word	0x20001858
10001fe8:	0000334c 	.word	0x0000334c
10001fec:	200024e0 	.word	0x200024e0
10001ff0:	10001ff5 	.word	0x10001ff5

10001ff4 <double_table_shim_on_use_helper>:
10001ff4:	b507      	push	{r0, r1, r2, lr}
10001ff6:	4660      	mov	r0, ip
10001ff8:	8801      	ldrh	r1, [r0, #0]
10001ffa:	0a0a      	lsrs	r2, r1, #8
10001ffc:	3002      	adds	r0, #2
10001ffe:	2adf      	cmp	r2, #223	; 0xdf
10002000:	d1fa      	bne.n	10001ff8 <double_table_shim_on_use_helper+0x4>
10002002:	b2c9      	uxtb	r1, r1
10002004:	0882      	lsrs	r2, r0, #2
10002006:	d304      	bcc.n	10002012 <double_table_shim_on_use_helper+0x1e>
10002008:	8802      	ldrh	r2, [r0, #0]
1000200a:	8840      	ldrh	r0, [r0, #2]
1000200c:	0400      	lsls	r0, r0, #16
1000200e:	4310      	orrs	r0, r2
10002010:	e000      	b.n	10002014 <double_table_shim_on_use_helper+0x20>
10002012:	6800      	ldr	r0, [r0, #0]
10002014:	4a01      	ldr	r2, [pc, #4]	; (1000201c <double_table_shim_on_use_helper+0x28>)
10002016:	5050      	str	r0, [r2, r1]
10002018:	9003      	str	r0, [sp, #12]
1000201a:	bd07      	pop	{r0, r1, r2, pc}
1000201c:	20001858 	.word	0x20001858

10002020 <__wrap___aeabi_lmul>:
10002020:	4351      	muls	r1, r2
10002022:	4343      	muls	r3, r0
10002024:	18c9      	adds	r1, r1, r3
10002026:	468c      	mov	ip, r1
10002028:	0c11      	lsrs	r1, r2, #16
1000202a:	b283      	uxth	r3, r0
1000202c:	434b      	muls	r3, r1
1000202e:	b410      	push	{r4}
10002030:	0c04      	lsrs	r4, r0, #16
10002032:	4361      	muls	r1, r4
10002034:	b292      	uxth	r2, r2
10002036:	b280      	uxth	r0, r0
10002038:	4350      	muls	r0, r2
1000203a:	4362      	muls	r2, r4
1000203c:	041c      	lsls	r4, r3, #16
1000203e:	0c1b      	lsrs	r3, r3, #16
10002040:	1900      	adds	r0, r0, r4
10002042:	bc10      	pop	{r4}
10002044:	4159      	adcs	r1, r3
10002046:	0413      	lsls	r3, r2, #16
10002048:	0c12      	lsrs	r2, r2, #16
1000204a:	18c0      	adds	r0, r0, r3
1000204c:	4151      	adcs	r1, r2
1000204e:	4461      	add	r1, ip
10002050:	4770      	bx	lr
	...

10002054 <__aeabi_float_init>:
10002054:	2313      	movs	r3, #19
10002056:	b510      	push	{r4, lr}
10002058:	4812      	ldr	r0, [pc, #72]	; (100020a4 <__aeabi_float_init+0x50>)
1000205a:	781c      	ldrb	r4, [r3, #0]
1000205c:	f7ff ff30 	bl	10001ec0 <rom_data_lookup>
10002060:	0001      	movs	r1, r0
10002062:	2c01      	cmp	r4, #1
10002064:	d00a      	beq.n	1000207c <__aeabi_float_init+0x28>
10002066:	dd03      	ble.n	10002070 <__aeabi_float_init+0x1c>
10002068:	2280      	movs	r2, #128	; 0x80
1000206a:	480f      	ldr	r0, [pc, #60]	; (100020a8 <__aeabi_float_init+0x54>)
1000206c:	f000 f85a 	bl	10002124 <__wrap___aeabi_memcpy>
10002070:	480e      	ldr	r0, [pc, #56]	; (100020ac <__aeabi_float_init+0x58>)
10002072:	f7ff ff1d 	bl	10001eb0 <rom_func_lookup>
10002076:	4b0e      	ldr	r3, [pc, #56]	; (100020b0 <__aeabi_float_init+0x5c>)
10002078:	6018      	str	r0, [r3, #0]
1000207a:	bd10      	pop	{r4, pc}
1000207c:	4c0a      	ldr	r4, [pc, #40]	; (100020a8 <__aeabi_float_init+0x54>)
1000207e:	2254      	movs	r2, #84	; 0x54
10002080:	0020      	movs	r0, r4
10002082:	f000 f84f 	bl	10002124 <__wrap___aeabi_memcpy>
10002086:	4b0b      	ldr	r3, [pc, #44]	; (100020b4 <__aeabi_float_init+0x60>)
10002088:	6563      	str	r3, [r4, #84]	; 0x54
1000208a:	65a3      	str	r3, [r4, #88]	; 0x58
1000208c:	65e3      	str	r3, [r4, #92]	; 0x5c
1000208e:	6623      	str	r3, [r4, #96]	; 0x60
10002090:	6663      	str	r3, [r4, #100]	; 0x64
10002092:	66a3      	str	r3, [r4, #104]	; 0x68
10002094:	66e3      	str	r3, [r4, #108]	; 0x6c
10002096:	6723      	str	r3, [r4, #112]	; 0x70
10002098:	6763      	str	r3, [r4, #116]	; 0x74
1000209a:	67a3      	str	r3, [r4, #120]	; 0x78
1000209c:	67e3      	str	r3, [r4, #124]	; 0x7c
1000209e:	6223      	str	r3, [r4, #32]
100020a0:	61e3      	str	r3, [r4, #28]
100020a2:	e7e5      	b.n	10002070 <__aeabi_float_init+0x1c>
100020a4:	00004653 	.word	0x00004653
100020a8:	20001958 	.word	0x20001958
100020ac:	0000334c 	.word	0x0000334c
100020b0:	200024e0 	.word	0x200024e0
100020b4:	100020b9 	.word	0x100020b9

100020b8 <float_table_shim_on_use_helper>:
100020b8:	b507      	push	{r0, r1, r2, lr}
100020ba:	4660      	mov	r0, ip
100020bc:	8801      	ldrh	r1, [r0, #0]
100020be:	0a0a      	lsrs	r2, r1, #8
100020c0:	3002      	adds	r0, #2
100020c2:	2adf      	cmp	r2, #223	; 0xdf
100020c4:	d1fa      	bne.n	100020bc <float_table_shim_on_use_helper+0x4>
100020c6:	b2c9      	uxtb	r1, r1
100020c8:	0882      	lsrs	r2, r0, #2
100020ca:	d304      	bcc.n	100020d6 <float_table_shim_on_use_helper+0x1e>
100020cc:	8802      	ldrh	r2, [r0, #0]
100020ce:	8840      	ldrh	r0, [r0, #2]
100020d0:	0400      	lsls	r0, r0, #16
100020d2:	4310      	orrs	r0, r2
100020d4:	e000      	b.n	100020d8 <float_table_shim_on_use_helper+0x20>
100020d6:	6800      	ldr	r0, [r0, #0]
100020d8:	4a01      	ldr	r2, [pc, #4]	; (100020e0 <float_table_shim_on_use_helper+0x28>)
100020da:	5050      	str	r0, [r2, r1]
100020dc:	9003      	str	r0, [sp, #12]
100020de:	bd07      	pop	{r0, r1, r2, pc}
100020e0:	20001958 	.word	0x20001958

100020e4 <__wrap_malloc>:
100020e4:	b510      	push	{r4, lr}
100020e6:	0004      	movs	r4, r0
100020e8:	f002 fb94 	bl	10004814 <malloc>
100020ec:	2800      	cmp	r0, #0
100020ee:	d004      	beq.n	100020fa <__wrap_malloc+0x16>
100020f0:	4b03      	ldr	r3, [pc, #12]	; (10002100 <__wrap_malloc+0x1c>)
100020f2:	1904      	adds	r4, r0, r4
100020f4:	429c      	cmp	r4, r3
100020f6:	d800      	bhi.n	100020fa <__wrap_malloc+0x16>
100020f8:	bd10      	pop	{r4, pc}
100020fa:	4802      	ldr	r0, [pc, #8]	; (10002104 <__wrap_malloc+0x20>)
100020fc:	f7ff fe92 	bl	10001e24 <panic>
10002100:	20040000 	.word	0x20040000
10002104:	10005210 	.word	0x10005210

10002108 <__aeabi_mem_init>:
10002108:	4801      	ldr	r0, [pc, #4]	; (10002110 <__aeabi_mem_init+0x8>)
1000210a:	2104      	movs	r1, #4
1000210c:	4b01      	ldr	r3, [pc, #4]	; (10002114 <__aeabi_mem_init+0xc>)
1000210e:	4718      	bx	r3
10002110:	20000ea0 	.word	0x20000ea0
10002114:	10001ed1 	.word	0x10001ed1

10002118 <__wrap_memset>:
10002118:	4b01      	ldr	r3, [pc, #4]	; (10002120 <__wrap_memset+0x8>)
1000211a:	681b      	ldr	r3, [r3, #0]
1000211c:	4718      	bx	r3
1000211e:	0000      	.short	0x0000
10002120:	20000ea0 	.word	0x20000ea0

10002124 <__wrap___aeabi_memcpy>:
10002124:	4b01      	ldr	r3, [pc, #4]	; (1000212c <__wrap___aeabi_memcpy+0x8>)
10002126:	685b      	ldr	r3, [r3, #4]
10002128:	4718      	bx	r3
1000212a:	0000      	.short	0x0000
1000212c:	20000ea0 	.word	0x20000ea0

10002130 <stdio_out_chars_no_crlf>:
10002130:	0003      	movs	r3, r0
10002132:	b510      	push	{r4, lr}
10002134:	0008      	movs	r0, r1
10002136:	0011      	movs	r1, r2
10002138:	681b      	ldr	r3, [r3, #0]
1000213a:	4798      	blx	r3
1000213c:	bd10      	pop	{r4, pc}
1000213e:	46c0      	nop			; (mov r8, r8)

10002140 <stdio_out_chars_crlf>:
10002140:	b5f0      	push	{r4, r5, r6, r7, lr}
10002142:	4646      	mov	r6, r8
10002144:	464f      	mov	r7, r9
10002146:	46d6      	mov	lr, sl
10002148:	b5c0      	push	{r6, r7, lr}
1000214a:	7d43      	ldrb	r3, [r0, #21]
1000214c:	4680      	mov	r8, r0
1000214e:	000e      	movs	r6, r1
10002150:	0017      	movs	r7, r2
10002152:	2b00      	cmp	r3, #0
10002154:	d046      	beq.n	100021e4 <stdio_out_chars_crlf+0xa4>
10002156:	2a00      	cmp	r2, #0
10002158:	dd3f      	ble.n	100021da <stdio_out_chars_crlf+0x9a>
1000215a:	1e4b      	subs	r3, r1, #1
1000215c:	4699      	mov	r9, r3
1000215e:	4b24      	ldr	r3, [pc, #144]	; (100021f0 <stdio_out_chars_crlf+0xb0>)
10002160:	2501      	movs	r5, #1
10002162:	2400      	movs	r4, #0
10002164:	2000      	movs	r0, #0
10002166:	469a      	mov	sl, r3
10002168:	e00d      	b.n	10002186 <stdio_out_chars_crlf+0x46>
1000216a:	464b      	mov	r3, r9
1000216c:	5d1b      	ldrb	r3, [r3, r4]
1000216e:	3b0d      	subs	r3, #13
10002170:	425a      	negs	r2, r3
10002172:	4153      	adcs	r3, r2
10002174:	5d32      	ldrb	r2, [r6, r4]
10002176:	b2db      	uxtb	r3, r3
10002178:	2a0a      	cmp	r2, #10
1000217a:	d00b      	beq.n	10002194 <stdio_out_chars_crlf+0x54>
1000217c:	002b      	movs	r3, r5
1000217e:	3401      	adds	r4, #1
10002180:	3501      	adds	r5, #1
10002182:	429f      	cmp	r7, r3
10002184:	dd1a      	ble.n	100021bc <stdio_out_chars_crlf+0x7c>
10002186:	2c00      	cmp	r4, #0
10002188:	d1ef      	bne.n	1000216a <stdio_out_chars_crlf+0x2a>
1000218a:	4643      	mov	r3, r8
1000218c:	5d32      	ldrb	r2, [r6, r4]
1000218e:	7d1b      	ldrb	r3, [r3, #20]
10002190:	2a0a      	cmp	r2, #10
10002192:	d1f3      	bne.n	1000217c <stdio_out_chars_crlf+0x3c>
10002194:	2b00      	cmp	r3, #0
10002196:	d1f1      	bne.n	1000217c <stdio_out_chars_crlf+0x3c>
10002198:	42a0      	cmp	r0, r4
1000219a:	da04      	bge.n	100021a6 <stdio_out_chars_crlf+0x66>
1000219c:	4643      	mov	r3, r8
1000219e:	1a21      	subs	r1, r4, r0
100021a0:	681b      	ldr	r3, [r3, #0]
100021a2:	1830      	adds	r0, r6, r0
100021a4:	4798      	blx	r3
100021a6:	4643      	mov	r3, r8
100021a8:	4650      	mov	r0, sl
100021aa:	681b      	ldr	r3, [r3, #0]
100021ac:	2102      	movs	r1, #2
100021ae:	4798      	blx	r3
100021b0:	3401      	adds	r4, #1
100021b2:	0028      	movs	r0, r5
100021b4:	002b      	movs	r3, r5
100021b6:	3501      	adds	r5, #1
100021b8:	429f      	cmp	r7, r3
100021ba:	dce4      	bgt.n	10002186 <stdio_out_chars_crlf+0x46>
100021bc:	4287      	cmp	r7, r0
100021be:	dd04      	ble.n	100021ca <stdio_out_chars_crlf+0x8a>
100021c0:	4643      	mov	r3, r8
100021c2:	1a39      	subs	r1, r7, r0
100021c4:	681b      	ldr	r3, [r3, #0]
100021c6:	1830      	adds	r0, r6, r0
100021c8:	4798      	blx	r3
100021ca:	19f6      	adds	r6, r6, r7
100021cc:	3e01      	subs	r6, #1
100021ce:	7833      	ldrb	r3, [r6, #0]
100021d0:	3b0d      	subs	r3, #13
100021d2:	425a      	negs	r2, r3
100021d4:	4153      	adcs	r3, r2
100021d6:	4642      	mov	r2, r8
100021d8:	7513      	strb	r3, [r2, #20]
100021da:	bce0      	pop	{r5, r6, r7}
100021dc:	46ba      	mov	sl, r7
100021de:	46b1      	mov	r9, r6
100021e0:	46a8      	mov	r8, r5
100021e2:	bdf0      	pop	{r4, r5, r6, r7, pc}
100021e4:	6803      	ldr	r3, [r0, #0]
100021e6:	0011      	movs	r1, r2
100021e8:	0030      	movs	r0, r6
100021ea:	4798      	blx	r3
100021ec:	e7f5      	b.n	100021da <stdio_out_chars_crlf+0x9a>
100021ee:	46c0      	nop			; (mov r8, r8)
100021f0:	10005284 	.word	0x10005284

100021f4 <stdio_put_string.isra.0>:
100021f4:	b5f0      	push	{r4, r5, r6, r7, lr}
100021f6:	46de      	mov	lr, fp
100021f8:	4657      	mov	r7, sl
100021fa:	464e      	mov	r6, r9
100021fc:	4645      	mov	r5, r8
100021fe:	b5e0      	push	{r5, r6, r7, lr}
10002200:	b085      	sub	sp, #20
10002202:	0017      	movs	r7, r2
10002204:	001c      	movs	r4, r3
10002206:	0006      	movs	r6, r0
10002208:	000d      	movs	r5, r1
1000220a:	f7ff f8a1 	bl	10001350 <time_us_64>
1000220e:	2300      	movs	r3, #0
10002210:	4a30      	ldr	r2, [pc, #192]	; (100022d4 <stdio_put_string.isra.0+0xe0>)
10002212:	1812      	adds	r2, r2, r0
10002214:	414b      	adcs	r3, r1
10002216:	2b00      	cmp	r3, #0
10002218:	db58      	blt.n	100022cc <stdio_put_string.isra.0+0xd8>
1000221a:	492f      	ldr	r1, [pc, #188]	; (100022d8 <stdio_put_string.isra.0+0xe4>)
1000221c:	0008      	movs	r0, r1
1000221e:	468a      	mov	sl, r1
10002220:	f002 ff7e 	bl	10005120 <__mutex_try_enter_block_until_veneer>
10002224:	9001      	str	r0, [sp, #4]
10002226:	1c6b      	adds	r3, r5, #1
10002228:	d103      	bne.n	10002232 <stdio_put_string.isra.0+0x3e>
1000222a:	0030      	movs	r0, r6
1000222c:	f002 fdd6 	bl	10004ddc <strlen>
10002230:	0005      	movs	r5, r0
10002232:	2c00      	cmp	r4, #0
10002234:	d125      	bne.n	10002282 <stdio_put_string.isra.0+0x8e>
10002236:	4b29      	ldr	r3, [pc, #164]	; (100022dc <stdio_put_string.isra.0+0xe8>)
10002238:	4698      	mov	r8, r3
1000223a:	4b29      	ldr	r3, [pc, #164]	; (100022e0 <stdio_put_string.isra.0+0xec>)
1000223c:	681c      	ldr	r4, [r3, #0]
1000223e:	2c00      	cmp	r4, #0
10002240:	d015      	beq.n	1000226e <stdio_put_string.isra.0+0x7a>
10002242:	2f00      	cmp	r7, #0
10002244:	d120      	bne.n	10002288 <stdio_put_string.isra.0+0x94>
10002246:	4f27      	ldr	r7, [pc, #156]	; (100022e4 <stdio_put_string.isra.0+0xf0>)
10002248:	e002      	b.n	10002250 <stdio_put_string.isra.0+0x5c>
1000224a:	6924      	ldr	r4, [r4, #16]
1000224c:	2c00      	cmp	r4, #0
1000224e:	d00e      	beq.n	1000226e <stdio_put_string.isra.0+0x7a>
10002250:	6823      	ldr	r3, [r4, #0]
10002252:	2b00      	cmp	r3, #0
10002254:	d0f9      	beq.n	1000224a <stdio_put_string.isra.0+0x56>
10002256:	683b      	ldr	r3, [r7, #0]
10002258:	2b00      	cmp	r3, #0
1000225a:	d001      	beq.n	10002260 <stdio_put_string.isra.0+0x6c>
1000225c:	42a3      	cmp	r3, r4
1000225e:	d1f4      	bne.n	1000224a <stdio_put_string.isra.0+0x56>
10002260:	0020      	movs	r0, r4
10002262:	002a      	movs	r2, r5
10002264:	0031      	movs	r1, r6
10002266:	47c0      	blx	r8
10002268:	6924      	ldr	r4, [r4, #16]
1000226a:	2c00      	cmp	r4, #0
1000226c:	d1f0      	bne.n	10002250 <stdio_put_string.isra.0+0x5c>
1000226e:	9b01      	ldr	r3, [sp, #4]
10002270:	2b00      	cmp	r3, #0
10002272:	d127      	bne.n	100022c4 <stdio_put_string.isra.0+0xd0>
10002274:	b005      	add	sp, #20
10002276:	bcf0      	pop	{r4, r5, r6, r7}
10002278:	46bb      	mov	fp, r7
1000227a:	46b2      	mov	sl, r6
1000227c:	46a9      	mov	r9, r5
1000227e:	46a0      	mov	r8, r4
10002280:	bdf0      	pop	{r4, r5, r6, r7, pc}
10002282:	4b19      	ldr	r3, [pc, #100]	; (100022e8 <stdio_put_string.isra.0+0xf4>)
10002284:	4698      	mov	r8, r3
10002286:	e7d8      	b.n	1000223a <stdio_put_string.isra.0+0x46>
10002288:	4b16      	ldr	r3, [pc, #88]	; (100022e4 <stdio_put_string.isra.0+0xf0>)
1000228a:	4699      	mov	r9, r3
1000228c:	ab02      	add	r3, sp, #8
1000228e:	1ddf      	adds	r7, r3, #7
10002290:	230a      	movs	r3, #10
10002292:	469b      	mov	fp, r3
10002294:	e002      	b.n	1000229c <stdio_put_string.isra.0+0xa8>
10002296:	6924      	ldr	r4, [r4, #16]
10002298:	2c00      	cmp	r4, #0
1000229a:	d0e8      	beq.n	1000226e <stdio_put_string.isra.0+0x7a>
1000229c:	6823      	ldr	r3, [r4, #0]
1000229e:	2b00      	cmp	r3, #0
100022a0:	d0f9      	beq.n	10002296 <stdio_put_string.isra.0+0xa2>
100022a2:	464b      	mov	r3, r9
100022a4:	681b      	ldr	r3, [r3, #0]
100022a6:	2b00      	cmp	r3, #0
100022a8:	d001      	beq.n	100022ae <stdio_put_string.isra.0+0xba>
100022aa:	42a3      	cmp	r3, r4
100022ac:	d1f3      	bne.n	10002296 <stdio_put_string.isra.0+0xa2>
100022ae:	002a      	movs	r2, r5
100022b0:	0031      	movs	r1, r6
100022b2:	0020      	movs	r0, r4
100022b4:	47c0      	blx	r8
100022b6:	465b      	mov	r3, fp
100022b8:	2201      	movs	r2, #1
100022ba:	0039      	movs	r1, r7
100022bc:	0020      	movs	r0, r4
100022be:	703b      	strb	r3, [r7, #0]
100022c0:	47c0      	blx	r8
100022c2:	e7e8      	b.n	10002296 <stdio_put_string.isra.0+0xa2>
100022c4:	4650      	mov	r0, sl
100022c6:	f002 fef3 	bl	100050b0 <__mutex_exit_veneer>
100022ca:	e7d3      	b.n	10002274 <stdio_put_string.isra.0+0x80>
100022cc:	2201      	movs	r2, #1
100022ce:	4b07      	ldr	r3, [pc, #28]	; (100022ec <stdio_put_string.isra.0+0xf8>)
100022d0:	4252      	negs	r2, r2
100022d2:	e7a2      	b.n	1000221a <stdio_put_string.isra.0+0x26>
100022d4:	000f4240 	.word	0x000f4240
100022d8:	20001730 	.word	0x20001730
100022dc:	10002141 	.word	0x10002141
100022e0:	200020a4 	.word	0x200020a4
100022e4:	200020ac 	.word	0x200020ac
100022e8:	10002131 	.word	0x10002131
100022ec:	7fffffff 	.word	0x7fffffff

100022f0 <__wrap_putchar>:
100022f0:	b5f0      	push	{r4, r5, r6, r7, lr}
100022f2:	46ce      	mov	lr, r9
100022f4:	4647      	mov	r7, r8
100022f6:	b580      	push	{r7, lr}
100022f8:	b083      	sub	sp, #12
100022fa:	466b      	mov	r3, sp
100022fc:	0006      	movs	r6, r0
100022fe:	1ddd      	adds	r5, r3, #7
10002300:	7028      	strb	r0, [r5, #0]
10002302:	f7ff f825 	bl	10001350 <time_us_64>
10002306:	2300      	movs	r3, #0
10002308:	4a1a      	ldr	r2, [pc, #104]	; (10002374 <__wrap_putchar+0x84>)
1000230a:	1812      	adds	r2, r2, r0
1000230c:	414b      	adcs	r3, r1
1000230e:	2b00      	cmp	r3, #0
10002310:	db2b      	blt.n	1000236a <__wrap_putchar+0x7a>
10002312:	4919      	ldr	r1, [pc, #100]	; (10002378 <__wrap_putchar+0x88>)
10002314:	0008      	movs	r0, r1
10002316:	4688      	mov	r8, r1
10002318:	f002 ff02 	bl	10005120 <__mutex_try_enter_block_until_veneer>
1000231c:	4b17      	ldr	r3, [pc, #92]	; (1000237c <__wrap_putchar+0x8c>)
1000231e:	4681      	mov	r9, r0
10002320:	681c      	ldr	r4, [r3, #0]
10002322:	2c00      	cmp	r4, #0
10002324:	d014      	beq.n	10002350 <__wrap_putchar+0x60>
10002326:	4f16      	ldr	r7, [pc, #88]	; (10002380 <__wrap_putchar+0x90>)
10002328:	e002      	b.n	10002330 <__wrap_putchar+0x40>
1000232a:	6924      	ldr	r4, [r4, #16]
1000232c:	2c00      	cmp	r4, #0
1000232e:	d00f      	beq.n	10002350 <__wrap_putchar+0x60>
10002330:	6823      	ldr	r3, [r4, #0]
10002332:	2b00      	cmp	r3, #0
10002334:	d0f9      	beq.n	1000232a <__wrap_putchar+0x3a>
10002336:	683b      	ldr	r3, [r7, #0]
10002338:	2b00      	cmp	r3, #0
1000233a:	d001      	beq.n	10002340 <__wrap_putchar+0x50>
1000233c:	42a3      	cmp	r3, r4
1000233e:	d1f4      	bne.n	1000232a <__wrap_putchar+0x3a>
10002340:	0020      	movs	r0, r4
10002342:	2201      	movs	r2, #1
10002344:	0029      	movs	r1, r5
10002346:	f7ff fefb 	bl	10002140 <stdio_out_chars_crlf>
1000234a:	6924      	ldr	r4, [r4, #16]
1000234c:	2c00      	cmp	r4, #0
1000234e:	d1ef      	bne.n	10002330 <__wrap_putchar+0x40>
10002350:	464b      	mov	r3, r9
10002352:	2b00      	cmp	r3, #0
10002354:	d105      	bne.n	10002362 <__wrap_putchar+0x72>
10002356:	0030      	movs	r0, r6
10002358:	b003      	add	sp, #12
1000235a:	bcc0      	pop	{r6, r7}
1000235c:	46b9      	mov	r9, r7
1000235e:	46b0      	mov	r8, r6
10002360:	bdf0      	pop	{r4, r5, r6, r7, pc}
10002362:	4640      	mov	r0, r8
10002364:	f002 fea4 	bl	100050b0 <__mutex_exit_veneer>
10002368:	e7f5      	b.n	10002356 <__wrap_putchar+0x66>
1000236a:	2201      	movs	r2, #1
1000236c:	4b05      	ldr	r3, [pc, #20]	; (10002384 <__wrap_putchar+0x94>)
1000236e:	4252      	negs	r2, r2
10002370:	e7cf      	b.n	10002312 <__wrap_putchar+0x22>
10002372:	46c0      	nop			; (mov r8, r8)
10002374:	000f4240 	.word	0x000f4240
10002378:	20001730 	.word	0x20001730
1000237c:	200020a4 	.word	0x200020a4
10002380:	200020ac 	.word	0x200020ac
10002384:	7fffffff 	.word	0x7fffffff

10002388 <__wrap_puts>:
10002388:	b570      	push	{r4, r5, r6, lr}
1000238a:	0004      	movs	r4, r0
1000238c:	f002 fd26 	bl	10004ddc <strlen>
10002390:	2300      	movs	r3, #0
10002392:	0001      	movs	r1, r0
10002394:	0005      	movs	r5, r0
10002396:	2201      	movs	r2, #1
10002398:	0020      	movs	r0, r4
1000239a:	f7ff ff2b 	bl	100021f4 <stdio_put_string.isra.0>
1000239e:	4b08      	ldr	r3, [pc, #32]	; (100023c0 <__wrap_puts+0x38>)
100023a0:	681c      	ldr	r4, [r3, #0]
100023a2:	2c00      	cmp	r4, #0
100023a4:	d006      	beq.n	100023b4 <__wrap_puts+0x2c>
100023a6:	6863      	ldr	r3, [r4, #4]
100023a8:	2b00      	cmp	r3, #0
100023aa:	d005      	beq.n	100023b8 <__wrap_puts+0x30>
100023ac:	4798      	blx	r3
100023ae:	6924      	ldr	r4, [r4, #16]
100023b0:	2c00      	cmp	r4, #0
100023b2:	d1f8      	bne.n	100023a6 <__wrap_puts+0x1e>
100023b4:	0028      	movs	r0, r5
100023b6:	bd70      	pop	{r4, r5, r6, pc}
100023b8:	6924      	ldr	r4, [r4, #16]
100023ba:	2c00      	cmp	r4, #0
100023bc:	d1f3      	bne.n	100023a6 <__wrap_puts+0x1e>
100023be:	e7f9      	b.n	100023b4 <__wrap_puts+0x2c>
100023c0:	200020a4 	.word	0x200020a4

100023c4 <stdio_set_driver_enabled>:
100023c4:	4a0a      	ldr	r2, [pc, #40]	; (100023f0 <stdio_set_driver_enabled+0x2c>)
100023c6:	6813      	ldr	r3, [r2, #0]
100023c8:	2b00      	cmp	r3, #0
100023ca:	d105      	bne.n	100023d8 <stdio_set_driver_enabled+0x14>
100023cc:	e00c      	b.n	100023e8 <stdio_set_driver_enabled+0x24>
100023ce:	001a      	movs	r2, r3
100023d0:	691b      	ldr	r3, [r3, #16]
100023d2:	3210      	adds	r2, #16
100023d4:	2b00      	cmp	r3, #0
100023d6:	d007      	beq.n	100023e8 <stdio_set_driver_enabled+0x24>
100023d8:	4298      	cmp	r0, r3
100023da:	d1f8      	bne.n	100023ce <stdio_set_driver_enabled+0xa>
100023dc:	2900      	cmp	r1, #0
100023de:	d102      	bne.n	100023e6 <stdio_set_driver_enabled+0x22>
100023e0:	6903      	ldr	r3, [r0, #16]
100023e2:	6013      	str	r3, [r2, #0]
100023e4:	6101      	str	r1, [r0, #16]
100023e6:	4770      	bx	lr
100023e8:	2900      	cmp	r1, #0
100023ea:	d0fc      	beq.n	100023e6 <stdio_set_driver_enabled+0x22>
100023ec:	6010      	str	r0, [r2, #0]
100023ee:	e7fa      	b.n	100023e6 <stdio_set_driver_enabled+0x22>
100023f0:	200020a4 	.word	0x200020a4

100023f4 <stdio_init_all>:
100023f4:	b510      	push	{r4, lr}
100023f6:	f000 f9d9 	bl	100027ac <stdio_usb_init>
100023fa:	bd10      	pop	{r4, pc}

100023fc <resetd_init>:
100023fc:	4770      	bx	lr
100023fe:	46c0      	nop			; (mov r8, r8)

10002400 <resetd_reset>:
10002400:	2200      	movs	r2, #0
10002402:	4b01      	ldr	r3, [pc, #4]	; (10002408 <resetd_reset+0x8>)
10002404:	701a      	strb	r2, [r3, #0]
10002406:	4770      	bx	lr
10002408:	20002516 	.word	0x20002516

1000240c <resetd_open>:
1000240c:	794b      	ldrb	r3, [r1, #5]
1000240e:	2000      	movs	r0, #0
10002410:	2bff      	cmp	r3, #255	; 0xff
10002412:	d10b      	bne.n	1000242c <resetd_open+0x20>
10002414:	798b      	ldrb	r3, [r1, #6]
10002416:	2b00      	cmp	r3, #0
10002418:	d108      	bne.n	1000242c <resetd_open+0x20>
1000241a:	79cb      	ldrb	r3, [r1, #7]
1000241c:	2b01      	cmp	r3, #1
1000241e:	d105      	bne.n	1000242c <resetd_open+0x20>
10002420:	2a08      	cmp	r2, #8
10002422:	d903      	bls.n	1000242c <resetd_open+0x20>
10002424:	788a      	ldrb	r2, [r1, #2]
10002426:	4b02      	ldr	r3, [pc, #8]	; (10002430 <resetd_open+0x24>)
10002428:	3009      	adds	r0, #9
1000242a:	701a      	strb	r2, [r3, #0]
1000242c:	4770      	bx	lr
1000242e:	46c0      	nop			; (mov r8, r8)
10002430:	20002516 	.word	0x20002516

10002434 <resetd_xfer_cb>:
10002434:	2001      	movs	r0, #1
10002436:	4770      	bx	lr

10002438 <resetd_control_xfer_cb>:
10002438:	b570      	push	{r4, r5, r6, lr}
1000243a:	2901      	cmp	r1, #1
1000243c:	d109      	bne.n	10002452 <resetd_control_xfer_cb+0x1a>
1000243e:	4915      	ldr	r1, [pc, #84]	; (10002494 <resetd_control_xfer_cb+0x5c>)
10002440:	7953      	ldrb	r3, [r2, #5]
10002442:	7910      	ldrb	r0, [r2, #4]
10002444:	7809      	ldrb	r1, [r1, #0]
10002446:	021b      	lsls	r3, r3, #8
10002448:	4303      	orrs	r3, r0
1000244a:	2000      	movs	r0, #0
1000244c:	4299      	cmp	r1, r3
1000244e:	d002      	beq.n	10002456 <resetd_control_xfer_cb+0x1e>
10002450:	bd70      	pop	{r4, r5, r6, pc}
10002452:	2001      	movs	r0, #1
10002454:	e7fc      	b.n	10002450 <resetd_control_xfer_cb+0x18>
10002456:	7853      	ldrb	r3, [r2, #1]
10002458:	2b01      	cmp	r3, #1
1000245a:	d008      	beq.n	1000246e <resetd_control_xfer_cb+0x36>
1000245c:	2b02      	cmp	r3, #2
1000245e:	d1f7      	bne.n	10002450 <resetd_control_xfer_cb+0x18>
10002460:	2000      	movs	r0, #0
10002462:	2264      	movs	r2, #100	; 0x64
10002464:	2100      	movs	r1, #0
10002466:	f7ff fbe5 	bl	10001c34 <watchdog_reboot>
1000246a:	2001      	movs	r0, #1
1000246c:	e7f0      	b.n	10002450 <resetd_control_xfer_cb+0x18>
1000246e:	7894      	ldrb	r4, [r2, #2]
10002470:	78d2      	ldrb	r2, [r2, #3]
10002472:	0005      	movs	r5, r0
10002474:	0212      	lsls	r2, r2, #8
10002476:	4314      	orrs	r4, r2
10002478:	05d2      	lsls	r2, r2, #23
1000247a:	d502      	bpl.n	10002482 <resetd_control_xfer_cb+0x4a>
1000247c:	0a62      	lsrs	r2, r4, #9
1000247e:	4093      	lsls	r3, r2
10002480:	001d      	movs	r5, r3
10002482:	4805      	ldr	r0, [pc, #20]	; (10002498 <resetd_control_xfer_cb+0x60>)
10002484:	f7ff fd14 	bl	10001eb0 <rom_func_lookup>
10002488:	217f      	movs	r1, #127	; 0x7f
1000248a:	0003      	movs	r3, r0
1000248c:	4021      	ands	r1, r4
1000248e:	0028      	movs	r0, r5
10002490:	4798      	blx	r3
10002492:	46c0      	nop			; (mov r8, r8)
10002494:	20002516 	.word	0x20002516
10002498:	00004255 	.word	0x00004255

1000249c <usbd_app_driver_get_cb>:
1000249c:	2301      	movs	r3, #1
1000249e:	7003      	strb	r3, [r0, #0]
100024a0:	4800      	ldr	r0, [pc, #0]	; (100024a4 <usbd_app_driver_get_cb+0x8>)
100024a2:	4770      	bx	lr
100024a4:	10005288 	.word	0x10005288

100024a8 <tud_cdc_line_coding_cb>:
100024a8:	7848      	ldrb	r0, [r1, #1]
100024aa:	780b      	ldrb	r3, [r1, #0]
100024ac:	788a      	ldrb	r2, [r1, #2]
100024ae:	0200      	lsls	r0, r0, #8
100024b0:	4318      	orrs	r0, r3
100024b2:	0412      	lsls	r2, r2, #16
100024b4:	4310      	orrs	r0, r2
100024b6:	2296      	movs	r2, #150	; 0x96
100024b8:	78cb      	ldrb	r3, [r1, #3]
100024ba:	b510      	push	{r4, lr}
100024bc:	061b      	lsls	r3, r3, #24
100024be:	4303      	orrs	r3, r0
100024c0:	00d2      	lsls	r2, r2, #3
100024c2:	4293      	cmp	r3, r2
100024c4:	d000      	beq.n	100024c8 <tud_cdc_line_coding_cb+0x20>
100024c6:	bd10      	pop	{r4, pc}
100024c8:	4803      	ldr	r0, [pc, #12]	; (100024d8 <tud_cdc_line_coding_cb+0x30>)
100024ca:	f7ff fcf1 	bl	10001eb0 <rom_func_lookup>
100024ce:	2100      	movs	r1, #0
100024d0:	0003      	movs	r3, r0
100024d2:	0008      	movs	r0, r1
100024d4:	4798      	blx	r3
100024d6:	46c0      	nop			; (mov r8, r8)
100024d8:	00004255 	.word	0x00004255

100024dc <stdio_usb_set_chars_available_callback>:
100024dc:	4b02      	ldr	r3, [pc, #8]	; (100024e8 <stdio_usb_set_chars_available_callback+0xc>)
100024de:	6018      	str	r0, [r3, #0]
100024e0:	4b02      	ldr	r3, [pc, #8]	; (100024ec <stdio_usb_set_chars_available_callback+0x10>)
100024e2:	6019      	str	r1, [r3, #0]
100024e4:	4770      	bx	lr
100024e6:	46c0      	nop			; (mov r8, r8)
100024e8:	20002008 	.word	0x20002008
100024ec:	2000200c 	.word	0x2000200c

100024f0 <usb_irq>:
100024f0:	b510      	push	{r4, lr}
100024f2:	4b02      	ldr	r3, [pc, #8]	; (100024fc <usb_irq+0xc>)
100024f4:	7818      	ldrb	r0, [r3, #0]
100024f6:	f7fe f8f5 	bl	100006e4 <irq_set_pending>
100024fa:	bd10      	pop	{r4, pc}
100024fc:	20002517 	.word	0x20002517

10002500 <timer_task>:
10002500:	4b11      	ldr	r3, [pc, #68]	; (10002548 <timer_task+0x48>)
10002502:	b570      	push	{r4, r5, r6, lr}
10002504:	681a      	ldr	r2, [r3, #0]
10002506:	2a00      	cmp	r2, #0
10002508:	d01a      	beq.n	10002540 <timer_task+0x40>
1000250a:	f3ef 8110 	mrs	r1, PRIMASK
1000250e:	b672      	cpsid	i
10002510:	6810      	ldr	r0, [r2, #0]
10002512:	2800      	cmp	r0, #0
10002514:	d0fc      	beq.n	10002510 <timer_task+0x10>
10002516:	f3bf 8f5f 	dmb	sy
1000251a:	2200      	movs	r2, #0
1000251c:	480b      	ldr	r0, [pc, #44]	; (1000254c <timer_task+0x4c>)
1000251e:	6059      	str	r1, [r3, #4]
10002520:	7002      	strb	r2, [r0, #0]
10002522:	681b      	ldr	r3, [r3, #0]
10002524:	f3bf 8f5f 	dmb	sy
10002528:	601a      	str	r2, [r3, #0]
1000252a:	f381 8810 	msr	PRIMASK, r1
1000252e:	2400      	movs	r4, #0
10002530:	2500      	movs	r5, #0
10002532:	4b07      	ldr	r3, [pc, #28]	; (10002550 <timer_task+0x50>)
10002534:	7818      	ldrb	r0, [r3, #0]
10002536:	f7fe f8d5 	bl	100006e4 <irq_set_pending>
1000253a:	0029      	movs	r1, r5
1000253c:	0020      	movs	r0, r4
1000253e:	bd70      	pop	{r4, r5, r6, pc}
10002540:	24fa      	movs	r4, #250	; 0xfa
10002542:	2500      	movs	r5, #0
10002544:	00a4      	lsls	r4, r4, #2
10002546:	e7f4      	b.n	10002532 <timer_task+0x32>
10002548:	200024c0 	.word	0x200024c0
1000254c:	20002518 	.word	0x20002518
10002550:	20002517 	.word	0x20002517

10002554 <stdio_usb_in_chars>:
10002554:	b570      	push	{r4, r5, r6, lr}
10002556:	0004      	movs	r4, r0
10002558:	2000      	movs	r0, #0
1000255a:	000e      	movs	r6, r1
1000255c:	f001 fb02 	bl	10003b64 <tud_cdc_n_connected>
10002560:	2800      	cmp	r0, #0
10002562:	d035      	beq.n	100025d0 <stdio_usb_in_chars+0x7c>
10002564:	2000      	movs	r0, #0
10002566:	f001 fb15 	bl	10003b94 <tud_cdc_n_available>
1000256a:	2800      	cmp	r0, #0
1000256c:	d030      	beq.n	100025d0 <stdio_usb_in_chars+0x7c>
1000256e:	f7fe feef 	bl	10001350 <time_us_64>
10002572:	2300      	movs	r3, #0
10002574:	4a18      	ldr	r2, [pc, #96]	; (100025d8 <stdio_usb_in_chars+0x84>)
10002576:	1812      	adds	r2, r2, r0
10002578:	414b      	adcs	r3, r1
1000257a:	2b00      	cmp	r3, #0
1000257c:	db24      	blt.n	100025c8 <stdio_usb_in_chars+0x74>
1000257e:	4d17      	ldr	r5, [pc, #92]	; (100025dc <stdio_usb_in_chars+0x88>)
10002580:	0028      	movs	r0, r5
10002582:	f002 fdcd 	bl	10005120 <__mutex_try_enter_block_until_veneer>
10002586:	2800      	cmp	r0, #0
10002588:	d022      	beq.n	100025d0 <stdio_usb_in_chars+0x7c>
1000258a:	2000      	movs	r0, #0
1000258c:	f001 faea 	bl	10003b64 <tud_cdc_n_connected>
10002590:	2800      	cmp	r0, #0
10002592:	d10b      	bne.n	100025ac <stdio_usb_in_chars+0x58>
10002594:	2001      	movs	r0, #1
10002596:	2100      	movs	r1, #0
10002598:	2403      	movs	r4, #3
1000259a:	4240      	negs	r0, r0
1000259c:	f000 fccc 	bl	10002f38 <tud_task_ext>
100025a0:	4264      	negs	r4, r4
100025a2:	0028      	movs	r0, r5
100025a4:	f002 fd84 	bl	100050b0 <__mutex_exit_veneer>
100025a8:	0020      	movs	r0, r4
100025aa:	bd70      	pop	{r4, r5, r6, pc}
100025ac:	2000      	movs	r0, #0
100025ae:	f001 faf1 	bl	10003b94 <tud_cdc_n_available>
100025b2:	2800      	cmp	r0, #0
100025b4:	d0ee      	beq.n	10002594 <stdio_usb_in_chars+0x40>
100025b6:	0021      	movs	r1, r4
100025b8:	0032      	movs	r2, r6
100025ba:	2000      	movs	r0, #0
100025bc:	f001 faf6 	bl	10003bac <tud_cdc_n_read>
100025c0:	1e04      	subs	r4, r0, #0
100025c2:	d1ee      	bne.n	100025a2 <stdio_usb_in_chars+0x4e>
100025c4:	3c03      	subs	r4, #3
100025c6:	e7ec      	b.n	100025a2 <stdio_usb_in_chars+0x4e>
100025c8:	2201      	movs	r2, #1
100025ca:	4b05      	ldr	r3, [pc, #20]	; (100025e0 <stdio_usb_in_chars+0x8c>)
100025cc:	4252      	negs	r2, r2
100025ce:	e7d6      	b.n	1000257e <stdio_usb_in_chars+0x2a>
100025d0:	2403      	movs	r4, #3
100025d2:	4264      	negs	r4, r4
100025d4:	e7e8      	b.n	100025a8 <stdio_usb_in_chars+0x54>
100025d6:	46c0      	nop			; (mov r8, r8)
100025d8:	000f4240 	.word	0x000f4240
100025dc:	200024e8 	.word	0x200024e8
100025e0:	7fffffff 	.word	0x7fffffff

100025e4 <stdio_usb_out_chars>:
100025e4:	b5f8      	push	{r3, r4, r5, r6, r7, lr}
100025e6:	46de      	mov	lr, fp
100025e8:	4657      	mov	r7, sl
100025ea:	b580      	push	{r7, lr}
100025ec:	0005      	movs	r5, r0
100025ee:	000c      	movs	r4, r1
100025f0:	f7fe feae 	bl	10001350 <time_us_64>
100025f4:	2300      	movs	r3, #0
100025f6:	4a36      	ldr	r2, [pc, #216]	; (100026d0 <stdio_usb_out_chars+0xec>)
100025f8:	1812      	adds	r2, r2, r0
100025fa:	414b      	adcs	r3, r1
100025fc:	2b00      	cmp	r3, #0
100025fe:	db5a      	blt.n	100026b6 <stdio_usb_out_chars+0xd2>
10002600:	4934      	ldr	r1, [pc, #208]	; (100026d4 <stdio_usb_out_chars+0xf0>)
10002602:	0008      	movs	r0, r1
10002604:	468a      	mov	sl, r1
10002606:	f002 fd8b 	bl	10005120 <__mutex_try_enter_block_until_veneer>
1000260a:	2800      	cmp	r0, #0
1000260c:	d103      	bne.n	10002616 <stdio_usb_out_chars+0x32>
1000260e:	bcc0      	pop	{r6, r7}
10002610:	46bb      	mov	fp, r7
10002612:	46b2      	mov	sl, r6
10002614:	bdf8      	pop	{r3, r4, r5, r6, r7, pc}
10002616:	2000      	movs	r0, #0
10002618:	f001 faa4 	bl	10003b64 <tud_cdc_n_connected>
1000261c:	2800      	cmp	r0, #0
1000261e:	d04e      	beq.n	100026be <stdio_usb_out_chars+0xda>
10002620:	2600      	movs	r6, #0
10002622:	2c00      	cmp	r4, #0
10002624:	dd43      	ble.n	100026ae <stdio_usb_out_chars+0xca>
10002626:	4b2c      	ldr	r3, [pc, #176]	; (100026d8 <stdio_usb_out_chars+0xf4>)
10002628:	469b      	mov	fp, r3
1000262a:	e014      	b.n	10002656 <stdio_usb_out_chars+0x72>
1000262c:	19a9      	adds	r1, r5, r6
1000262e:	2000      	movs	r0, #0
10002630:	f001 fb30 	bl	10003c94 <tud_cdc_n_write>
10002634:	0007      	movs	r7, r0
10002636:	2001      	movs	r0, #1
10002638:	2100      	movs	r1, #0
1000263a:	4240      	negs	r0, r0
1000263c:	f000 fc7c 	bl	10002f38 <tud_task_ext>
10002640:	2000      	movs	r0, #0
10002642:	f001 faeb 	bl	10003c1c <tud_cdc_n_write_flush>
10002646:	f7fe fe83 	bl	10001350 <time_us_64>
1000264a:	4b23      	ldr	r3, [pc, #140]	; (100026d8 <stdio_usb_out_chars+0xf4>)
1000264c:	19f6      	adds	r6, r6, r7
1000264e:	6018      	str	r0, [r3, #0]
10002650:	6059      	str	r1, [r3, #4]
10002652:	42b4      	cmp	r4, r6
10002654:	dd2b      	ble.n	100026ae <stdio_usb_out_chars+0xca>
10002656:	2000      	movs	r0, #0
10002658:	f001 fb36 	bl	10003cc8 <tud_cdc_n_write_available>
1000265c:	1ba7      	subs	r7, r4, r6
1000265e:	0002      	movs	r2, r0
10002660:	42b8      	cmp	r0, r7
10002662:	dd00      	ble.n	10002666 <stdio_usb_out_chars+0x82>
10002664:	003a      	movs	r2, r7
10002666:	2a00      	cmp	r2, #0
10002668:	d1e0      	bne.n	1000262c <stdio_usb_out_chars+0x48>
1000266a:	2001      	movs	r0, #1
1000266c:	2100      	movs	r1, #0
1000266e:	4240      	negs	r0, r0
10002670:	f000 fc62 	bl	10002f38 <tud_task_ext>
10002674:	2000      	movs	r0, #0
10002676:	f001 fad1 	bl	10003c1c <tud_cdc_n_write_flush>
1000267a:	2000      	movs	r0, #0
1000267c:	f001 fa72 	bl	10003b64 <tud_cdc_n_connected>
10002680:	2800      	cmp	r0, #0
10002682:	d014      	beq.n	100026ae <stdio_usb_out_chars+0xca>
10002684:	2000      	movs	r0, #0
10002686:	f001 fb1f 	bl	10003cc8 <tud_cdc_n_write_available>
1000268a:	2800      	cmp	r0, #0
1000268c:	d1e1      	bne.n	10002652 <stdio_usb_out_chars+0x6e>
1000268e:	f7fe fe5f 	bl	10001350 <time_us_64>
10002692:	465b      	mov	r3, fp
10002694:	000f      	movs	r7, r1
10002696:	681a      	ldr	r2, [r3, #0]
10002698:	685b      	ldr	r3, [r3, #4]
1000269a:	2100      	movs	r1, #0
1000269c:	4684      	mov	ip, r0
1000269e:	480f      	ldr	r0, [pc, #60]	; (100026dc <stdio_usb_out_chars+0xf8>)
100026a0:	1812      	adds	r2, r2, r0
100026a2:	414b      	adcs	r3, r1
100026a4:	429f      	cmp	r7, r3
100026a6:	d802      	bhi.n	100026ae <stdio_usb_out_chars+0xca>
100026a8:	d1d3      	bne.n	10002652 <stdio_usb_out_chars+0x6e>
100026aa:	4594      	cmp	ip, r2
100026ac:	d9d1      	bls.n	10002652 <stdio_usb_out_chars+0x6e>
100026ae:	4650      	mov	r0, sl
100026b0:	f002 fcfe 	bl	100050b0 <__mutex_exit_veneer>
100026b4:	e7ab      	b.n	1000260e <stdio_usb_out_chars+0x2a>
100026b6:	2201      	movs	r2, #1
100026b8:	4b09      	ldr	r3, [pc, #36]	; (100026e0 <stdio_usb_out_chars+0xfc>)
100026ba:	4252      	negs	r2, r2
100026bc:	e7a0      	b.n	10002600 <stdio_usb_out_chars+0x1c>
100026be:	2000      	movs	r0, #0
100026c0:	2100      	movs	r1, #0
100026c2:	4b05      	ldr	r3, [pc, #20]	; (100026d8 <stdio_usb_out_chars+0xf4>)
100026c4:	6018      	str	r0, [r3, #0]
100026c6:	6059      	str	r1, [r3, #4]
100026c8:	4650      	mov	r0, sl
100026ca:	f002 fcf1 	bl	100050b0 <__mutex_exit_veneer>
100026ce:	e79e      	b.n	1000260e <stdio_usb_out_chars+0x2a>
100026d0:	000f4240 	.word	0x000f4240
100026d4:	200024e8 	.word	0x200024e8
100026d8:	20001850 	.word	0x20001850
100026dc:	0007a120 	.word	0x0007a120
100026e0:	7fffffff 	.word	0x7fffffff

100026e4 <low_priority_worker_irq>:
100026e4:	b510      	push	{r4, lr}
100026e6:	4c24      	ldr	r4, [pc, #144]	; (10002778 <low_priority_worker_irq+0x94>)
100026e8:	b084      	sub	sp, #16
100026ea:	2100      	movs	r1, #0
100026ec:	0020      	movs	r0, r4
100026ee:	f002 fd07 	bl	10005100 <__mutex_try_enter_veneer>
100026f2:	2800      	cmp	r0, #0
100026f4:	d11c      	bne.n	10002730 <low_priority_worker_irq+0x4c>
100026f6:	4b21      	ldr	r3, [pc, #132]	; (1000277c <low_priority_worker_irq+0x98>)
100026f8:	681a      	ldr	r2, [r3, #0]
100026fa:	2a00      	cmp	r2, #0
100026fc:	d016      	beq.n	1000272c <low_priority_worker_irq+0x48>
100026fe:	f3ef 8110 	mrs	r1, PRIMASK
10002702:	b672      	cpsid	i
10002704:	6810      	ldr	r0, [r2, #0]
10002706:	2800      	cmp	r0, #0
10002708:	d0fc      	beq.n	10002704 <low_priority_worker_irq+0x20>
1000270a:	f3bf 8f5f 	dmb	sy
1000270e:	2401      	movs	r4, #1
10002710:	481b      	ldr	r0, [pc, #108]	; (10002780 <low_priority_worker_irq+0x9c>)
10002712:	6059      	str	r1, [r3, #4]
10002714:	7802      	ldrb	r2, [r0, #0]
10002716:	681b      	ldr	r3, [r3, #0]
10002718:	b2d2      	uxtb	r2, r2
1000271a:	7004      	strb	r4, [r0, #0]
1000271c:	f3bf 8f5f 	dmb	sy
10002720:	2000      	movs	r0, #0
10002722:	6018      	str	r0, [r3, #0]
10002724:	f381 8810 	msr	PRIMASK, r1
10002728:	2a00      	cmp	r2, #0
1000272a:	d00a      	beq.n	10002742 <low_priority_worker_irq+0x5e>
1000272c:	b004      	add	sp, #16
1000272e:	bd10      	pop	{r4, pc}
10002730:	2001      	movs	r0, #1
10002732:	2100      	movs	r1, #0
10002734:	4240      	negs	r0, r0
10002736:	f000 fbff 	bl	10002f38 <tud_task_ext>
1000273a:	0020      	movs	r0, r4
1000273c:	f002 fcb8 	bl	100050b0 <__mutex_exit_veneer>
10002740:	e7f4      	b.n	1000272c <low_priority_worker_irq+0x48>
10002742:	f7fe fc6f 	bl	10001024 <alarm_pool_get_default>
10002746:	0004      	movs	r4, r0
10002748:	f7fe fe02 	bl	10001350 <time_us_64>
1000274c:	22fa      	movs	r2, #250	; 0xfa
1000274e:	2300      	movs	r3, #0
10002750:	0092      	lsls	r2, r2, #2
10002752:	1812      	adds	r2, r2, r0
10002754:	414b      	adcs	r3, r1
10002756:	2b00      	cmp	r3, #0
10002758:	db09      	blt.n	1000276e <low_priority_worker_irq+0x8a>
1000275a:	2101      	movs	r1, #1
1000275c:	9102      	str	r1, [sp, #8]
1000275e:	2100      	movs	r1, #0
10002760:	9101      	str	r1, [sp, #4]
10002762:	4908      	ldr	r1, [pc, #32]	; (10002784 <low_priority_worker_irq+0xa0>)
10002764:	0020      	movs	r0, r4
10002766:	9100      	str	r1, [sp, #0]
10002768:	f7fe fc60 	bl	1000102c <alarm_pool_add_alarm_at>
1000276c:	e7de      	b.n	1000272c <low_priority_worker_irq+0x48>
1000276e:	2201      	movs	r2, #1
10002770:	4b05      	ldr	r3, [pc, #20]	; (10002788 <low_priority_worker_irq+0xa4>)
10002772:	4252      	negs	r2, r2
10002774:	e7f1      	b.n	1000275a <low_priority_worker_irq+0x76>
10002776:	46c0      	nop			; (mov r8, r8)
10002778:	200024e8 	.word	0x200024e8
1000277c:	200024c0 	.word	0x200024c0
10002780:	20002518 	.word	0x20002518
10002784:	10002501 	.word	0x10002501
10002788:	7fffffff 	.word	0x7fffffff

1000278c <tud_cdc_rx_cb>:
1000278c:	4b05      	ldr	r3, [pc, #20]	; (100027a4 <tud_cdc_rx_cb+0x18>)
1000278e:	b510      	push	{r4, lr}
10002790:	6818      	ldr	r0, [r3, #0]
10002792:	2800      	cmp	r0, #0
10002794:	d004      	beq.n	100027a0 <tud_cdc_rx_cb+0x14>
10002796:	4b04      	ldr	r3, [pc, #16]	; (100027a8 <tud_cdc_rx_cb+0x1c>)
10002798:	2200      	movs	r2, #0
1000279a:	6819      	ldr	r1, [r3, #0]
1000279c:	f001 f844 	bl	10003828 <usbd_defer_func>
100027a0:	bd10      	pop	{r4, pc}
100027a2:	46c0      	nop			; (mov r8, r8)
100027a4:	20002008 	.word	0x20002008
100027a8:	2000200c 	.word	0x2000200c

100027ac <stdio_usb_init>:
100027ac:	23d0      	movs	r3, #208	; 0xd0
100027ae:	b510      	push	{r4, lr}
100027b0:	061b      	lsls	r3, r3, #24
100027b2:	b084      	sub	sp, #16
100027b4:	681c      	ldr	r4, [r3, #0]
100027b6:	f7fe fc35 	bl	10001024 <alarm_pool_get_default>
100027ba:	f7fe fcf3 	bl	100011a4 <alarm_pool_core_num>
100027be:	42a0      	cmp	r0, r4
100027c0:	d002      	beq.n	100027c8 <stdio_usb_init+0x1c>
100027c2:	2000      	movs	r0, #0
100027c4:	b004      	add	sp, #16
100027c6:	bd10      	pop	{r4, pc}
100027c8:	4b26      	ldr	r3, [pc, #152]	; (10002864 <stdio_usb_init+0xb8>)
100027ca:	781b      	ldrb	r3, [r3, #0]
100027cc:	f001 fc66 	bl	1000409c <tusb_init>
100027d0:	4825      	ldr	r0, [pc, #148]	; (10002868 <stdio_usb_init+0xbc>)
100027d2:	f7fe fa2b 	bl	10000c2c <mutex_init>
100027d6:	2001      	movs	r0, #1
100027d8:	f7fe fa0c 	bl	10000bf4 <user_irq_claim_unused>
100027dc:	23ff      	movs	r3, #255	; 0xff
100027de:	4c23      	ldr	r4, [pc, #140]	; (1000286c <stdio_usb_init+0xc0>)
100027e0:	4923      	ldr	r1, [pc, #140]	; (10002870 <stdio_usb_init+0xc4>)
100027e2:	7020      	strb	r0, [r4, #0]
100027e4:	4018      	ands	r0, r3
100027e6:	f7fd ffa3 	bl	10000730 <irq_set_exclusive_handler>
100027ea:	7820      	ldrb	r0, [r4, #0]
100027ec:	2101      	movs	r1, #1
100027ee:	f7fd ff67 	bl	100006c0 <irq_set_enabled>
100027f2:	2005      	movs	r0, #5
100027f4:	f7fd ff7e 	bl	100006f4 <irq_has_shared_handler>
100027f8:	2800      	cmp	r0, #0
100027fa:	d122      	bne.n	10002842 <stdio_usb_init+0x96>
100027fc:	f7fe fc12 	bl	10001024 <alarm_pool_get_default>
10002800:	0004      	movs	r4, r0
10002802:	f7fe fda5 	bl	10001350 <time_us_64>
10002806:	22fa      	movs	r2, #250	; 0xfa
10002808:	2300      	movs	r3, #0
1000280a:	0092      	lsls	r2, r2, #2
1000280c:	1812      	adds	r2, r2, r0
1000280e:	414b      	adcs	r3, r1
10002810:	2b00      	cmp	r3, #0
10002812:	db22      	blt.n	1000285a <stdio_usb_init+0xae>
10002814:	2101      	movs	r1, #1
10002816:	9102      	str	r1, [sp, #8]
10002818:	2100      	movs	r1, #0
1000281a:	9101      	str	r1, [sp, #4]
1000281c:	4915      	ldr	r1, [pc, #84]	; (10002874 <stdio_usb_init+0xc8>)
1000281e:	0020      	movs	r0, r4
10002820:	9100      	str	r1, [sp, #0]
10002822:	f7fe fc03 	bl	1000102c <alarm_pool_add_alarm_at>
10002826:	2208      	movs	r2, #8
10002828:	0004      	movs	r4, r0
1000282a:	2100      	movs	r1, #0
1000282c:	4812      	ldr	r0, [pc, #72]	; (10002878 <stdio_usb_init+0xcc>)
1000282e:	f7ff fc73 	bl	10002118 <__wrap_memset>
10002832:	2c00      	cmp	r4, #0
10002834:	dbc5      	blt.n	100027c2 <stdio_usb_init+0x16>
10002836:	4811      	ldr	r0, [pc, #68]	; (1000287c <stdio_usb_init+0xd0>)
10002838:	2101      	movs	r1, #1
1000283a:	f7ff fdc3 	bl	100023c4 <stdio_set_driver_enabled>
1000283e:	2001      	movs	r0, #1
10002840:	e7c0      	b.n	100027c4 <stdio_usb_init+0x18>
10002842:	2200      	movs	r2, #0
10002844:	490e      	ldr	r1, [pc, #56]	; (10002880 <stdio_usb_init+0xd4>)
10002846:	2005      	movs	r0, #5
10002848:	f7fd ff9c 	bl	10000784 <irq_add_shared_handler>
1000284c:	f7fd ff1c 	bl	10000688 <next_striped_spin_lock_num>
10002850:	0001      	movs	r1, r0
10002852:	4809      	ldr	r0, [pc, #36]	; (10002878 <stdio_usb_init+0xcc>)
10002854:	f7fe fa16 	bl	10000c84 <critical_section_init_with_lock_num>
10002858:	e7ed      	b.n	10002836 <stdio_usb_init+0x8a>
1000285a:	2201      	movs	r2, #1
1000285c:	4b09      	ldr	r3, [pc, #36]	; (10002884 <stdio_usb_init+0xd8>)
1000285e:	4252      	negs	r2, r2
10002860:	e7d8      	b.n	10002814 <stdio_usb_init+0x68>
10002862:	46c0      	nop			; (mov r8, r8)
10002864:	100054a8 	.word	0x100054a8
10002868:	200024e8 	.word	0x200024e8
1000286c:	20002517 	.word	0x20002517
10002870:	100026e5 	.word	0x100026e5
10002874:	10002501 	.word	0x10002501
10002878:	200024c0 	.word	0x200024c0
1000287c:	20000eb0 	.word	0x20000eb0
10002880:	100024f1 	.word	0x100024f1
10002884:	7fffffff 	.word	0x7fffffff

10002888 <tud_descriptor_device_cb>:
10002888:	4800      	ldr	r0, [pc, #0]	; (1000288c <tud_descriptor_device_cb+0x4>)
1000288a:	4770      	bx	lr
1000288c:	10005340 	.word	0x10005340

10002890 <tud_descriptor_configuration_cb>:
10002890:	4800      	ldr	r0, [pc, #0]	; (10002894 <tud_descriptor_configuration_cb+0x4>)
10002892:	4770      	bx	lr
10002894:	100052ec 	.word	0x100052ec

10002898 <tud_descriptor_string_cb>:
10002898:	b570      	push	{r4, r5, r6, lr}
1000289a:	0004      	movs	r4, r0
1000289c:	4817      	ldr	r0, [pc, #92]	; (100028fc <tud_descriptor_string_cb+0x64>)
1000289e:	7803      	ldrb	r3, [r0, #0]
100028a0:	2b00      	cmp	r3, #0
100028a2:	d021      	beq.n	100028e8 <tud_descriptor_string_cb+0x50>
100028a4:	2c00      	cmp	r4, #0
100028a6:	d106      	bne.n	100028b6 <tud_descriptor_string_cb+0x1e>
100028a8:	24c1      	movs	r4, #193	; 0xc1
100028aa:	4815      	ldr	r0, [pc, #84]	; (10002900 <tud_descriptor_string_cb+0x68>)
100028ac:	4b15      	ldr	r3, [pc, #84]	; (10002904 <tud_descriptor_string_cb+0x6c>)
100028ae:	00a4      	lsls	r4, r4, #2
100028b0:	8043      	strh	r3, [r0, #2]
100028b2:	8004      	strh	r4, [r0, #0]
100028b4:	bd70      	pop	{r4, r5, r6, pc}
100028b6:	2c05      	cmp	r4, #5
100028b8:	d81d      	bhi.n	100028f6 <tud_descriptor_string_cb+0x5e>
100028ba:	4b13      	ldr	r3, [pc, #76]	; (10002908 <tud_descriptor_string_cb+0x70>)
100028bc:	4810      	ldr	r0, [pc, #64]	; (10002900 <tud_descriptor_string_cb+0x68>)
100028be:	00a4      	lsls	r4, r4, #2
100028c0:	58e5      	ldr	r5, [r4, r3]
100028c2:	1c81      	adds	r1, r0, #2
100028c4:	2300      	movs	r3, #0
100028c6:	e004      	b.n	100028d2 <tud_descriptor_string_cb+0x3a>
100028c8:	3301      	adds	r3, #1
100028ca:	800a      	strh	r2, [r1, #0]
100028cc:	3102      	adds	r1, #2
100028ce:	2b13      	cmp	r3, #19
100028d0:	d00e      	beq.n	100028f0 <tud_descriptor_string_cb+0x58>
100028d2:	5cea      	ldrb	r2, [r5, r3]
100028d4:	b2dc      	uxtb	r4, r3
100028d6:	2a00      	cmp	r2, #0
100028d8:	d1f6      	bne.n	100028c8 <tud_descriptor_string_cb+0x30>
100028da:	23c0      	movs	r3, #192	; 0xc0
100028dc:	3401      	adds	r4, #1
100028de:	b2e4      	uxtb	r4, r4
100028e0:	0064      	lsls	r4, r4, #1
100028e2:	009b      	lsls	r3, r3, #2
100028e4:	431c      	orrs	r4, r3
100028e6:	e7e4      	b.n	100028b2 <tud_descriptor_string_cb+0x1a>
100028e8:	2111      	movs	r1, #17
100028ea:	f000 f817 	bl	1000291c <pico_get_unique_board_id_string>
100028ee:	e7d9      	b.n	100028a4 <tud_descriptor_string_cb+0xc>
100028f0:	24ca      	movs	r4, #202	; 0xca
100028f2:	00a4      	lsls	r4, r4, #2
100028f4:	e7dd      	b.n	100028b2 <tud_descriptor_string_cb+0x1a>
100028f6:	2000      	movs	r0, #0
100028f8:	e7dc      	b.n	100028b4 <tud_descriptor_string_cb+0x1c>
100028fa:	46c0      	nop			; (mov r8, r8)
100028fc:	20002500 	.word	0x20002500
10002900:	2000207c 	.word	0x2000207c
10002904:	00000409 	.word	0x00000409
10002908:	10005354 	.word	0x10005354

1000290c <_retrieve_unique_id_on_boot>:
1000290c:	b510      	push	{r4, lr}
1000290e:	4802      	ldr	r0, [pc, #8]	; (10002918 <_retrieve_unique_id_on_boot+0xc>)
10002910:	f000 f8d8 	bl	10002ac4 <flash_get_unique_id>
10002914:	bd10      	pop	{r4, pc}
10002916:	46c0      	nop			; (mov r8, r8)
10002918:	200024d8 	.word	0x200024d8

1000291c <pico_get_unique_board_id_string>:
1000291c:	b530      	push	{r4, r5, lr}
1000291e:	1e4b      	subs	r3, r1, #1
10002920:	2901      	cmp	r1, #1
10002922:	d100      	bne.n	10002926 <pico_get_unique_board_id_string+0xa>
10002924:	e0a7      	b.n	10002a76 <pico_get_unique_board_id_string+0x15a>
10002926:	4a66      	ldr	r2, [pc, #408]	; (10002ac0 <pico_get_unique_board_id_string+0x1a4>)
10002928:	7811      	ldrb	r1, [r2, #0]
1000292a:	110d      	asrs	r5, r1, #4
1000292c:	002c      	movs	r4, r5
1000292e:	3430      	adds	r4, #48	; 0x30
10002930:	299f      	cmp	r1, #159	; 0x9f
10002932:	d900      	bls.n	10002936 <pico_get_unique_board_id_string+0x1a>
10002934:	e0a2      	b.n	10002a7c <pico_get_unique_board_id_string+0x160>
10002936:	7004      	strb	r4, [r0, #0]
10002938:	2b01      	cmp	r3, #1
1000293a:	d100      	bne.n	1000293e <pico_get_unique_board_id_string+0x22>
1000293c:	e0be      	b.n	10002abc <pico_get_unique_board_id_string+0x1a0>
1000293e:	210f      	movs	r1, #15
10002940:	7814      	ldrb	r4, [r2, #0]
10002942:	4021      	ands	r1, r4
10002944:	000c      	movs	r4, r1
10002946:	3430      	adds	r4, #48	; 0x30
10002948:	2909      	cmp	r1, #9
1000294a:	dd00      	ble.n	1000294e <pico_get_unique_board_id_string+0x32>
1000294c:	e098      	b.n	10002a80 <pico_get_unique_board_id_string+0x164>
1000294e:	7044      	strb	r4, [r0, #1]
10002950:	2b02      	cmp	r3, #2
10002952:	d100      	bne.n	10002956 <pico_get_unique_board_id_string+0x3a>
10002954:	e0b2      	b.n	10002abc <pico_get_unique_board_id_string+0x1a0>
10002956:	7854      	ldrb	r4, [r2, #1]
10002958:	1125      	asrs	r5, r4, #4
1000295a:	0029      	movs	r1, r5
1000295c:	3130      	adds	r1, #48	; 0x30
1000295e:	2c9f      	cmp	r4, #159	; 0x9f
10002960:	d900      	bls.n	10002964 <pico_get_unique_board_id_string+0x48>
10002962:	e090      	b.n	10002a86 <pico_get_unique_board_id_string+0x16a>
10002964:	7081      	strb	r1, [r0, #2]
10002966:	2b03      	cmp	r3, #3
10002968:	d100      	bne.n	1000296c <pico_get_unique_board_id_string+0x50>
1000296a:	e0a7      	b.n	10002abc <pico_get_unique_board_id_string+0x1a0>
1000296c:	210f      	movs	r1, #15
1000296e:	4021      	ands	r1, r4
10002970:	000c      	movs	r4, r1
10002972:	3430      	adds	r4, #48	; 0x30
10002974:	2909      	cmp	r1, #9
10002976:	dd00      	ble.n	1000297a <pico_get_unique_board_id_string+0x5e>
10002978:	e087      	b.n	10002a8a <pico_get_unique_board_id_string+0x16e>
1000297a:	70c4      	strb	r4, [r0, #3]
1000297c:	2b04      	cmp	r3, #4
1000297e:	d100      	bne.n	10002982 <pico_get_unique_board_id_string+0x66>
10002980:	e09c      	b.n	10002abc <pico_get_unique_board_id_string+0x1a0>
10002982:	7894      	ldrb	r4, [r2, #2]
10002984:	1125      	asrs	r5, r4, #4
10002986:	0029      	movs	r1, r5
10002988:	3130      	adds	r1, #48	; 0x30
1000298a:	2c9f      	cmp	r4, #159	; 0x9f
1000298c:	d900      	bls.n	10002990 <pico_get_unique_board_id_string+0x74>
1000298e:	e07f      	b.n	10002a90 <pico_get_unique_board_id_string+0x174>
10002990:	7101      	strb	r1, [r0, #4]
10002992:	2b05      	cmp	r3, #5
10002994:	d100      	bne.n	10002998 <pico_get_unique_board_id_string+0x7c>
10002996:	e091      	b.n	10002abc <pico_get_unique_board_id_string+0x1a0>
10002998:	210f      	movs	r1, #15
1000299a:	4021      	ands	r1, r4
1000299c:	000c      	movs	r4, r1
1000299e:	3430      	adds	r4, #48	; 0x30
100029a0:	2909      	cmp	r1, #9
100029a2:	dd00      	ble.n	100029a6 <pico_get_unique_board_id_string+0x8a>
100029a4:	e076      	b.n	10002a94 <pico_get_unique_board_id_string+0x178>
100029a6:	7144      	strb	r4, [r0, #5]
100029a8:	2b06      	cmp	r3, #6
100029aa:	d100      	bne.n	100029ae <pico_get_unique_board_id_string+0x92>
100029ac:	e086      	b.n	10002abc <pico_get_unique_board_id_string+0x1a0>
100029ae:	78d4      	ldrb	r4, [r2, #3]
100029b0:	1125      	asrs	r5, r4, #4
100029b2:	0029      	movs	r1, r5
100029b4:	3130      	adds	r1, #48	; 0x30
100029b6:	2c9f      	cmp	r4, #159	; 0x9f
100029b8:	d900      	bls.n	100029bc <pico_get_unique_board_id_string+0xa0>
100029ba:	e06e      	b.n	10002a9a <pico_get_unique_board_id_string+0x17e>
100029bc:	7181      	strb	r1, [r0, #6]
100029be:	2b07      	cmp	r3, #7
100029c0:	d100      	bne.n	100029c4 <pico_get_unique_board_id_string+0xa8>
100029c2:	e07b      	b.n	10002abc <pico_get_unique_board_id_string+0x1a0>
100029c4:	210f      	movs	r1, #15
100029c6:	4021      	ands	r1, r4
100029c8:	000c      	movs	r4, r1
100029ca:	3430      	adds	r4, #48	; 0x30
100029cc:	2909      	cmp	r1, #9
100029ce:	dc66      	bgt.n	10002a9e <pico_get_unique_board_id_string+0x182>
100029d0:	71c4      	strb	r4, [r0, #7]
100029d2:	2b08      	cmp	r3, #8
100029d4:	d100      	bne.n	100029d8 <pico_get_unique_board_id_string+0xbc>
100029d6:	e071      	b.n	10002abc <pico_get_unique_board_id_string+0x1a0>
100029d8:	7914      	ldrb	r4, [r2, #4]
100029da:	1125      	asrs	r5, r4, #4
100029dc:	0029      	movs	r1, r5
100029de:	3130      	adds	r1, #48	; 0x30
100029e0:	2c9f      	cmp	r4, #159	; 0x9f
100029e2:	d85f      	bhi.n	10002aa4 <pico_get_unique_board_id_string+0x188>
100029e4:	7201      	strb	r1, [r0, #8]
100029e6:	2b09      	cmp	r3, #9
100029e8:	d068      	beq.n	10002abc <pico_get_unique_board_id_string+0x1a0>
100029ea:	210f      	movs	r1, #15
100029ec:	4021      	ands	r1, r4
100029ee:	000c      	movs	r4, r1
100029f0:	3430      	adds	r4, #48	; 0x30
100029f2:	2909      	cmp	r1, #9
100029f4:	dc58      	bgt.n	10002aa8 <pico_get_unique_board_id_string+0x18c>
100029f6:	7244      	strb	r4, [r0, #9]
100029f8:	2b0a      	cmp	r3, #10
100029fa:	d05f      	beq.n	10002abc <pico_get_unique_board_id_string+0x1a0>
100029fc:	7954      	ldrb	r4, [r2, #5]
100029fe:	1125      	asrs	r5, r4, #4
10002a00:	0029      	movs	r1, r5
10002a02:	3130      	adds	r1, #48	; 0x30
10002a04:	2c9f      	cmp	r4, #159	; 0x9f
10002a06:	d852      	bhi.n	10002aae <pico_get_unique_board_id_string+0x192>
10002a08:	7281      	strb	r1, [r0, #10]
10002a0a:	2b0b      	cmp	r3, #11
10002a0c:	d056      	beq.n	10002abc <pico_get_unique_board_id_string+0x1a0>
10002a0e:	210f      	movs	r1, #15
10002a10:	4021      	ands	r1, r4
10002a12:	000c      	movs	r4, r1
10002a14:	3430      	adds	r4, #48	; 0x30
10002a16:	2909      	cmp	r1, #9
10002a18:	dc4b      	bgt.n	10002ab2 <pico_get_unique_board_id_string+0x196>
10002a1a:	72c4      	strb	r4, [r0, #11]
10002a1c:	2b0c      	cmp	r3, #12
10002a1e:	d04d      	beq.n	10002abc <pico_get_unique_board_id_string+0x1a0>
10002a20:	7994      	ldrb	r4, [r2, #6]
10002a22:	1125      	asrs	r5, r4, #4
10002a24:	0029      	movs	r1, r5
10002a26:	3130      	adds	r1, #48	; 0x30
10002a28:	2c9f      	cmp	r4, #159	; 0x9f
10002a2a:	d900      	bls.n	10002a2e <pico_get_unique_board_id_string+0x112>
10002a2c:	3107      	adds	r1, #7
10002a2e:	7301      	strb	r1, [r0, #12]
10002a30:	2b0d      	cmp	r3, #13
10002a32:	d043      	beq.n	10002abc <pico_get_unique_board_id_string+0x1a0>
10002a34:	210f      	movs	r1, #15
10002a36:	4021      	ands	r1, r4
10002a38:	000c      	movs	r4, r1
10002a3a:	3430      	adds	r4, #48	; 0x30
10002a3c:	2909      	cmp	r1, #9
10002a3e:	dd01      	ble.n	10002a44 <pico_get_unique_board_id_string+0x128>
10002a40:	3137      	adds	r1, #55	; 0x37
10002a42:	000c      	movs	r4, r1
10002a44:	7344      	strb	r4, [r0, #13]
10002a46:	2b0e      	cmp	r3, #14
10002a48:	d038      	beq.n	10002abc <pico_get_unique_board_id_string+0x1a0>
10002a4a:	79d1      	ldrb	r1, [r2, #7]
10002a4c:	110c      	asrs	r4, r1, #4
10002a4e:	0022      	movs	r2, r4
10002a50:	3230      	adds	r2, #48	; 0x30
10002a52:	299f      	cmp	r1, #159	; 0x9f
10002a54:	d900      	bls.n	10002a58 <pico_get_unique_board_id_string+0x13c>
10002a56:	3207      	adds	r2, #7
10002a58:	7382      	strb	r2, [r0, #14]
10002a5a:	2b0f      	cmp	r3, #15
10002a5c:	d02e      	beq.n	10002abc <pico_get_unique_board_id_string+0x1a0>
10002a5e:	220f      	movs	r2, #15
10002a60:	400a      	ands	r2, r1
10002a62:	0011      	movs	r1, r2
10002a64:	3137      	adds	r1, #55	; 0x37
10002a66:	2a09      	cmp	r2, #9
10002a68:	dc01      	bgt.n	10002a6e <pico_get_unique_board_id_string+0x152>
10002a6a:	3230      	adds	r2, #48	; 0x30
10002a6c:	0011      	movs	r1, r2
10002a6e:	73c1      	strb	r1, [r0, #15]
10002a70:	2b10      	cmp	r3, #16
10002a72:	d023      	beq.n	10002abc <pico_get_unique_board_id_string+0x1a0>
10002a74:	3010      	adds	r0, #16
10002a76:	2300      	movs	r3, #0
10002a78:	7003      	strb	r3, [r0, #0]
10002a7a:	bd30      	pop	{r4, r5, pc}
10002a7c:	3407      	adds	r4, #7
10002a7e:	e75a      	b.n	10002936 <pico_get_unique_board_id_string+0x1a>
10002a80:	3137      	adds	r1, #55	; 0x37
10002a82:	000c      	movs	r4, r1
10002a84:	e763      	b.n	1000294e <pico_get_unique_board_id_string+0x32>
10002a86:	3107      	adds	r1, #7
10002a88:	e76c      	b.n	10002964 <pico_get_unique_board_id_string+0x48>
10002a8a:	3137      	adds	r1, #55	; 0x37
10002a8c:	000c      	movs	r4, r1
10002a8e:	e774      	b.n	1000297a <pico_get_unique_board_id_string+0x5e>
10002a90:	3107      	adds	r1, #7
10002a92:	e77d      	b.n	10002990 <pico_get_unique_board_id_string+0x74>
10002a94:	3137      	adds	r1, #55	; 0x37
10002a96:	000c      	movs	r4, r1
10002a98:	e785      	b.n	100029a6 <pico_get_unique_board_id_string+0x8a>
10002a9a:	3107      	adds	r1, #7
10002a9c:	e78e      	b.n	100029bc <pico_get_unique_board_id_string+0xa0>
10002a9e:	3137      	adds	r1, #55	; 0x37
10002aa0:	000c      	movs	r4, r1
10002aa2:	e795      	b.n	100029d0 <pico_get_unique_board_id_string+0xb4>
10002aa4:	3107      	adds	r1, #7
10002aa6:	e79d      	b.n	100029e4 <pico_get_unique_board_id_string+0xc8>
10002aa8:	3137      	adds	r1, #55	; 0x37
10002aaa:	000c      	movs	r4, r1
10002aac:	e7a3      	b.n	100029f6 <pico_get_unique_board_id_string+0xda>
10002aae:	3107      	adds	r1, #7
10002ab0:	e7aa      	b.n	10002a08 <pico_get_unique_board_id_string+0xec>
10002ab2:	3137      	adds	r1, #55	; 0x37
10002ab4:	000c      	movs	r4, r1
10002ab6:	72c4      	strb	r4, [r0, #11]
10002ab8:	2b0c      	cmp	r3, #12
10002aba:	d1b1      	bne.n	10002a20 <pico_get_unique_board_id_string+0x104>
10002abc:	18c0      	adds	r0, r0, r3
10002abe:	e7da      	b.n	10002a76 <pico_get_unique_board_id_string+0x15a>
10002ac0:	200024d8 	.word	0x200024d8

10002ac4 <flash_get_unique_id>:
10002ac4:	b530      	push	{r4, r5, lr}
10002ac6:	2500      	movs	r5, #0
10002ac8:	b089      	sub	sp, #36	; 0x24
10002aca:	0004      	movs	r4, r0
10002acc:	2209      	movs	r2, #9
10002ace:	2100      	movs	r1, #0
10002ad0:	a801      	add	r0, sp, #4
10002ad2:	9500      	str	r5, [sp, #0]
10002ad4:	f7ff fb20 	bl	10002118 <__wrap_memset>
10002ad8:	2209      	movs	r2, #9
10002ada:	2100      	movs	r1, #0
10002adc:	a805      	add	r0, sp, #20
10002ade:	9504      	str	r5, [sp, #16]
10002ae0:	f7ff fb1a 	bl	10002118 <__wrap_memset>
10002ae4:	234b      	movs	r3, #75	; 0x4b
10002ae6:	466a      	mov	r2, sp
10002ae8:	4668      	mov	r0, sp
10002aea:	7013      	strb	r3, [r2, #0]
10002aec:	a904      	add	r1, sp, #16
10002aee:	220d      	movs	r2, #13
10002af0:	f002 fad6 	bl	100050a0 <__flash_do_cmd_veneer>
10002af4:	2115      	movs	r1, #21
10002af6:	2208      	movs	r2, #8
10002af8:	0020      	movs	r0, r4
10002afa:	4469      	add	r1, sp
10002afc:	f7ff fb12 	bl	10002124 <__wrap___aeabi_memcpy>
10002b00:	b009      	add	sp, #36	; 0x24
10002b02:	bd30      	pop	{r4, r5, pc}

10002b04 <dcd_int_enable>:
10002b04:	b510      	push	{r4, lr}
10002b06:	2101      	movs	r1, #1
10002b08:	2005      	movs	r0, #5
10002b0a:	f7fd fdd9 	bl	100006c0 <irq_set_enabled>
10002b0e:	bd10      	pop	{r4, pc}

10002b10 <dcd_set_address>:
10002b10:	b510      	push	{r4, lr}
10002b12:	2200      	movs	r2, #0
10002b14:	2100      	movs	r1, #0
10002b16:	4802      	ldr	r0, [pc, #8]	; (10002b20 <dcd_set_address+0x10>)
10002b18:	f000 f95a 	bl	10002dd0 <hw_endpoint_xfer_start>
10002b1c:	bd10      	pop	{r4, pc}
10002b1e:	46c0      	nop			; (mov r8, r8)
10002b20:	200020d4 	.word	0x200020d4

10002b24 <dcd_connect>:
10002b24:	2280      	movs	r2, #128	; 0x80
10002b26:	4b02      	ldr	r3, [pc, #8]	; (10002b30 <dcd_connect+0xc>)
10002b28:	0252      	lsls	r2, r2, #9
10002b2a:	64da      	str	r2, [r3, #76]	; 0x4c
10002b2c:	4770      	bx	lr
10002b2e:	46c0      	nop			; (mov r8, r8)
10002b30:	50112000 	.word	0x50112000

10002b34 <dcd_init>:
10002b34:	b5f0      	push	{r4, r5, r6, r7, lr}
10002b36:	46c6      	mov	lr, r8
10002b38:	b500      	push	{lr}
10002b3a:	0006      	movs	r6, r0
10002b3c:	f000 f922 	bl	10002d84 <rp2040_usb_init>
10002b40:	230c      	movs	r3, #12
10002b42:	4d1b      	ldr	r5, [pc, #108]	; (10002bb0 <dcd_init+0x7c>)
10002b44:	22ff      	movs	r2, #255	; 0xff
10002b46:	67ab      	str	r3, [r5, #120]	; 0x78
10002b48:	2005      	movs	r0, #5
10002b4a:	491a      	ldr	r1, [pc, #104]	; (10002bb4 <dcd_init+0x80>)
10002b4c:	f7fd fe1a 	bl	10000784 <irq_add_shared_handler>
10002b50:	2340      	movs	r3, #64	; 0x40
10002b52:	4698      	mov	r8, r3
10002b54:	4c18      	ldr	r4, [pc, #96]	; (10002bb8 <dcd_init+0x84>)
10002b56:	2240      	movs	r2, #64	; 0x40
10002b58:	2100      	movs	r1, #0
10002b5a:	0020      	movs	r0, r4
10002b5c:	f7ff fadc 	bl	10002118 <__wrap_memset>
10002b60:	4643      	mov	r3, r8
10002b62:	2701      	movs	r7, #1
10002b64:	8323      	strh	r3, [r4, #24]
10002b66:	2121      	movs	r1, #33	; 0x21
10002b68:	2300      	movs	r3, #0
10002b6a:	4a14      	ldr	r2, [pc, #80]	; (10002bbc <dcd_init+0x88>)
10002b6c:	7067      	strb	r7, [r4, #1]
10002b6e:	60a2      	str	r2, [r4, #8]
10002b70:	6013      	str	r3, [r2, #0]
10002b72:	5463      	strb	r3, [r4, r1]
10002b74:	315f      	adds	r1, #95	; 0x5f
10002b76:	8461      	strh	r1, [r4, #34]	; 0x22
10002b78:	4641      	mov	r1, r8
10002b7a:	8721      	strh	r1, [r4, #56]	; 0x38
10002b7c:	3905      	subs	r1, #5
10002b7e:	5463      	strb	r3, [r4, r1]
10002b80:	4a0f      	ldr	r2, [pc, #60]	; (10002bc0 <dcd_init+0x8c>)
10002b82:	4910      	ldr	r1, [pc, #64]	; (10002bc4 <dcd_init+0x90>)
10002b84:	6063      	str	r3, [r4, #4]
10002b86:	60e2      	str	r2, [r4, #12]
10002b88:	62a1      	str	r1, [r4, #40]	; 0x28
10002b8a:	600b      	str	r3, [r1, #0]
10002b8c:	6263      	str	r3, [r4, #36]	; 0x24
10002b8e:	62e2      	str	r2, [r4, #44]	; 0x2c
10002b90:	f002 fa9e 	bl	100050d0 <__reset_non_control_endpoints_veneer>
10002b94:	2380      	movs	r3, #128	; 0x80
10002b96:	059b      	lsls	r3, r3, #22
10002b98:	642f      	str	r7, [r5, #64]	; 0x40
10002b9a:	64eb      	str	r3, [r5, #76]	; 0x4c
10002b9c:	2390      	movs	r3, #144	; 0x90
10002b9e:	4a0a      	ldr	r2, [pc, #40]	; (10002bc8 <dcd_init+0x94>)
10002ba0:	0030      	movs	r0, r6
10002ba2:	50ea      	str	r2, [r5, r3]
10002ba4:	f7ff ffbe 	bl	10002b24 <dcd_connect>
10002ba8:	bc80      	pop	{r7}
10002baa:	46b8      	mov	r8, r7
10002bac:	bdf0      	pop	{r4, r5, r6, r7, pc}
10002bae:	46c0      	nop			; (mov r8, r8)
10002bb0:	50110000 	.word	0x50110000
10002bb4:	200004f9 	.word	0x200004f9
10002bb8:	200020b4 	.word	0x200020b4
10002bbc:	50100084 	.word	0x50100084
10002bc0:	50100100 	.word	0x50100100
10002bc4:	50100080 	.word	0x50100080
10002bc8:	0001d010 	.word	0x0001d010

10002bcc <dcd_edpt0_status_complete>:
10002bcc:	780b      	ldrb	r3, [r1, #0]
10002bce:	065b      	lsls	r3, r3, #25
10002bd0:	d102      	bne.n	10002bd8 <dcd_edpt0_status_complete+0xc>
10002bd2:	784b      	ldrb	r3, [r1, #1]
10002bd4:	2b05      	cmp	r3, #5
10002bd6:	d000      	beq.n	10002bda <dcd_edpt0_status_complete+0xe>
10002bd8:	4770      	bx	lr
10002bda:	788a      	ldrb	r2, [r1, #2]
10002bdc:	4b01      	ldr	r3, [pc, #4]	; (10002be4 <dcd_edpt0_status_complete+0x18>)
10002bde:	601a      	str	r2, [r3, #0]
10002be0:	e7fa      	b.n	10002bd8 <dcd_edpt0_status_complete+0xc>
10002be2:	46c0      	nop			; (mov r8, r8)
10002be4:	50110000 	.word	0x50110000

10002be8 <dcd_edpt_open>:
10002be8:	b5f0      	push	{r4, r5, r6, r7, lr}
10002bea:	46c6      	mov	lr, r8
10002bec:	b500      	push	{lr}
10002bee:	794b      	ldrb	r3, [r1, #5]
10002bf0:	790c      	ldrb	r4, [r1, #4]
10002bf2:	021b      	lsls	r3, r3, #8
10002bf4:	7888      	ldrb	r0, [r1, #2]
10002bf6:	4323      	orrs	r3, r4
10002bf8:	78cc      	ldrb	r4, [r1, #3]
10002bfa:	217f      	movs	r1, #127	; 0x7f
10002bfc:	07a4      	lsls	r4, r4, #30
10002bfe:	4001      	ands	r1, r0
10002c00:	09c5      	lsrs	r5, r0, #7
10002c02:	0fa2      	lsrs	r2, r4, #30
10002c04:	004f      	lsls	r7, r1, #1
10002c06:	0014      	movs	r4, r2
10002c08:	4e32      	ldr	r6, [pc, #200]	; (10002cd4 <dcd_edpt_open+0xec>)
10002c0a:	197a      	adds	r2, r7, r5
10002c0c:	0152      	lsls	r2, r2, #5
10002c0e:	18b2      	adds	r2, r6, r2
10002c10:	7090      	strb	r0, [r2, #2]
10002c12:	2001      	movs	r0, #1
10002c14:	4068      	eors	r0, r5
10002c16:	7050      	strb	r0, [r2, #1]
10002c18:	2000      	movs	r0, #0
10002c1a:	055b      	lsls	r3, r3, #21
10002c1c:	0d5b      	lsrs	r3, r3, #21
10002c1e:	70d0      	strb	r0, [r2, #3]
10002c20:	8313      	strh	r3, [r2, #24]
10002c22:	76d4      	strb	r4, [r2, #27]
10002c24:	4680      	mov	r8, r0
10002c26:	00ca      	lsls	r2, r1, #3
10002c28:	2d01      	cmp	r5, #1
10002c2a:	d033      	beq.n	10002c94 <dcd_edpt_open+0xac>
10002c2c:	482a      	ldr	r0, [pc, #168]	; (10002cd8 <dcd_edpt_open+0xf0>)
10002c2e:	4684      	mov	ip, r0
10002c30:	0188      	lsls	r0, r1, #6
10002c32:	4462      	add	r2, ip
10002c34:	4684      	mov	ip, r0
10002c36:	44b4      	add	ip, r6
10002c38:	4660      	mov	r0, ip
10002c3a:	6082      	str	r2, [r0, #8]
10002c3c:	4640      	mov	r0, r8
10002c3e:	6010      	str	r0, [r2, #0]
10002c40:	2900      	cmp	r1, #0
10002c42:	d033      	beq.n	10002cac <dcd_edpt_open+0xc4>
10002c44:	4a25      	ldr	r2, [pc, #148]	; (10002cdc <dcd_edpt_open+0xf4>)
10002c46:	00c9      	lsls	r1, r1, #3
10002c48:	4690      	mov	r8, r2
10002c4a:	4662      	mov	r2, ip
10002c4c:	4441      	add	r1, r8
10002c4e:	6051      	str	r1, [r2, #4]
10002c50:	223f      	movs	r2, #63	; 0x3f
10002c52:	333f      	adds	r3, #63	; 0x3f
10002c54:	4393      	bics	r3, r2
10002c56:	2c02      	cmp	r4, #2
10002c58:	d100      	bne.n	10002c5c <dcd_edpt_open+0x74>
10002c5a:	005b      	lsls	r3, r3, #1
10002c5c:	4820      	ldr	r0, [pc, #128]	; (10002ce0 <dcd_edpt_open+0xf8>)
10002c5e:	197a      	adds	r2, r7, r5
10002c60:	6801      	ldr	r1, [r0, #0]
10002c62:	0152      	lsls	r2, r2, #5
10002c64:	18b2      	adds	r2, r6, r2
10002c66:	60d1      	str	r1, [r2, #12]
10002c68:	4a1e      	ldr	r2, [pc, #120]	; (10002ce4 <dcd_edpt_open+0xfc>)
10002c6a:	18cb      	adds	r3, r1, r3
10002c6c:	6003      	str	r3, [r0, #0]
10002c6e:	4051      	eors	r1, r2
10002c70:	4053      	eors	r3, r2
10002c72:	2280      	movs	r2, #128	; 0x80
10002c74:	4688      	mov	r8, r1
10002c76:	0152      	lsls	r2, r2, #5
10002c78:	4293      	cmp	r3, r2
10002c7a:	d828      	bhi.n	10002cce <dcd_edpt_open+0xe6>
10002c7c:	4643      	mov	r3, r8
10002c7e:	06a4      	lsls	r4, r4, #26
10002c80:	431c      	orrs	r4, r3
10002c82:	2380      	movs	r3, #128	; 0x80
10002c84:	197f      	adds	r7, r7, r5
10002c86:	017f      	lsls	r7, r7, #5
10002c88:	061b      	lsls	r3, r3, #24
10002c8a:	19f6      	adds	r6, r6, r7
10002c8c:	431c      	orrs	r4, r3
10002c8e:	6873      	ldr	r3, [r6, #4]
10002c90:	601c      	str	r4, [r3, #0]
10002c92:	e011      	b.n	10002cb8 <dcd_edpt_open+0xd0>
10002c94:	4814      	ldr	r0, [pc, #80]	; (10002ce8 <dcd_edpt_open+0x100>)
10002c96:	4684      	mov	ip, r0
10002c98:	0188      	lsls	r0, r1, #6
10002c9a:	4462      	add	r2, ip
10002c9c:	4684      	mov	ip, r0
10002c9e:	44b4      	add	ip, r6
10002ca0:	4660      	mov	r0, ip
10002ca2:	6282      	str	r2, [r0, #40]	; 0x28
10002ca4:	4640      	mov	r0, r8
10002ca6:	6010      	str	r0, [r2, #0]
10002ca8:	2900      	cmp	r1, #0
10002caa:	d109      	bne.n	10002cc0 <dcd_edpt_open+0xd8>
10002cac:	2300      	movs	r3, #0
10002cae:	016d      	lsls	r5, r5, #5
10002cb0:	1976      	adds	r6, r6, r5
10002cb2:	6073      	str	r3, [r6, #4]
10002cb4:	4b0d      	ldr	r3, [pc, #52]	; (10002cec <dcd_edpt_open+0x104>)
10002cb6:	60f3      	str	r3, [r6, #12]
10002cb8:	2001      	movs	r0, #1
10002cba:	bc80      	pop	{r7}
10002cbc:	46b8      	mov	r8, r7
10002cbe:	bdf0      	pop	{r4, r5, r6, r7, pc}
10002cc0:	4a08      	ldr	r2, [pc, #32]	; (10002ce4 <dcd_edpt_open+0xfc>)
10002cc2:	00c9      	lsls	r1, r1, #3
10002cc4:	4690      	mov	r8, r2
10002cc6:	4662      	mov	r2, ip
10002cc8:	4441      	add	r1, r8
10002cca:	6251      	str	r1, [r2, #36]	; 0x24
10002ccc:	e7c0      	b.n	10002c50 <dcd_edpt_open+0x68>
10002cce:	f7ff f8c1 	bl	10001e54 <hard_assertion_failure>
10002cd2:	e7d3      	b.n	10002c7c <dcd_edpt_open+0x94>
10002cd4:	200020b4 	.word	0x200020b4
10002cd8:	50100084 	.word	0x50100084
10002cdc:	50100004 	.word	0x50100004
10002ce0:	200024bc 	.word	0x200024bc
10002ce4:	50100000 	.word	0x50100000
10002ce8:	50100080 	.word	0x50100080
10002cec:	50100100 	.word	0x50100100

10002cf0 <dcd_edpt_close_all>:
10002cf0:	b510      	push	{r4, lr}
10002cf2:	f002 f9ed 	bl	100050d0 <__reset_non_control_endpoints_veneer>
10002cf6:	bd10      	pop	{r4, pc}

10002cf8 <dcd_edpt_xfer>:
10002cf8:	b510      	push	{r4, lr}
10002cfa:	207f      	movs	r0, #127	; 0x7f
10002cfc:	000c      	movs	r4, r1
10002cfe:	4020      	ands	r0, r4
10002d00:	0040      	lsls	r0, r0, #1
10002d02:	09e4      	lsrs	r4, r4, #7
10002d04:	0011      	movs	r1, r2
10002d06:	1900      	adds	r0, r0, r4
10002d08:	001a      	movs	r2, r3
10002d0a:	4b03      	ldr	r3, [pc, #12]	; (10002d18 <dcd_edpt_xfer+0x20>)
10002d0c:	0140      	lsls	r0, r0, #5
10002d0e:	18c0      	adds	r0, r0, r3
10002d10:	f000 f85e 	bl	10002dd0 <hw_endpoint_xfer_start>
10002d14:	2001      	movs	r0, #1
10002d16:	bd10      	pop	{r4, pc}
10002d18:	200020b4 	.word	0x200020b4

10002d1c <dcd_edpt_stall>:
10002d1c:	227f      	movs	r2, #127	; 0x7f
10002d1e:	0013      	movs	r3, r2
10002d20:	b510      	push	{r4, lr}
10002d22:	400b      	ands	r3, r1
10002d24:	420a      	tst	r2, r1
10002d26:	d00b      	beq.n	10002d40 <dcd_edpt_stall+0x24>
10002d28:	09c9      	lsrs	r1, r1, #7
10002d2a:	2280      	movs	r2, #128	; 0x80
10002d2c:	0058      	lsls	r0, r3, #1
10002d2e:	1840      	adds	r0, r0, r1
10002d30:	4906      	ldr	r1, [pc, #24]	; (10002d4c <dcd_edpt_stall+0x30>)
10002d32:	0140      	lsls	r0, r0, #5
10002d34:	1840      	adds	r0, r0, r1
10002d36:	0112      	lsls	r2, r2, #4
10002d38:	2100      	movs	r1, #0
10002d3a:	f002 fa09 	bl	10005150 <___hw_endpoint_buffer_control_update32_veneer>
10002d3e:	bd10      	pop	{r4, pc}
10002d40:	2202      	movs	r2, #2
10002d42:	4803      	ldr	r0, [pc, #12]	; (10002d50 <dcd_edpt_stall+0x34>)
10002d44:	09c9      	lsrs	r1, r1, #7
10002d46:	1a52      	subs	r2, r2, r1
10002d48:	6682      	str	r2, [r0, #104]	; 0x68
10002d4a:	e7ee      	b.n	10002d2a <dcd_edpt_stall+0xe>
10002d4c:	200020b4 	.word	0x200020b4
10002d50:	50112000 	.word	0x50112000

10002d54 <dcd_edpt_clear_stall>:
10002d54:	227f      	movs	r2, #127	; 0x7f
10002d56:	0010      	movs	r0, r2
10002d58:	b510      	push	{r4, lr}
10002d5a:	4008      	ands	r0, r1
10002d5c:	420a      	tst	r2, r1
10002d5e:	d100      	bne.n	10002d62 <dcd_edpt_clear_stall+0xe>
10002d60:	bd10      	pop	{r4, pc}
10002d62:	2300      	movs	r3, #0
10002d64:	09c9      	lsrs	r1, r1, #7
10002d66:	0040      	lsls	r0, r0, #1
10002d68:	1840      	adds	r0, r0, r1
10002d6a:	4904      	ldr	r1, [pc, #16]	; (10002d7c <dcd_edpt_clear_stall+0x28>)
10002d6c:	0140      	lsls	r0, r0, #5
10002d6e:	1808      	adds	r0, r1, r0
10002d70:	2200      	movs	r2, #0
10002d72:	4903      	ldr	r1, [pc, #12]	; (10002d80 <dcd_edpt_clear_stall+0x2c>)
10002d74:	70c3      	strb	r3, [r0, #3]
10002d76:	f002 f9eb 	bl	10005150 <___hw_endpoint_buffer_control_update32_veneer>
10002d7a:	e7f1      	b.n	10002d60 <dcd_edpt_clear_stall+0xc>
10002d7c:	200020b4 	.word	0x200020b4
10002d80:	fffff7ff 	.word	0xfffff7ff

10002d84 <rp2040_usb_init>:
10002d84:	2280      	movs	r2, #128	; 0x80
10002d86:	4b0d      	ldr	r3, [pc, #52]	; (10002dbc <rp2040_usb_init+0x38>)
10002d88:	0452      	lsls	r2, r2, #17
10002d8a:	b510      	push	{r4, lr}
10002d8c:	601a      	str	r2, [r3, #0]
10002d8e:	4b0c      	ldr	r3, [pc, #48]	; (10002dc0 <rp2040_usb_init+0x3c>)
10002d90:	490c      	ldr	r1, [pc, #48]	; (10002dc4 <rp2040_usb_init+0x40>)
10002d92:	601a      	str	r2, [r3, #0]
10002d94:	0010      	movs	r0, r2
10002d96:	688b      	ldr	r3, [r1, #8]
10002d98:	4398      	bics	r0, r3
10002d9a:	d1fb      	bne.n	10002d94 <rp2040_usb_init+0x10>
10002d9c:	4c0a      	ldr	r4, [pc, #40]	; (10002dc8 <rp2040_usb_init+0x44>)
10002d9e:	229c      	movs	r2, #156	; 0x9c
10002da0:	2100      	movs	r1, #0
10002da2:	0020      	movs	r0, r4
10002da4:	f7ff f9b8 	bl	10002118 <__wrap_memset>
10002da8:	2280      	movs	r2, #128	; 0x80
10002daa:	2100      	movs	r1, #0
10002dac:	0152      	lsls	r2, r2, #5
10002dae:	4807      	ldr	r0, [pc, #28]	; (10002dcc <rp2040_usb_init+0x48>)
10002db0:	f7ff f9b2 	bl	10002118 <__wrap_memset>
10002db4:	2309      	movs	r3, #9
10002db6:	6763      	str	r3, [r4, #116]	; 0x74
10002db8:	bd10      	pop	{r4, pc}
10002dba:	46c0      	nop			; (mov r8, r8)
10002dbc:	4000e000 	.word	0x4000e000
10002dc0:	4000f000 	.word	0x4000f000
10002dc4:	4000c000 	.word	0x4000c000
10002dc8:	50110000 	.word	0x50110000
10002dcc:	50100000 	.word	0x50100000

10002dd0 <hw_endpoint_xfer_start>:
10002dd0:	b570      	push	{r4, r5, r6, lr}
10002dd2:	7e83      	ldrb	r3, [r0, #26]
10002dd4:	0004      	movs	r4, r0
10002dd6:	000d      	movs	r5, r1
10002dd8:	0016      	movs	r6, r2
10002dda:	2b00      	cmp	r3, #0
10002ddc:	d117      	bne.n	10002e0e <hw_endpoint_xfer_start+0x3e>
10002dde:	2300      	movs	r3, #0
10002de0:	82e3      	strh	r3, [r4, #22]
10002de2:	3301      	adds	r3, #1
10002de4:	0020      	movs	r0, r4
10002de6:	82a6      	strh	r6, [r4, #20]
10002de8:	76a3      	strb	r3, [r4, #26]
10002dea:	6125      	str	r5, [r4, #16]
10002dec:	f002 f968 	bl	100050c0 <__e15_is_bulkin_ep_veneer>
10002df0:	2800      	cmp	r0, #0
10002df2:	d004      	beq.n	10002dfe <hw_endpoint_xfer_start+0x2e>
10002df4:	2180      	movs	r1, #128	; 0x80
10002df6:	2390      	movs	r3, #144	; 0x90
10002df8:	4a08      	ldr	r2, [pc, #32]	; (10002e1c <hw_endpoint_xfer_start+0x4c>)
10002dfa:	0289      	lsls	r1, r1, #10
10002dfc:	50d1      	str	r1, [r2, r3]
10002dfe:	0020      	movs	r0, r4
10002e00:	f002 f976 	bl	100050f0 <__e15_is_critical_frame_period_veneer>
10002e04:	2800      	cmp	r0, #0
10002e06:	d005      	beq.n	10002e14 <hw_endpoint_xfer_start+0x44>
10002e08:	2301      	movs	r3, #1
10002e0a:	7723      	strb	r3, [r4, #28]
10002e0c:	bd70      	pop	{r4, r5, r6, pc}
10002e0e:	f002 f997 	bl	10005140 <__hw_endpoint_reset_transfer_veneer>
10002e12:	e7e4      	b.n	10002dde <hw_endpoint_xfer_start+0xe>
10002e14:	0020      	movs	r0, r4
10002e16:	f002 f98b 	bl	10005130 <__hw_endpoint_start_next_buffer_veneer>
10002e1a:	e7f7      	b.n	10002e0c <hw_endpoint_xfer_start+0x3c>
10002e1c:	50112000 	.word	0x50112000

10002e20 <tud_mounted>:
10002e20:	4b02      	ldr	r3, [pc, #8]	; (10002e2c <tud_mounted+0xc>)
10002e22:	7858      	ldrb	r0, [r3, #1]
10002e24:	1e43      	subs	r3, r0, #1
10002e26:	4198      	sbcs	r0, r3
10002e28:	b2c0      	uxtb	r0, r0
10002e2a:	4770      	bx	lr
10002e2c:	20001dd4 	.word	0x20001dd4

10002e30 <tud_suspended>:
10002e30:	4b02      	ldr	r3, [pc, #8]	; (10002e3c <tud_suspended+0xc>)
10002e32:	7818      	ldrb	r0, [r3, #0]
10002e34:	0740      	lsls	r0, r0, #29
10002e36:	0fc0      	lsrs	r0, r0, #31
10002e38:	4770      	bx	lr
10002e3a:	46c0      	nop			; (mov r8, r8)
10002e3c:	20001dd4 	.word	0x20001dd4

10002e40 <tud_inited>:
10002e40:	4b03      	ldr	r3, [pc, #12]	; (10002e50 <tud_inited+0x10>)
10002e42:	7818      	ldrb	r0, [r3, #0]
10002e44:	38ff      	subs	r0, #255	; 0xff
10002e46:	1e43      	subs	r3, r0, #1
10002e48:	4198      	sbcs	r0, r3
10002e4a:	b2c0      	uxtb	r0, r0
10002e4c:	4770      	bx	lr
10002e4e:	46c0      	nop			; (mov r8, r8)
10002e50:	20000eec 	.word	0x20000eec

10002e54 <tud_init>:
10002e54:	b5f8      	push	{r3, r4, r5, r6, r7, lr}
10002e56:	46ce      	mov	lr, r9
10002e58:	4647      	mov	r7, r8
10002e5a:	b580      	push	{r7, lr}
10002e5c:	4e2c      	ldr	r6, [pc, #176]	; (10002f10 <tud_init+0xbc>)
10002e5e:	0005      	movs	r5, r0
10002e60:	7833      	ldrb	r3, [r6, #0]
10002e62:	2001      	movs	r0, #1
10002e64:	2bff      	cmp	r3, #255	; 0xff
10002e66:	d003      	beq.n	10002e70 <tud_init+0x1c>
10002e68:	bcc0      	pop	{r6, r7}
10002e6a:	46b9      	mov	r9, r7
10002e6c:	46b0      	mov	r8, r6
10002e6e:	bdf8      	pop	{r3, r4, r5, r6, r7, pc}
10002e70:	2253      	movs	r2, #83	; 0x53
10002e72:	2100      	movs	r1, #0
10002e74:	4827      	ldr	r0, [pc, #156]	; (10002f14 <tud_init+0xc0>)
10002e76:	f7ff f94f 	bl	10002118 <__wrap_memset>
10002e7a:	4c27      	ldr	r4, [pc, #156]	; (10002f18 <tud_init+0xc4>)
10002e7c:	0020      	movs	r0, r4
10002e7e:	f7fd fed5 	bl	10000c2c <mutex_init>
10002e82:	4b26      	ldr	r3, [pc, #152]	; (10002f1c <tud_init+0xc8>)
10002e84:	601c      	str	r4, [r3, #0]
10002e86:	4c26      	ldr	r4, [pc, #152]	; (10002f20 <tud_init+0xcc>)
10002e88:	0020      	movs	r0, r4
10002e8a:	3014      	adds	r0, #20
10002e8c:	f7fd feea 	bl	10000c64 <critical_section_init>
10002e90:	0020      	movs	r0, r4
10002e92:	f001 fbd1 	bl	10004638 <tu_fifo_clear>
10002e96:	4b23      	ldr	r3, [pc, #140]	; (10002f24 <tud_init+0xd0>)
10002e98:	4f23      	ldr	r7, [pc, #140]	; (10002f28 <tud_init+0xd4>)
10002e9a:	601c      	str	r4, [r3, #0]
10002e9c:	4b23      	ldr	r3, [pc, #140]	; (10002f2c <tud_init+0xd8>)
10002e9e:	4698      	mov	r8, r3
10002ea0:	2b00      	cmp	r3, #0
10002ea2:	d004      	beq.n	10002eae <tud_init+0x5a>
10002ea4:	0038      	movs	r0, r7
10002ea6:	f7ff faf9 	bl	1000249c <usbd_app_driver_get_cb>
10002eaa:	4b21      	ldr	r3, [pc, #132]	; (10002f30 <tud_init+0xdc>)
10002eac:	6018      	str	r0, [r3, #0]
10002eae:	4642      	mov	r2, r8
10002eb0:	2400      	movs	r4, #0
10002eb2:	783b      	ldrb	r3, [r7, #0]
10002eb4:	2a00      	cmp	r2, #0
10002eb6:	d023      	beq.n	10002f00 <tud_init+0xac>
10002eb8:	4a1e      	ldr	r2, [pc, #120]	; (10002f34 <tud_init+0xe0>)
10002eba:	4690      	mov	r8, r2
10002ebc:	4a1c      	ldr	r2, [pc, #112]	; (10002f30 <tud_init+0xdc>)
10002ebe:	4691      	mov	r9, r2
10002ec0:	42a3      	cmp	r3, r4
10002ec2:	d812      	bhi.n	10002eea <tud_init+0x96>
10002ec4:	d10f      	bne.n	10002ee6 <tud_init+0x92>
10002ec6:	4643      	mov	r3, r8
10002ec8:	4798      	blx	r3
10002eca:	3401      	adds	r4, #1
10002ecc:	783b      	ldrb	r3, [r7, #0]
10002ece:	b2e4      	uxtb	r4, r4
10002ed0:	42a3      	cmp	r3, r4
10002ed2:	d2f5      	bcs.n	10002ec0 <tud_init+0x6c>
10002ed4:	0028      	movs	r0, r5
10002ed6:	7035      	strb	r5, [r6, #0]
10002ed8:	f7ff fe2c 	bl	10002b34 <dcd_init>
10002edc:	0028      	movs	r0, r5
10002ede:	f7ff fe11 	bl	10002b04 <dcd_int_enable>
10002ee2:	2001      	movs	r0, #1
10002ee4:	e7c0      	b.n	10002e68 <tud_init+0x14>
10002ee6:	2000      	movs	r0, #0
10002ee8:	e7be      	b.n	10002e68 <tud_init+0x14>
10002eea:	464a      	mov	r2, r9
10002eec:	6812      	ldr	r2, [r2, #0]
10002eee:	0063      	lsls	r3, r4, #1
10002ef0:	4694      	mov	ip, r2
10002ef2:	191b      	adds	r3, r3, r4
10002ef4:	00db      	lsls	r3, r3, #3
10002ef6:	4463      	add	r3, ip
10002ef8:	2b00      	cmp	r3, #0
10002efa:	d0f4      	beq.n	10002ee6 <tud_init+0x92>
10002efc:	681b      	ldr	r3, [r3, #0]
10002efe:	e7e3      	b.n	10002ec8 <tud_init+0x74>
10002f00:	f000 feee 	bl	10003ce0 <cdcd_init>
10002f04:	783b      	ldrb	r3, [r7, #0]
10002f06:	2000      	movs	r0, #0
10002f08:	2b00      	cmp	r3, #0
10002f0a:	d1ad      	bne.n	10002e68 <tud_init+0x14>
10002f0c:	e7e2      	b.n	10002ed4 <tud_init+0x80>
10002f0e:	46c0      	nop			; (mov r8, r8)
10002f10:	20000eec 	.word	0x20000eec
10002f14:	20001dd4 	.word	0x20001dd4
10002f18:	20001d8c 	.word	0x20001d8c
10002f1c:	20001e28 	.word	0x20001e28
10002f20:	20000ed0 	.word	0x20000ed0
10002f24:	20001e2c 	.word	0x20001e2c
10002f28:	20002511 	.word	0x20002511
10002f2c:	1000249d 	.word	0x1000249d
10002f30:	20001aac 	.word	0x20001aac
10002f34:	10003ce1 	.word	0x10003ce1

10002f38 <tud_task_ext>:
10002f38:	b5f0      	push	{r4, r5, r6, r7, lr}
10002f3a:	46de      	mov	lr, fp
10002f3c:	4657      	mov	r7, sl
10002f3e:	464e      	mov	r6, r9
10002f40:	4645      	mov	r5, r8
10002f42:	b5e0      	push	{r5, r6, r7, lr}
10002f44:	b08b      	sub	sp, #44	; 0x2c
10002f46:	f001 f8af 	bl	100040a8 <tusb_inited>
10002f4a:	2800      	cmp	r0, #0
10002f4c:	d100      	bne.n	10002f50 <tud_task_ext+0x18>
10002f4e:	e10f      	b.n	10003170 <tud_task_ext+0x238>
10002f50:	4bc7      	ldr	r3, [pc, #796]	; (10003270 <tud_task_ext+0x338>)
10002f52:	4dc8      	ldr	r5, [pc, #800]	; (10003274 <tud_task_ext+0x33c>)
10002f54:	4699      	mov	r9, r3
10002f56:	4bc8      	ldr	r3, [pc, #800]	; (10003278 <tud_task_ext+0x340>)
10002f58:	ac07      	add	r4, sp, #28
10002f5a:	469b      	mov	fp, r3
10002f5c:	682e      	ldr	r6, [r5, #0]
10002f5e:	6972      	ldr	r2, [r6, #20]
10002f60:	f3ef 8110 	mrs	r1, PRIMASK
10002f64:	b672      	cpsid	i
10002f66:	6813      	ldr	r3, [r2, #0]
10002f68:	2b00      	cmp	r3, #0
10002f6a:	d0fc      	beq.n	10002f66 <tud_task_ext+0x2e>
10002f6c:	f3bf 8f5f 	dmb	sy
10002f70:	61b1      	str	r1, [r6, #24]
10002f72:	0030      	movs	r0, r6
10002f74:	0021      	movs	r1, r4
10002f76:	f001 f9a1 	bl	100042bc <tu_fifo_read>
10002f7a:	6972      	ldr	r2, [r6, #20]
10002f7c:	69b3      	ldr	r3, [r6, #24]
10002f7e:	f3bf 8f5f 	dmb	sy
10002f82:	2100      	movs	r1, #0
10002f84:	6011      	str	r1, [r2, #0]
10002f86:	f383 8810 	msr	PRIMASK, r3
10002f8a:	2800      	cmp	r0, #0
10002f8c:	d100      	bne.n	10002f90 <tud_task_ext+0x58>
10002f8e:	e0ef      	b.n	10003170 <tud_task_ext+0x238>
10002f90:	7863      	ldrb	r3, [r4, #1]
10002f92:	2b08      	cmp	r3, #8
10002f94:	d8e2      	bhi.n	10002f5c <tud_task_ext+0x24>
10002f96:	464a      	mov	r2, r9
10002f98:	009b      	lsls	r3, r3, #2
10002f9a:	58d3      	ldr	r3, [r2, r3]
10002f9c:	469f      	mov	pc, r3
10002f9e:	6863      	ldr	r3, [r4, #4]
10002fa0:	2b00      	cmp	r3, #0
10002fa2:	d0db      	beq.n	10002f5c <tud_task_ext+0x24>
10002fa4:	68a0      	ldr	r0, [r4, #8]
10002fa6:	4798      	blx	r3
10002fa8:	e7d8      	b.n	10002f5c <tud_task_ext+0x24>
10002faa:	227f      	movs	r2, #127	; 0x7f
10002fac:	7921      	ldrb	r1, [r4, #4]
10002fae:	4eb2      	ldr	r6, [pc, #712]	; (10003278 <tud_task_ext+0x340>)
10002fb0:	400a      	ands	r2, r1
10002fb2:	0050      	lsls	r0, r2, #1
10002fb4:	09cb      	lsrs	r3, r1, #7
10002fb6:	1836      	adds	r6, r6, r0
10002fb8:	18f6      	adds	r6, r6, r3
10002fba:	0030      	movs	r0, r6
10002fbc:	2701      	movs	r7, #1
10002fbe:	3030      	adds	r0, #48	; 0x30
10002fc0:	78c3      	ldrb	r3, [r0, #3]
10002fc2:	43bb      	bics	r3, r7
10002fc4:	70c3      	strb	r3, [r0, #3]
10002fc6:	78c3      	ldrb	r3, [r0, #3]
10002fc8:	3703      	adds	r7, #3
10002fca:	43bb      	bics	r3, r7
10002fcc:	70c3      	strb	r3, [r0, #3]
10002fce:	2a00      	cmp	r2, #0
10002fd0:	d100      	bne.n	10002fd4 <tud_task_ext+0x9c>
10002fd2:	e0f2      	b.n	100031ba <tud_task_ext+0x282>
10002fd4:	4aa9      	ldr	r2, [pc, #676]	; (1000327c <tud_task_ext+0x344>)
10002fd6:	7cf3      	ldrb	r3, [r6, #19]
10002fd8:	2a00      	cmp	r2, #0
10002fda:	d006      	beq.n	10002fea <tud_task_ext+0xb2>
10002fdc:	4aa8      	ldr	r2, [pc, #672]	; (10003280 <tud_task_ext+0x348>)
10002fde:	7812      	ldrb	r2, [r2, #0]
10002fe0:	4293      	cmp	r3, r2
10002fe2:	d200      	bcs.n	10002fe6 <tud_task_ext+0xae>
10002fe4:	e160      	b.n	100032a8 <tud_task_ext+0x370>
10002fe6:	1a9b      	subs	r3, r3, r2
10002fe8:	b2db      	uxtb	r3, r3
10002fea:	2b00      	cmp	r3, #0
10002fec:	d000      	beq.n	10002ff0 <tud_task_ext+0xb8>
10002fee:	e0bf      	b.n	10003170 <tud_task_ext+0x238>
10002ff0:	4ea4      	ldr	r6, [pc, #656]	; (10003284 <tud_task_ext+0x34c>)
10002ff2:	7962      	ldrb	r2, [r4, #5]
10002ff4:	7820      	ldrb	r0, [r4, #0]
10002ff6:	68a3      	ldr	r3, [r4, #8]
10002ff8:	47b0      	blx	r6
10002ffa:	e7af      	b.n	10002f5c <tud_task_ext+0x24>
10002ffc:	465b      	mov	r3, fp
10002ffe:	2201      	movs	r2, #1
10003000:	781b      	ldrb	r3, [r3, #0]
10003002:	2101      	movs	r1, #1
10003004:	4313      	orrs	r3, r2
10003006:	465a      	mov	r2, fp
10003008:	7013      	strb	r3, [r2, #0]
1000300a:	2333      	movs	r3, #51	; 0x33
1000300c:	4658      	mov	r0, fp
1000300e:	5cd2      	ldrb	r2, [r2, r3]
10003010:	465e      	mov	r6, fp
10003012:	438a      	bics	r2, r1
10003014:	54c2      	strb	r2, [r0, r3]
10003016:	5cc2      	ldrb	r2, [r0, r3]
10003018:	2004      	movs	r0, #4
1000301a:	4382      	bics	r2, r0
1000301c:	54f2      	strb	r2, [r6, r3]
1000301e:	3301      	adds	r3, #1
10003020:	5cf2      	ldrb	r2, [r6, r3]
10003022:	438a      	bics	r2, r1
10003024:	54f2      	strb	r2, [r6, r3]
10003026:	5cf2      	ldrb	r2, [r6, r3]
10003028:	4382      	bics	r2, r0
1000302a:	54f2      	strb	r2, [r6, r3]
1000302c:	7823      	ldrb	r3, [r4, #0]
1000302e:	2000      	movs	r0, #0
10003030:	469a      	mov	sl, r3
10003032:	f000 fd05 	bl	10003a40 <usbd_control_set_complete_callback>
10003036:	2260      	movs	r2, #96	; 0x60
10003038:	7923      	ldrb	r3, [r4, #4]
1000303a:	401a      	ands	r2, r3
1000303c:	2a60      	cmp	r2, #96	; 0x60
1000303e:	d00d      	beq.n	1000305c <tud_task_ext+0x124>
10003040:	2a40      	cmp	r2, #64	; 0x40
10003042:	d100      	bne.n	10003046 <tud_task_ext+0x10e>
10003044:	e0bf      	b.n	100031c6 <tud_task_ext+0x28e>
10003046:	06db      	lsls	r3, r3, #27
10003048:	0edb      	lsrs	r3, r3, #27
1000304a:	2b01      	cmp	r3, #1
1000304c:	d100      	bne.n	10003050 <tud_task_ext+0x118>
1000304e:	e136      	b.n	100032be <tud_task_ext+0x386>
10003050:	2b02      	cmp	r3, #2
10003052:	d100      	bne.n	10003056 <tud_task_ext+0x11e>
10003054:	e0d4      	b.n	10003200 <tud_task_ext+0x2c8>
10003056:	2b00      	cmp	r3, #0
10003058:	d100      	bne.n	1000305c <tud_task_ext+0x124>
1000305a:	e0c3      	b.n	100031e4 <tud_task_ext+0x2ac>
1000305c:	7820      	ldrb	r0, [r4, #0]
1000305e:	2100      	movs	r1, #0
10003060:	f7ff fe5c 	bl	10002d1c <dcd_edpt_stall>
10003064:	2180      	movs	r1, #128	; 0x80
10003066:	7820      	ldrb	r0, [r4, #0]
10003068:	f7ff fe58 	bl	10002d1c <dcd_edpt_stall>
1000306c:	e776      	b.n	10002f5c <tud_task_ext+0x24>
1000306e:	4e82      	ldr	r6, [pc, #520]	; (10003278 <tud_task_ext+0x340>)
10003070:	7833      	ldrb	r3, [r6, #0]
10003072:	07db      	lsls	r3, r3, #31
10003074:	d400      	bmi.n	10003078 <tud_task_ext+0x140>
10003076:	e771      	b.n	10002f5c <tud_task_ext+0x24>
10003078:	4b83      	ldr	r3, [pc, #524]	; (10003288 <tud_task_ext+0x350>)
1000307a:	2b00      	cmp	r3, #0
1000307c:	d100      	bne.n	10003080 <tud_task_ext+0x148>
1000307e:	e76d      	b.n	10002f5c <tud_task_ext+0x24>
10003080:	e000      	b.n	10003084 <tud_task_ext+0x14c>
10003082:	bf00      	nop
10003084:	e76a      	b.n	10002f5c <tud_task_ext+0x24>
10003086:	4e7c      	ldr	r6, [pc, #496]	; (10003278 <tud_task_ext+0x340>)
10003088:	7833      	ldrb	r3, [r6, #0]
1000308a:	07db      	lsls	r3, r3, #31
1000308c:	d400      	bmi.n	10003090 <tud_task_ext+0x158>
1000308e:	e765      	b.n	10002f5c <tud_task_ext+0x24>
10003090:	4b7e      	ldr	r3, [pc, #504]	; (1000328c <tud_task_ext+0x354>)
10003092:	2b00      	cmp	r3, #0
10003094:	d100      	bne.n	10003098 <tud_task_ext+0x160>
10003096:	e761      	b.n	10002f5c <tud_task_ext+0x24>
10003098:	7830      	ldrb	r0, [r6, #0]
1000309a:	0700      	lsls	r0, r0, #28
1000309c:	0fc0      	lsrs	r0, r0, #31
1000309e:	e000      	b.n	100030a2 <tud_task_ext+0x16a>
100030a0:	bf00      	nop
100030a2:	e75b      	b.n	10002f5c <tud_task_ext+0x24>
100030a4:	4b76      	ldr	r3, [pc, #472]	; (10003280 <tud_task_ext+0x348>)
100030a6:	4a75      	ldr	r2, [pc, #468]	; (1000327c <tud_task_ext+0x344>)
100030a8:	4698      	mov	r8, r3
100030aa:	2600      	movs	r6, #0
100030ac:	7827      	ldrb	r7, [r4, #0]
100030ae:	781b      	ldrb	r3, [r3, #0]
100030b0:	2a00      	cmp	r2, #0
100030b2:	d100      	bne.n	100030b6 <tud_task_ext+0x17e>
100030b4:	e079      	b.n	100031aa <tud_task_ext+0x272>
100030b6:	4a76      	ldr	r2, [pc, #472]	; (10003290 <tud_task_ext+0x358>)
100030b8:	4692      	mov	sl, r2
100030ba:	429e      	cmp	r6, r3
100030bc:	d35f      	bcc.n	1000317e <tud_task_ext+0x246>
100030be:	d119      	bne.n	100030f4 <tud_task_ext+0x1bc>
100030c0:	4b74      	ldr	r3, [pc, #464]	; (10003294 <tud_task_ext+0x35c>)
100030c2:	0038      	movs	r0, r7
100030c4:	4798      	blx	r3
100030c6:	4643      	mov	r3, r8
100030c8:	3601      	adds	r6, #1
100030ca:	781b      	ldrb	r3, [r3, #0]
100030cc:	b2f6      	uxtb	r6, r6
100030ce:	42b3      	cmp	r3, r6
100030d0:	d2f3      	bcs.n	100030ba <tud_task_ext+0x182>
100030d2:	4e69      	ldr	r6, [pc, #420]	; (10003278 <tud_task_ext+0x340>)
100030d4:	2253      	movs	r2, #83	; 0x53
100030d6:	2100      	movs	r1, #0
100030d8:	0030      	movs	r0, r6
100030da:	f7ff f81d 	bl	10002118 <__wrap_memset>
100030de:	2210      	movs	r2, #16
100030e0:	21ff      	movs	r1, #255	; 0xff
100030e2:	1cf0      	adds	r0, r6, #3
100030e4:	f7ff f818 	bl	10002118 <__wrap_memset>
100030e8:	0030      	movs	r0, r6
100030ea:	2220      	movs	r2, #32
100030ec:	21ff      	movs	r1, #255	; 0xff
100030ee:	3013      	adds	r0, #19
100030f0:	f7ff f812 	bl	10002118 <__wrap_memset>
100030f4:	f000 fc9a 	bl	10003a2c <usbd_control_reset>
100030f8:	4b67      	ldr	r3, [pc, #412]	; (10003298 <tud_task_ext+0x360>)
100030fa:	2b00      	cmp	r3, #0
100030fc:	d100      	bne.n	10003100 <tud_task_ext+0x1c8>
100030fe:	e72d      	b.n	10002f5c <tud_task_ext+0x24>
10003100:	e000      	b.n	10003104 <tud_task_ext+0x1cc>
10003102:	bf00      	nop
10003104:	e72a      	b.n	10002f5c <tud_task_ext+0x24>
10003106:	4b5e      	ldr	r3, [pc, #376]	; (10003280 <tud_task_ext+0x348>)
10003108:	4a5c      	ldr	r2, [pc, #368]	; (1000327c <tud_task_ext+0x344>)
1000310a:	4698      	mov	r8, r3
1000310c:	2600      	movs	r6, #0
1000310e:	7827      	ldrb	r7, [r4, #0]
10003110:	781b      	ldrb	r3, [r3, #0]
10003112:	2a00      	cmp	r2, #0
10003114:	d01f      	beq.n	10003156 <tud_task_ext+0x21e>
10003116:	4a5e      	ldr	r2, [pc, #376]	; (10003290 <tud_task_ext+0x358>)
10003118:	4692      	mov	sl, r2
1000311a:	429e      	cmp	r6, r3
1000311c:	d33a      	bcc.n	10003194 <tud_task_ext+0x25c>
1000311e:	d121      	bne.n	10003164 <tud_task_ext+0x22c>
10003120:	4b5c      	ldr	r3, [pc, #368]	; (10003294 <tud_task_ext+0x35c>)
10003122:	0038      	movs	r0, r7
10003124:	4798      	blx	r3
10003126:	4643      	mov	r3, r8
10003128:	3601      	adds	r6, #1
1000312a:	781b      	ldrb	r3, [r3, #0]
1000312c:	b2f6      	uxtb	r6, r6
1000312e:	42b3      	cmp	r3, r6
10003130:	d2f3      	bcs.n	1000311a <tud_task_ext+0x1e2>
10003132:	4e51      	ldr	r6, [pc, #324]	; (10003278 <tud_task_ext+0x340>)
10003134:	2253      	movs	r2, #83	; 0x53
10003136:	2100      	movs	r1, #0
10003138:	0030      	movs	r0, r6
1000313a:	f7fe ffed 	bl	10002118 <__wrap_memset>
1000313e:	2210      	movs	r2, #16
10003140:	21ff      	movs	r1, #255	; 0xff
10003142:	1cf0      	adds	r0, r6, #3
10003144:	f7fe ffe8 	bl	10002118 <__wrap_memset>
10003148:	0030      	movs	r0, r6
1000314a:	2220      	movs	r2, #32
1000314c:	21ff      	movs	r1, #255	; 0xff
1000314e:	3013      	adds	r0, #19
10003150:	f7fe ffe2 	bl	10002118 <__wrap_memset>
10003154:	e007      	b.n	10003166 <tud_task_ext+0x22e>
10003156:	0038      	movs	r0, r7
10003158:	f000 fe00 	bl	10003d5c <cdcd_reset>
1000315c:	4643      	mov	r3, r8
1000315e:	781b      	ldrb	r3, [r3, #0]
10003160:	2b00      	cmp	r3, #0
10003162:	d0e6      	beq.n	10003132 <tud_task_ext+0x1fa>
10003164:	4e44      	ldr	r6, [pc, #272]	; (10003278 <tud_task_ext+0x340>)
10003166:	f000 fc61 	bl	10003a2c <usbd_control_reset>
1000316a:	7923      	ldrb	r3, [r4, #4]
1000316c:	70b3      	strb	r3, [r6, #2]
1000316e:	e6f5      	b.n	10002f5c <tud_task_ext+0x24>
10003170:	b00b      	add	sp, #44	; 0x2c
10003172:	bcf0      	pop	{r4, r5, r6, r7}
10003174:	46bb      	mov	fp, r7
10003176:	46b2      	mov	sl, r6
10003178:	46a9      	mov	r9, r5
1000317a:	46a0      	mov	r8, r4
1000317c:	bdf0      	pop	{r4, r5, r6, r7, pc}
1000317e:	4652      	mov	r2, sl
10003180:	6812      	ldr	r2, [r2, #0]
10003182:	0073      	lsls	r3, r6, #1
10003184:	4694      	mov	ip, r2
10003186:	199b      	adds	r3, r3, r6
10003188:	00db      	lsls	r3, r3, #3
1000318a:	4463      	add	r3, ip
1000318c:	2b00      	cmp	r3, #0
1000318e:	d0b1      	beq.n	100030f4 <tud_task_ext+0x1bc>
10003190:	685b      	ldr	r3, [r3, #4]
10003192:	e796      	b.n	100030c2 <tud_task_ext+0x18a>
10003194:	4652      	mov	r2, sl
10003196:	6812      	ldr	r2, [r2, #0]
10003198:	0073      	lsls	r3, r6, #1
1000319a:	4694      	mov	ip, r2
1000319c:	199b      	adds	r3, r3, r6
1000319e:	00db      	lsls	r3, r3, #3
100031a0:	4463      	add	r3, ip
100031a2:	2b00      	cmp	r3, #0
100031a4:	d0de      	beq.n	10003164 <tud_task_ext+0x22c>
100031a6:	685b      	ldr	r3, [r3, #4]
100031a8:	e7bb      	b.n	10003122 <tud_task_ext+0x1ea>
100031aa:	0038      	movs	r0, r7
100031ac:	f000 fdd6 	bl	10003d5c <cdcd_reset>
100031b0:	4643      	mov	r3, r8
100031b2:	781b      	ldrb	r3, [r3, #0]
100031b4:	2b00      	cmp	r3, #0
100031b6:	d19d      	bne.n	100030f4 <tud_task_ext+0x1bc>
100031b8:	e78b      	b.n	100030d2 <tud_task_ext+0x19a>
100031ba:	7962      	ldrb	r2, [r4, #5]
100031bc:	7820      	ldrb	r0, [r4, #0]
100031be:	68a3      	ldr	r3, [r4, #8]
100031c0:	f000 fc52 	bl	10003a68 <usbd_control_xfer_cb>
100031c4:	e6ca      	b.n	10002f5c <tud_task_ext+0x24>
100031c6:	4835      	ldr	r0, [pc, #212]	; (1000329c <tud_task_ext+0x364>)
100031c8:	2800      	cmp	r0, #0
100031ca:	d100      	bne.n	100031ce <tud_task_ext+0x296>
100031cc:	e746      	b.n	1000305c <tud_task_ext+0x124>
100031ce:	f000 fc37 	bl	10003a40 <usbd_control_set_complete_callback>
100031d2:	2101      	movs	r1, #1
100031d4:	4650      	mov	r0, sl
100031d6:	aa08      	add	r2, sp, #32
100031d8:	e000      	b.n	100031dc <tud_task_ext+0x2a4>
100031da:	bf00      	nop
100031dc:	2800      	cmp	r0, #0
100031de:	d000      	beq.n	100031e2 <tud_task_ext+0x2aa>
100031e0:	e6bc      	b.n	10002f5c <tud_task_ext+0x24>
100031e2:	e73b      	b.n	1000305c <tud_task_ext+0x124>
100031e4:	2a20      	cmp	r2, #32
100031e6:	d100      	bne.n	100031ea <tud_task_ext+0x2b2>
100031e8:	e09e      	b.n	10003328 <tud_task_ext+0x3f0>
100031ea:	2a00      	cmp	r2, #0
100031ec:	d000      	beq.n	100031f0 <tud_task_ext+0x2b8>
100031ee:	e735      	b.n	1000305c <tud_task_ext+0x124>
100031f0:	7963      	ldrb	r3, [r4, #5]
100031f2:	2b09      	cmp	r3, #9
100031f4:	d900      	bls.n	100031f8 <tud_task_ext+0x2c0>
100031f6:	e731      	b.n	1000305c <tud_task_ext+0x124>
100031f8:	4a29      	ldr	r2, [pc, #164]	; (100032a0 <tud_task_ext+0x368>)
100031fa:	009b      	lsls	r3, r3, #2
100031fc:	58d3      	ldr	r3, [r2, r3]
100031fe:	469f      	mov	pc, r3
10003200:	2370      	movs	r3, #112	; 0x70
10003202:	7a21      	ldrb	r1, [r4, #8]
10003204:	420b      	tst	r3, r1
10003206:	d000      	beq.n	1000320a <tud_task_ext+0x2d2>
10003208:	e728      	b.n	1000305c <tud_task_ext+0x124>
1000320a:	4658      	mov	r0, fp
1000320c:	330f      	adds	r3, #15
1000320e:	400b      	ands	r3, r1
10003210:	005b      	lsls	r3, r3, #1
10003212:	09ce      	lsrs	r6, r1, #7
10003214:	18c0      	adds	r0, r0, r3
10003216:	4f19      	ldr	r7, [pc, #100]	; (1000327c <tud_task_ext+0x344>)
10003218:	1980      	adds	r0, r0, r6
1000321a:	7cc0      	ldrb	r0, [r0, #19]
1000321c:	2f00      	cmp	r7, #0
1000321e:	d006      	beq.n	1000322e <tud_task_ext+0x2f6>
10003220:	4f17      	ldr	r7, [pc, #92]	; (10003280 <tud_task_ext+0x348>)
10003222:	783f      	ldrb	r7, [r7, #0]
10003224:	42b8      	cmp	r0, r7
10003226:	d200      	bcs.n	1000322a <tud_task_ext+0x2f2>
10003228:	e0a0      	b.n	1000336c <tud_task_ext+0x434>
1000322a:	1bc0      	subs	r0, r0, r7
1000322c:	b2c0      	uxtb	r0, r0
1000322e:	2800      	cmp	r0, #0
10003230:	d000      	beq.n	10003234 <tud_task_ext+0x2fc>
10003232:	e096      	b.n	10003362 <tud_task_ext+0x42a>
10003234:	2a00      	cmp	r2, #0
10003236:	d000      	beq.n	1000323a <tud_task_ext+0x302>
10003238:	e147      	b.n	100034ca <tud_task_ext+0x592>
1000323a:	4f1a      	ldr	r7, [pc, #104]	; (100032a4 <tud_task_ext+0x36c>)
1000323c:	2002      	movs	r0, #2
1000323e:	7962      	ldrb	r2, [r4, #5]
10003240:	4690      	mov	r8, r2
10003242:	4382      	bics	r2, r0
10003244:	2a01      	cmp	r2, #1
10003246:	d100      	bne.n	1000324a <tud_task_ext+0x312>
10003248:	e142      	b.n	100034d0 <tud_task_ext+0x598>
1000324a:	4642      	mov	r2, r8
1000324c:	2a00      	cmp	r2, #0
1000324e:	d000      	beq.n	10003252 <tud_task_ext+0x31a>
10003250:	e704      	b.n	1000305c <tud_task_ext+0x124>
10003252:	445b      	add	r3, fp
10003254:	199e      	adds	r6, r3, r6
10003256:	3630      	adds	r6, #48	; 0x30
10003258:	78f3      	ldrb	r3, [r6, #3]
1000325a:	aa06      	add	r2, sp, #24
1000325c:	079b      	lsls	r3, r3, #30
1000325e:	0fdb      	lsrs	r3, r3, #31
10003260:	3202      	adds	r2, #2
10003262:	8013      	strh	r3, [r2, #0]
10003264:	4650      	mov	r0, sl
10003266:	2302      	movs	r3, #2
10003268:	a908      	add	r1, sp, #32
1000326a:	f000 fb81 	bl	10003970 <tud_control_xfer>
1000326e:	e675      	b.n	10002f5c <tud_task_ext+0x24>
10003270:	100053d4 	.word	0x100053d4
10003274:	20001e2c 	.word	0x20001e2c
10003278:	20001dd4 	.word	0x20001dd4
1000327c:	1000249d 	.word	0x1000249d
10003280:	20002511 	.word	0x20002511
10003284:	10003f55 	.word	0x10003f55
	...
10003290:	20001aac 	.word	0x20001aac
10003294:	10003d5d 	.word	0x10003d5d
	...
100032a0:	100053f8 	.word	0x100053f8
100032a4:	10005460 	.word	0x10005460
100032a8:	005a      	lsls	r2, r3, #1
100032aa:	18d3      	adds	r3, r2, r3
100032ac:	4ab1      	ldr	r2, [pc, #708]	; (10003574 <tud_task_ext+0x63c>)
100032ae:	00db      	lsls	r3, r3, #3
100032b0:	6812      	ldr	r2, [r2, #0]
100032b2:	18d3      	adds	r3, r2, r3
100032b4:	2b00      	cmp	r3, #0
100032b6:	d100      	bne.n	100032ba <tud_task_ext+0x382>
100032b8:	e75a      	b.n	10003170 <tud_task_ext+0x238>
100032ba:	691e      	ldr	r6, [r3, #16]
100032bc:	e699      	b.n	10002ff2 <tud_task_ext+0xba>
100032be:	7a23      	ldrb	r3, [r4, #8]
100032c0:	2b0f      	cmp	r3, #15
100032c2:	d900      	bls.n	100032c6 <tud_task_ext+0x38e>
100032c4:	e6ca      	b.n	1000305c <tud_task_ext+0x124>
100032c6:	4aac      	ldr	r2, [pc, #688]	; (10003578 <tud_task_ext+0x640>)
100032c8:	445b      	add	r3, fp
100032ca:	78db      	ldrb	r3, [r3, #3]
100032cc:	2a00      	cmp	r2, #0
100032ce:	d005      	beq.n	100032dc <tud_task_ext+0x3a4>
100032d0:	4aaa      	ldr	r2, [pc, #680]	; (1000357c <tud_task_ext+0x644>)
100032d2:	7812      	ldrb	r2, [r2, #0]
100032d4:	4293      	cmp	r3, r2
100032d6:	d35e      	bcc.n	10003396 <tud_task_ext+0x45e>
100032d8:	1a9b      	subs	r3, r3, r2
100032da:	b2db      	uxtb	r3, r3
100032dc:	2b00      	cmp	r3, #0
100032de:	d000      	beq.n	100032e2 <tud_task_ext+0x3aa>
100032e0:	e6bc      	b.n	1000305c <tud_task_ext+0x124>
100032e2:	48a7      	ldr	r0, [pc, #668]	; (10003580 <tud_task_ext+0x648>)
100032e4:	4ea7      	ldr	r6, [pc, #668]	; (10003584 <tud_task_ext+0x64c>)
100032e6:	f000 fbab 	bl	10003a40 <usbd_control_set_complete_callback>
100032ea:	2101      	movs	r1, #1
100032ec:	4650      	mov	r0, sl
100032ee:	68f3      	ldr	r3, [r6, #12]
100032f0:	aa08      	add	r2, sp, #32
100032f2:	4798      	blx	r3
100032f4:	2800      	cmp	r0, #0
100032f6:	d000      	beq.n	100032fa <tud_task_ext+0x3c2>
100032f8:	e630      	b.n	10002f5c <tud_task_ext+0x24>
100032fa:	2260      	movs	r2, #96	; 0x60
100032fc:	0016      	movs	r6, r2
100032fe:	7923      	ldrb	r3, [r4, #4]
10003300:	401e      	ands	r6, r3
10003302:	421a      	tst	r2, r3
10003304:	d000      	beq.n	10003308 <tud_task_ext+0x3d0>
10003306:	e6a9      	b.n	1000305c <tud_task_ext+0x124>
10003308:	7963      	ldrb	r3, [r4, #5]
1000330a:	3b0a      	subs	r3, #10
1000330c:	2b01      	cmp	r3, #1
1000330e:	d900      	bls.n	10003312 <tud_task_ext+0x3da>
10003310:	e6a4      	b.n	1000305c <tud_task_ext+0x124>
10003312:	f000 fb95 	bl	10003a40 <usbd_control_set_complete_callback>
10003316:	7963      	ldrb	r3, [r4, #5]
10003318:	2b0a      	cmp	r3, #10
1000331a:	d100      	bne.n	1000331e <tud_task_ext+0x3e6>
1000331c:	e120      	b.n	10003560 <tud_task_ext+0x628>
1000331e:	4650      	mov	r0, sl
10003320:	a908      	add	r1, sp, #32
10003322:	f000 fb0d 	bl	10003940 <tud_control_status>
10003326:	e619      	b.n	10002f5c <tud_task_ext+0x24>
10003328:	7a23      	ldrb	r3, [r4, #8]
1000332a:	2b0f      	cmp	r3, #15
1000332c:	d900      	bls.n	10003330 <tud_task_ext+0x3f8>
1000332e:	e695      	b.n	1000305c <tud_task_ext+0x124>
10003330:	4a91      	ldr	r2, [pc, #580]	; (10003578 <tud_task_ext+0x640>)
10003332:	445b      	add	r3, fp
10003334:	78db      	ldrb	r3, [r3, #3]
10003336:	2a00      	cmp	r2, #0
10003338:	d006      	beq.n	10003348 <tud_task_ext+0x410>
1000333a:	4a90      	ldr	r2, [pc, #576]	; (1000357c <tud_task_ext+0x644>)
1000333c:	7812      	ldrb	r2, [r2, #0]
1000333e:	4293      	cmp	r3, r2
10003340:	d200      	bcs.n	10003344 <tud_task_ext+0x40c>
10003342:	e0e6      	b.n	10003512 <tud_task_ext+0x5da>
10003344:	1a9b      	subs	r3, r3, r2
10003346:	b2db      	uxtb	r3, r3
10003348:	2b00      	cmp	r3, #0
1000334a:	d000      	beq.n	1000334e <tud_task_ext+0x416>
1000334c:	e686      	b.n	1000305c <tud_task_ext+0x124>
1000334e:	488c      	ldr	r0, [pc, #560]	; (10003580 <tud_task_ext+0x648>)
10003350:	4e8c      	ldr	r6, [pc, #560]	; (10003584 <tud_task_ext+0x64c>)
10003352:	f000 fb75 	bl	10003a40 <usbd_control_set_complete_callback>
10003356:	2101      	movs	r1, #1
10003358:	4650      	mov	r0, sl
1000335a:	68f3      	ldr	r3, [r6, #12]
1000335c:	aa08      	add	r2, sp, #32
1000335e:	4798      	blx	r3
10003360:	e73c      	b.n	100031dc <tud_task_ext+0x2a4>
10003362:	2700      	movs	r7, #0
10003364:	2a00      	cmp	r2, #0
10003366:	d100      	bne.n	1000336a <tud_task_ext+0x432>
10003368:	e768      	b.n	1000323c <tud_task_ext+0x304>
1000336a:	e677      	b.n	1000305c <tud_task_ext+0x124>
1000336c:	0047      	lsls	r7, r0, #1
1000336e:	1838      	adds	r0, r7, r0
10003370:	4f80      	ldr	r7, [pc, #512]	; (10003574 <tud_task_ext+0x63c>)
10003372:	00c0      	lsls	r0, r0, #3
10003374:	683f      	ldr	r7, [r7, #0]
10003376:	183f      	adds	r7, r7, r0
10003378:	2a00      	cmp	r2, #0
1000337a:	d100      	bne.n	1000337e <tud_task_ext+0x446>
1000337c:	e75e      	b.n	1000323c <tud_task_ext+0x304>
1000337e:	2f00      	cmp	r7, #0
10003380:	d100      	bne.n	10003384 <tud_task_ext+0x44c>
10003382:	e66b      	b.n	1000305c <tud_task_ext+0x124>
10003384:	68f8      	ldr	r0, [r7, #12]
10003386:	f000 fb5b 	bl	10003a40 <usbd_control_set_complete_callback>
1000338a:	2101      	movs	r1, #1
1000338c:	4650      	mov	r0, sl
1000338e:	68fb      	ldr	r3, [r7, #12]
10003390:	aa08      	add	r2, sp, #32
10003392:	4798      	blx	r3
10003394:	e722      	b.n	100031dc <tud_task_ext+0x2a4>
10003396:	4a77      	ldr	r2, [pc, #476]	; (10003574 <tud_task_ext+0x63c>)
10003398:	005e      	lsls	r6, r3, #1
1000339a:	18f3      	adds	r3, r6, r3
1000339c:	6816      	ldr	r6, [r2, #0]
1000339e:	00db      	lsls	r3, r3, #3
100033a0:	18f6      	adds	r6, r6, r3
100033a2:	2e00      	cmp	r6, #0
100033a4:	d100      	bne.n	100033a8 <tud_task_ext+0x470>
100033a6:	e659      	b.n	1000305c <tud_task_ext+0x124>
100033a8:	68f0      	ldr	r0, [r6, #12]
100033aa:	e79c      	b.n	100032e6 <tud_task_ext+0x3ae>
100033ac:	79a2      	ldrb	r2, [r4, #6]
100033ae:	9201      	str	r2, [sp, #4]
100033b0:	7873      	ldrb	r3, [r6, #1]
100033b2:	429a      	cmp	r2, r3
100033b4:	d007      	beq.n	100033c6 <tud_task_ext+0x48e>
100033b6:	7873      	ldrb	r3, [r6, #1]
100033b8:	2b00      	cmp	r3, #0
100033ba:	d000      	beq.n	100033be <tud_task_ext+0x486>
100033bc:	e146      	b.n	1000364c <tud_task_ext+0x714>
100033be:	9b01      	ldr	r3, [sp, #4]
100033c0:	2b00      	cmp	r3, #0
100033c2:	d000      	beq.n	100033c6 <tud_task_ext+0x48e>
100033c4:	e0ea      	b.n	1000359c <tud_task_ext+0x664>
100033c6:	465b      	mov	r3, fp
100033c8:	9a01      	ldr	r2, [sp, #4]
100033ca:	4650      	mov	r0, sl
100033cc:	a908      	add	r1, sp, #32
100033ce:	705a      	strb	r2, [r3, #1]
100033d0:	f000 fab6 	bl	10003940 <tud_control_status>
100033d4:	e5c2      	b.n	10002f5c <tud_task_ext+0x24>
100033d6:	7873      	ldrb	r3, [r6, #1]
100033d8:	aa06      	add	r2, sp, #24
100033da:	3202      	adds	r2, #2
100033dc:	7013      	strb	r3, [r2, #0]
100033de:	4650      	mov	r0, sl
100033e0:	2301      	movs	r3, #1
100033e2:	a908      	add	r1, sp, #32
100033e4:	f000 fac4 	bl	10003970 <tud_control_xfer>
100033e8:	e5b8      	b.n	10002f5c <tud_task_ext+0x24>
100033ea:	88e0      	ldrh	r0, [r4, #6]
100033ec:	0a03      	lsrs	r3, r0, #8
100033ee:	b2c0      	uxtb	r0, r0
100033f0:	2b0f      	cmp	r3, #15
100033f2:	d900      	bls.n	100033f6 <tud_task_ext+0x4be>
100033f4:	e632      	b.n	1000305c <tud_task_ext+0x124>
100033f6:	4964      	ldr	r1, [pc, #400]	; (10003588 <tud_task_ext+0x650>)
100033f8:	009a      	lsls	r2, r3, #2
100033fa:	588a      	ldr	r2, [r1, r2]
100033fc:	4697      	mov	pc, r2
100033fe:	a808      	add	r0, sp, #32
10003400:	f000 fb24 	bl	10003a4c <usbd_control_set_request>
10003404:	4650      	mov	r0, sl
10003406:	79a1      	ldrb	r1, [r4, #6]
10003408:	f7ff fb82 	bl	10002b10 <dcd_set_address>
1000340c:	2202      	movs	r2, #2
1000340e:	7833      	ldrb	r3, [r6, #0]
10003410:	4313      	orrs	r3, r2
10003412:	7033      	strb	r3, [r6, #0]
10003414:	e5a2      	b.n	10002f5c <tud_task_ext+0x24>
10003416:	88e3      	ldrh	r3, [r4, #6]
10003418:	2b01      	cmp	r3, #1
1000341a:	d000      	beq.n	1000341e <tud_task_ext+0x4e6>
1000341c:	e61e      	b.n	1000305c <tud_task_ext+0x124>
1000341e:	2208      	movs	r2, #8
10003420:	7833      	ldrb	r3, [r6, #0]
10003422:	4393      	bics	r3, r2
10003424:	465a      	mov	r2, fp
10003426:	7013      	strb	r3, [r2, #0]
10003428:	e779      	b.n	1000331e <tud_task_ext+0x3e6>
1000342a:	2002      	movs	r0, #2
1000342c:	7831      	ldrb	r1, [r6, #0]
1000342e:	ab06      	add	r3, sp, #24
10003430:	1c9a      	adds	r2, r3, #2
10003432:	068b      	lsls	r3, r1, #26
10003434:	0889      	lsrs	r1, r1, #2
10003436:	0fdb      	lsrs	r3, r3, #31
10003438:	4001      	ands	r1, r0
1000343a:	430b      	orrs	r3, r1
1000343c:	e711      	b.n	10003262 <tud_task_ext+0x32a>
1000343e:	88e3      	ldrh	r3, [r4, #6]
10003440:	2b01      	cmp	r3, #1
10003442:	d000      	beq.n	10003446 <tud_task_ext+0x50e>
10003444:	e60a      	b.n	1000305c <tud_task_ext+0x124>
10003446:	2208      	movs	r2, #8
10003448:	7833      	ldrb	r3, [r6, #0]
1000344a:	4313      	orrs	r3, r2
1000344c:	e7ea      	b.n	10003424 <tud_task_ext+0x4ec>
1000344e:	4b4f      	ldr	r3, [pc, #316]	; (1000358c <tud_task_ext+0x654>)
10003450:	2b00      	cmp	r3, #0
10003452:	d100      	bne.n	10003456 <tud_task_ext+0x51e>
10003454:	e602      	b.n	1000305c <tud_task_ext+0x124>
10003456:	e000      	b.n	1000345a <tud_task_ext+0x522>
10003458:	bf00      	nop
1000345a:	1e02      	subs	r2, r0, #0
1000345c:	d100      	bne.n	10003460 <tud_task_ext+0x528>
1000345e:	e5fd      	b.n	1000305c <tud_task_ext+0x124>
10003460:	78d3      	ldrb	r3, [r2, #3]
10003462:	7891      	ldrb	r1, [r2, #2]
10003464:	021b      	lsls	r3, r3, #8
10003466:	430b      	orrs	r3, r1
10003468:	4650      	mov	r0, sl
1000346a:	a908      	add	r1, sp, #32
1000346c:	f000 fa80 	bl	10003970 <tud_control_xfer>
10003470:	e6b4      	b.n	100031dc <tud_task_ext+0x2a4>
10003472:	4b47      	ldr	r3, [pc, #284]	; (10003590 <tud_task_ext+0x658>)
10003474:	2b00      	cmp	r3, #0
10003476:	d100      	bne.n	1000347a <tud_task_ext+0x542>
10003478:	e5f0      	b.n	1000305c <tud_task_ext+0x124>
1000347a:	e000      	b.n	1000347e <tud_task_ext+0x546>
1000347c:	bf00      	nop
1000347e:	1e02      	subs	r2, r0, #0
10003480:	d100      	bne.n	10003484 <tud_task_ext+0x54c>
10003482:	e5eb      	b.n	1000305c <tud_task_ext+0x124>
10003484:	4650      	mov	r0, sl
10003486:	7813      	ldrb	r3, [r2, #0]
10003488:	a908      	add	r1, sp, #32
1000348a:	f000 fa71 	bl	10003970 <tud_control_xfer>
1000348e:	e6a5      	b.n	100031dc <tud_task_ext+0x2a4>
10003490:	8921      	ldrh	r1, [r4, #8]
10003492:	f7ff fa01 	bl	10002898 <tud_descriptor_string_cb>
10003496:	1e02      	subs	r2, r0, #0
10003498:	d1f4      	bne.n	10003484 <tud_task_ext+0x54c>
1000349a:	e5df      	b.n	1000305c <tud_task_ext+0x124>
1000349c:	2b02      	cmp	r3, #2
1000349e:	d100      	bne.n	100034a2 <tud_task_ext+0x56a>
100034a0:	e112      	b.n	100036c8 <tud_task_ext+0x790>
100034a2:	4b3c      	ldr	r3, [pc, #240]	; (10003594 <tud_task_ext+0x65c>)
100034a4:	2b00      	cmp	r3, #0
100034a6:	d100      	bne.n	100034aa <tud_task_ext+0x572>
100034a8:	e5d8      	b.n	1000305c <tud_task_ext+0x124>
100034aa:	e000      	b.n	100034ae <tud_task_ext+0x576>
100034ac:	bf00      	nop
100034ae:	0002      	movs	r2, r0
100034b0:	2a00      	cmp	r2, #0
100034b2:	d100      	bne.n	100034b6 <tud_task_ext+0x57e>
100034b4:	e5d2      	b.n	1000305c <tud_task_ext+0x124>
100034b6:	e7d3      	b.n	10003460 <tud_task_ext+0x528>
100034b8:	f7ff f9e6 	bl	10002888 <tud_descriptor_device_cb>
100034bc:	2312      	movs	r3, #18
100034be:	0002      	movs	r2, r0
100034c0:	a908      	add	r1, sp, #32
100034c2:	4650      	mov	r0, sl
100034c4:	f000 fa54 	bl	10003970 <tud_control_xfer>
100034c8:	e688      	b.n	100031dc <tud_task_ext+0x2a4>
100034ca:	482d      	ldr	r0, [pc, #180]	; (10003580 <tud_task_ext+0x648>)
100034cc:	4f2d      	ldr	r7, [pc, #180]	; (10003584 <tud_task_ext+0x64c>)
100034ce:	e75a      	b.n	10003386 <tud_task_ext+0x44e>
100034d0:	88e2      	ldrh	r2, [r4, #6]
100034d2:	2a00      	cmp	r2, #0
100034d4:	d108      	bne.n	100034e8 <tud_task_ext+0x5b0>
100034d6:	4642      	mov	r2, r8
100034d8:	445b      	add	r3, fp
100034da:	199e      	adds	r6, r3, r6
100034dc:	3630      	adds	r6, #48	; 0x30
100034de:	78f3      	ldrb	r3, [r6, #3]
100034e0:	2a01      	cmp	r2, #1
100034e2:	d021      	beq.n	10003528 <tud_task_ext+0x5f0>
100034e4:	079b      	lsls	r3, r3, #30
100034e6:	d52e      	bpl.n	10003546 <tud_task_ext+0x60e>
100034e8:	2f00      	cmp	r7, #0
100034ea:	d100      	bne.n	100034ee <tud_task_ext+0x5b6>
100034ec:	e536      	b.n	10002f5c <tud_task_ext+0x24>
100034ee:	68f8      	ldr	r0, [r7, #12]
100034f0:	f000 faa6 	bl	10003a40 <usbd_control_set_complete_callback>
100034f4:	68fb      	ldr	r3, [r7, #12]
100034f6:	aa08      	add	r2, sp, #32
100034f8:	2101      	movs	r1, #1
100034fa:	4650      	mov	r0, sl
100034fc:	4798      	blx	r3
100034fe:	2000      	movs	r0, #0
10003500:	f000 fa9e 	bl	10003a40 <usbd_control_set_complete_callback>
10003504:	2334      	movs	r3, #52	; 0x34
10003506:	465a      	mov	r2, fp
10003508:	5cd3      	ldrb	r3, [r2, r3]
1000350a:	07db      	lsls	r3, r3, #31
1000350c:	d500      	bpl.n	10003510 <tud_task_ext+0x5d8>
1000350e:	e525      	b.n	10002f5c <tud_task_ext+0x24>
10003510:	e705      	b.n	1000331e <tud_task_ext+0x3e6>
10003512:	4a18      	ldr	r2, [pc, #96]	; (10003574 <tud_task_ext+0x63c>)
10003514:	005e      	lsls	r6, r3, #1
10003516:	18f3      	adds	r3, r6, r3
10003518:	6816      	ldr	r6, [r2, #0]
1000351a:	00db      	lsls	r3, r3, #3
1000351c:	18f6      	adds	r6, r6, r3
1000351e:	2e00      	cmp	r6, #0
10003520:	d100      	bne.n	10003524 <tud_task_ext+0x5ec>
10003522:	e59b      	b.n	1000305c <tud_task_ext+0x124>
10003524:	68f0      	ldr	r0, [r6, #12]
10003526:	e714      	b.n	10003352 <tud_task_ext+0x41a>
10003528:	079b      	lsls	r3, r3, #30
1000352a:	d5dd      	bpl.n	100034e8 <tud_task_ext+0x5b0>
1000352c:	4b1a      	ldr	r3, [pc, #104]	; (10003598 <tud_task_ext+0x660>)
1000352e:	7818      	ldrb	r0, [r3, #0]
10003530:	f7ff fc10 	bl	10002d54 <dcd_edpt_clear_stall>
10003534:	2202      	movs	r2, #2
10003536:	78f3      	ldrb	r3, [r6, #3]
10003538:	4393      	bics	r3, r2
1000353a:	4642      	mov	r2, r8
1000353c:	70f3      	strb	r3, [r6, #3]
1000353e:	78f3      	ldrb	r3, [r6, #3]
10003540:	4393      	bics	r3, r2
10003542:	70f3      	strb	r3, [r6, #3]
10003544:	e7d0      	b.n	100034e8 <tud_task_ext+0x5b0>
10003546:	4b14      	ldr	r3, [pc, #80]	; (10003598 <tud_task_ext+0x660>)
10003548:	7818      	ldrb	r0, [r3, #0]
1000354a:	f7ff fbe7 	bl	10002d1c <dcd_edpt_stall>
1000354e:	2202      	movs	r2, #2
10003550:	78f3      	ldrb	r3, [r6, #3]
10003552:	4313      	orrs	r3, r2
10003554:	2201      	movs	r2, #1
10003556:	70f3      	strb	r3, [r6, #3]
10003558:	78f3      	ldrb	r3, [r6, #3]
1000355a:	4313      	orrs	r3, r2
1000355c:	70f3      	strb	r3, [r6, #3]
1000355e:	e7c3      	b.n	100034e8 <tud_task_ext+0x5b0>
10003560:	ab06      	add	r3, sp, #24
10003562:	1c9a      	adds	r2, r3, #2
10003564:	4650      	mov	r0, sl
10003566:	2301      	movs	r3, #1
10003568:	a908      	add	r1, sp, #32
1000356a:	7016      	strb	r6, [r2, #0]
1000356c:	f000 fa00 	bl	10003970 <tud_control_xfer>
10003570:	e4f4      	b.n	10002f5c <tud_task_ext+0x24>
10003572:	46c0      	nop			; (mov r8, r8)
10003574:	20001aac 	.word	0x20001aac
10003578:	1000249d 	.word	0x1000249d
1000357c:	20002511 	.word	0x20002511
10003580:	10003e71 	.word	0x10003e71
10003584:	10005460 	.word	0x10005460
10003588:	10005420 	.word	0x10005420
	...
10003598:	20000eec 	.word	0x20000eec
1000359c:	1e58      	subs	r0, r3, #1
1000359e:	b2c0      	uxtb	r0, r0
100035a0:	f7ff f976 	bl	10002890 <tud_descriptor_configuration_cb>
100035a4:	2800      	cmp	r0, #0
100035a6:	d100      	bne.n	100035aa <tud_task_ext+0x672>
100035a8:	e558      	b.n	1000305c <tud_task_ext+0x124>
100035aa:	7843      	ldrb	r3, [r0, #1]
100035ac:	9305      	str	r3, [sp, #20]
100035ae:	2b02      	cmp	r3, #2
100035b0:	d000      	beq.n	100035b4 <tud_task_ext+0x67c>
100035b2:	e553      	b.n	1000305c <tud_task_ext+0x124>
100035b4:	2101      	movs	r1, #1
100035b6:	79c2      	ldrb	r2, [r0, #7]
100035b8:	0007      	movs	r7, r0
100035ba:	1193      	asrs	r3, r2, #6
100035bc:	1152      	asrs	r2, r2, #5
100035be:	400b      	ands	r3, r1
100035c0:	400a      	ands	r2, r1
100035c2:	0112      	lsls	r2, r2, #4
100035c4:	015b      	lsls	r3, r3, #5
100035c6:	4313      	orrs	r3, r2
100035c8:	465a      	mov	r2, fp
100035ca:	7812      	ldrb	r2, [r2, #0]
100035cc:	312f      	adds	r1, #47	; 0x2f
100035ce:	438a      	bics	r2, r1
100035d0:	4313      	orrs	r3, r2
100035d2:	465a      	mov	r2, fp
100035d4:	7013      	strb	r3, [r2, #0]
100035d6:	78c3      	ldrb	r3, [r0, #3]
100035d8:	7882      	ldrb	r2, [r0, #2]
100035da:	021b      	lsls	r3, r3, #8
100035dc:	4313      	orrs	r3, r2
100035de:	18c3      	adds	r3, r0, r3
100035e0:	3709      	adds	r7, #9
100035e2:	9303      	str	r3, [sp, #12]
100035e4:	9b03      	ldr	r3, [sp, #12]
100035e6:	42bb      	cmp	r3, r7
100035e8:	d800      	bhi.n	100035ec <tud_task_ext+0x6b4>
100035ea:	e0ac      	b.n	10003746 <tud_task_ext+0x80e>
100035ec:	2201      	movs	r2, #1
100035ee:	787b      	ldrb	r3, [r7, #1]
100035f0:	9200      	str	r2, [sp, #0]
100035f2:	2b0b      	cmp	r3, #11
100035f4:	d103      	bne.n	100035fe <tud_task_ext+0x6c6>
100035f6:	78fb      	ldrb	r3, [r7, #3]
100035f8:	9300      	str	r3, [sp, #0]
100035fa:	783b      	ldrb	r3, [r7, #0]
100035fc:	18ff      	adds	r7, r7, r3
100035fe:	787b      	ldrb	r3, [r7, #1]
10003600:	2b04      	cmp	r3, #4
10003602:	d000      	beq.n	10003606 <tud_task_ext+0x6ce>
10003604:	e52a      	b.n	1000305c <tud_task_ext+0x124>
10003606:	2600      	movs	r6, #0
10003608:	9b03      	ldr	r3, [sp, #12]
1000360a:	4a58      	ldr	r2, [pc, #352]	; (1000376c <tud_task_ext+0x834>)
1000360c:	1bdb      	subs	r3, r3, r7
1000360e:	b29b      	uxth	r3, r3
10003610:	9302      	str	r3, [sp, #8]
10003612:	4b57      	ldr	r3, [pc, #348]	; (10003770 <tud_task_ext+0x838>)
10003614:	9304      	str	r3, [sp, #16]
10003616:	781b      	ldrb	r3, [r3, #0]
10003618:	42b2      	cmp	r2, r6
1000361a:	d063      	beq.n	100036e4 <tud_task_ext+0x7ac>
1000361c:	46b8      	mov	r8, r7
1000361e:	42b3      	cmp	r3, r6
10003620:	d856      	bhi.n	100036d0 <tud_task_ext+0x798>
10003622:	d000      	beq.n	10003626 <tud_task_ext+0x6ee>
10003624:	e51a      	b.n	1000305c <tud_task_ext+0x124>
10003626:	4b53      	ldr	r3, [pc, #332]	; (10003774 <tud_task_ext+0x83c>)
10003628:	4f53      	ldr	r7, [pc, #332]	; (10003778 <tud_task_ext+0x840>)
1000362a:	4641      	mov	r1, r8
1000362c:	4650      	mov	r0, sl
1000362e:	9a02      	ldr	r2, [sp, #8]
10003630:	4798      	blx	r3
10003632:	2808      	cmp	r0, #8
10003634:	d903      	bls.n	1000363e <tud_task_ext+0x706>
10003636:	9a02      	ldr	r2, [sp, #8]
10003638:	4282      	cmp	r2, r0
1000363a:	d300      	bcc.n	1000363e <tud_task_ext+0x706>
1000363c:	e08a      	b.n	10003754 <tud_task_ext+0x81c>
1000363e:	9b04      	ldr	r3, [sp, #16]
10003640:	3601      	adds	r6, #1
10003642:	781b      	ldrb	r3, [r3, #0]
10003644:	b2f6      	uxtb	r6, r6
10003646:	42b3      	cmp	r3, r6
10003648:	d2e9      	bcs.n	1000361e <tud_task_ext+0x6e6>
1000364a:	e507      	b.n	1000305c <tud_task_ext+0x124>
1000364c:	4650      	mov	r0, sl
1000364e:	f7ff fb4f 	bl	10002cf0 <dcd_edpt_close_all>
10003652:	78b3      	ldrb	r3, [r6, #2]
10003654:	4a45      	ldr	r2, [pc, #276]	; (1000376c <tud_task_ext+0x834>)
10003656:	9300      	str	r3, [sp, #0]
10003658:	4b45      	ldr	r3, [pc, #276]	; (10003770 <tud_task_ext+0x838>)
1000365a:	2600      	movs	r6, #0
1000365c:	4698      	mov	r8, r3
1000365e:	781b      	ldrb	r3, [r3, #0]
10003660:	2a00      	cmp	r2, #0
10003662:	d00d      	beq.n	10003680 <tud_task_ext+0x748>
10003664:	4f45      	ldr	r7, [pc, #276]	; (1000377c <tud_task_ext+0x844>)
10003666:	42b3      	cmp	r3, r6
10003668:	d825      	bhi.n	100036b6 <tud_task_ext+0x77e>
1000366a:	d120      	bne.n	100036ae <tud_task_ext+0x776>
1000366c:	4b44      	ldr	r3, [pc, #272]	; (10003780 <tud_task_ext+0x848>)
1000366e:	4650      	mov	r0, sl
10003670:	4798      	blx	r3
10003672:	4643      	mov	r3, r8
10003674:	3601      	adds	r6, #1
10003676:	781b      	ldrb	r3, [r3, #0]
10003678:	b2f6      	uxtb	r6, r6
1000367a:	42b3      	cmp	r3, r6
1000367c:	d2f3      	bcs.n	10003666 <tud_task_ext+0x72e>
1000367e:	e006      	b.n	1000368e <tud_task_ext+0x756>
10003680:	4650      	mov	r0, sl
10003682:	f000 fb6b 	bl	10003d5c <cdcd_reset>
10003686:	4643      	mov	r3, r8
10003688:	781b      	ldrb	r3, [r3, #0]
1000368a:	2b00      	cmp	r3, #0
1000368c:	d10f      	bne.n	100036ae <tud_task_ext+0x776>
1000368e:	2253      	movs	r2, #83	; 0x53
10003690:	2100      	movs	r1, #0
10003692:	4658      	mov	r0, fp
10003694:	f7fe fd40 	bl	10002118 <__wrap_memset>
10003698:	465b      	mov	r3, fp
1000369a:	2210      	movs	r2, #16
1000369c:	21ff      	movs	r1, #255	; 0xff
1000369e:	1cd8      	adds	r0, r3, #3
100036a0:	f7fe fd3a 	bl	10002118 <__wrap_memset>
100036a4:	2220      	movs	r2, #32
100036a6:	21ff      	movs	r1, #255	; 0xff
100036a8:	4836      	ldr	r0, [pc, #216]	; (10003784 <tud_task_ext+0x84c>)
100036aa:	f7fe fd35 	bl	10002118 <__wrap_memset>
100036ae:	465b      	mov	r3, fp
100036b0:	9a00      	ldr	r2, [sp, #0]
100036b2:	709a      	strb	r2, [r3, #2]
100036b4:	e683      	b.n	100033be <tud_task_ext+0x486>
100036b6:	2318      	movs	r3, #24
100036b8:	683a      	ldr	r2, [r7, #0]
100036ba:	4373      	muls	r3, r6
100036bc:	4694      	mov	ip, r2
100036be:	4463      	add	r3, ip
100036c0:	2b00      	cmp	r3, #0
100036c2:	d0f4      	beq.n	100036ae <tud_task_ext+0x776>
100036c4:	685b      	ldr	r3, [r3, #4]
100036c6:	e7d2      	b.n	1000366e <tud_task_ext+0x736>
100036c8:	f7ff f8e2 	bl	10002890 <tud_descriptor_configuration_cb>
100036cc:	0002      	movs	r2, r0
100036ce:	e6ef      	b.n	100034b0 <tud_task_ext+0x578>
100036d0:	4b2a      	ldr	r3, [pc, #168]	; (1000377c <tud_task_ext+0x844>)
100036d2:	681f      	ldr	r7, [r3, #0]
100036d4:	2318      	movs	r3, #24
100036d6:	4373      	muls	r3, r6
100036d8:	18ff      	adds	r7, r7, r3
100036da:	2f00      	cmp	r7, #0
100036dc:	d100      	bne.n	100036e0 <tud_task_ext+0x7a8>
100036de:	e4bd      	b.n	1000305c <tud_task_ext+0x124>
100036e0:	68bb      	ldr	r3, [r7, #8]
100036e2:	e7a2      	b.n	1000362a <tud_task_ext+0x6f2>
100036e4:	9b02      	ldr	r3, [sp, #8]
100036e6:	0039      	movs	r1, r7
100036e8:	001a      	movs	r2, r3
100036ea:	4650      	mov	r0, sl
100036ec:	4698      	mov	r8, r3
100036ee:	f000 fb4b 	bl	10003d88 <cdcd_open>
100036f2:	2808      	cmp	r0, #8
100036f4:	d800      	bhi.n	100036f8 <tud_task_ext+0x7c0>
100036f6:	e4b1      	b.n	1000305c <tud_task_ext+0x124>
100036f8:	4642      	mov	r2, r8
100036fa:	4282      	cmp	r2, r0
100036fc:	d200      	bcs.n	10003700 <tud_task_ext+0x7c8>
100036fe:	e4ad      	b.n	1000305c <tud_task_ext+0x124>
10003700:	4b1d      	ldr	r3, [pc, #116]	; (10003778 <tud_task_ext+0x840>)
10003702:	4698      	mov	r8, r3
10003704:	9b00      	ldr	r3, [sp, #0]
10003706:	2b01      	cmp	r3, #1
10003708:	d028      	beq.n	1000375c <tud_task_ext+0x824>
1000370a:	2200      	movs	r2, #0
1000370c:	e00a      	b.n	10003724 <tud_task_ext+0x7ec>
1000370e:	78bb      	ldrb	r3, [r7, #2]
10003710:	18d3      	adds	r3, r2, r3
10003712:	b2db      	uxtb	r3, r3
10003714:	445b      	add	r3, fp
10003716:	78d9      	ldrb	r1, [r3, #3]
10003718:	29ff      	cmp	r1, #255	; 0xff
1000371a:	d000      	beq.n	1000371e <tud_task_ext+0x7e6>
1000371c:	e49e      	b.n	1000305c <tud_task_ext+0x124>
1000371e:	3201      	adds	r2, #1
10003720:	70de      	strb	r6, [r3, #3]
10003722:	b2d2      	uxtb	r2, r2
10003724:	9b00      	ldr	r3, [sp, #0]
10003726:	429a      	cmp	r2, r3
10003728:	d1f1      	bne.n	1000370e <tud_task_ext+0x7d6>
1000372a:	4680      	mov	r8, r0
1000372c:	0033      	movs	r3, r6
1000372e:	0002      	movs	r2, r0
10003730:	0039      	movs	r1, r7
10003732:	4814      	ldr	r0, [pc, #80]	; (10003784 <tud_task_ext+0x84c>)
10003734:	f000 fd3c 	bl	100041b0 <tu_edpt_bind_driver>
10003738:	9b04      	ldr	r3, [sp, #16]
1000373a:	4447      	add	r7, r8
1000373c:	781b      	ldrb	r3, [r3, #0]
1000373e:	42b3      	cmp	r3, r6
10003740:	d300      	bcc.n	10003744 <tud_task_ext+0x80c>
10003742:	e74f      	b.n	100035e4 <tud_task_ext+0x6ac>
10003744:	e48a      	b.n	1000305c <tud_task_ext+0x124>
10003746:	4b10      	ldr	r3, [pc, #64]	; (10003788 <tud_task_ext+0x850>)
10003748:	2b00      	cmp	r3, #0
1000374a:	d100      	bne.n	1000374e <tud_task_ext+0x816>
1000374c:	e63b      	b.n	100033c6 <tud_task_ext+0x48e>
1000374e:	e000      	b.n	10003752 <tud_task_ext+0x81a>
10003750:	bf00      	nop
10003752:	e638      	b.n	100033c6 <tud_task_ext+0x48e>
10003754:	003b      	movs	r3, r7
10003756:	4647      	mov	r7, r8
10003758:	4698      	mov	r8, r3
1000375a:	e7d3      	b.n	10003704 <tud_task_ext+0x7cc>
1000375c:	4642      	mov	r2, r8
1000375e:	4b05      	ldr	r3, [pc, #20]	; (10003774 <tud_task_ext+0x83c>)
10003760:	6892      	ldr	r2, [r2, #8]
10003762:	429a      	cmp	r2, r3
10003764:	d1d1      	bne.n	1000370a <tud_task_ext+0x7d2>
10003766:	9b05      	ldr	r3, [sp, #20]
10003768:	9300      	str	r3, [sp, #0]
1000376a:	e7ce      	b.n	1000370a <tud_task_ext+0x7d2>
1000376c:	1000249d 	.word	0x1000249d
10003770:	20002511 	.word	0x20002511
10003774:	10003d89 	.word	0x10003d89
10003778:	10005460 	.word	0x10005460
1000377c:	20001aac 	.word	0x20001aac
10003780:	10003d5d 	.word	0x10003d5d
10003784:	20001de7 	.word	0x20001de7
10003788:	00000000 	.word	0x00000000

1000378c <usbd_open_edpt_pair>:
1000378c:	b5f8      	push	{r3, r4, r5, r6, r7, lr}
1000378e:	4657      	mov	r7, sl
10003790:	464e      	mov	r6, r9
10003792:	46de      	mov	lr, fp
10003794:	4645      	mov	r5, r8
10003796:	000c      	movs	r4, r1
10003798:	b5e0      	push	{r5, r6, r7, lr}
1000379a:	0016      	movs	r6, r2
1000379c:	001f      	movs	r7, r3
1000379e:	2a00      	cmp	r2, #0
100037a0:	d03c      	beq.n	1000381c <usbd_open_edpt_pair+0x90>
100037a2:	2370      	movs	r3, #112	; 0x70
100037a4:	4698      	mov	r8, r3
100037a6:	4b1e      	ldr	r3, [pc, #120]	; (10003820 <usbd_open_edpt_pair+0x94>)
100037a8:	2500      	movs	r5, #0
100037aa:	469b      	mov	fp, r3
100037ac:	4b1d      	ldr	r3, [pc, #116]	; (10003824 <usbd_open_edpt_pair+0x98>)
100037ae:	469a      	mov	sl, r3
100037b0:	e01a      	b.n	100037e8 <usbd_open_edpt_pair+0x5c>
100037b2:	465b      	mov	r3, fp
100037b4:	781b      	ldrb	r3, [r3, #0]
100037b6:	0020      	movs	r0, r4
100037b8:	4699      	mov	r9, r3
100037ba:	4653      	mov	r3, sl
100037bc:	7899      	ldrb	r1, [r3, #2]
100037be:	f000 fcbb 	bl	10004138 <tu_edpt_validate>
100037c2:	2800      	cmp	r0, #0
100037c4:	d01c      	beq.n	10003800 <usbd_open_edpt_pair+0x74>
100037c6:	0021      	movs	r1, r4
100037c8:	4648      	mov	r0, r9
100037ca:	f7ff fa0d 	bl	10002be8 <dcd_edpt_open>
100037ce:	2800      	cmp	r0, #0
100037d0:	d016      	beq.n	10003800 <usbd_open_edpt_pair+0x74>
100037d2:	78a3      	ldrb	r3, [r4, #2]
100037d4:	09da      	lsrs	r2, r3, #7
100037d6:	2a01      	cmp	r2, #1
100037d8:	d019      	beq.n	1000380e <usbd_open_edpt_pair+0x82>
100037da:	9a0a      	ldr	r2, [sp, #40]	; 0x28
100037dc:	3501      	adds	r5, #1
100037de:	7013      	strb	r3, [r2, #0]
100037e0:	7823      	ldrb	r3, [r4, #0]
100037e2:	18e4      	adds	r4, r4, r3
100037e4:	42b5      	cmp	r5, r6
100037e6:	da19      	bge.n	1000381c <usbd_open_edpt_pair+0x90>
100037e8:	7863      	ldrb	r3, [r4, #1]
100037ea:	2b05      	cmp	r3, #5
100037ec:	d108      	bne.n	10003800 <usbd_open_edpt_pair+0x74>
100037ee:	78e3      	ldrb	r3, [r4, #3]
100037f0:	079b      	lsls	r3, r3, #30
100037f2:	0f9b      	lsrs	r3, r3, #30
100037f4:	42bb      	cmp	r3, r7
100037f6:	d103      	bne.n	10003800 <usbd_open_edpt_pair+0x74>
100037f8:	4642      	mov	r2, r8
100037fa:	78a3      	ldrb	r3, [r4, #2]
100037fc:	421a      	tst	r2, r3
100037fe:	d0d8      	beq.n	100037b2 <usbd_open_edpt_pair+0x26>
10003800:	2000      	movs	r0, #0
10003802:	bcf0      	pop	{r4, r5, r6, r7}
10003804:	46bb      	mov	fp, r7
10003806:	46b2      	mov	sl, r6
10003808:	46a9      	mov	r9, r5
1000380a:	46a0      	mov	r8, r4
1000380c:	bdf8      	pop	{r3, r4, r5, r6, r7, pc}
1000380e:	9a0b      	ldr	r2, [sp, #44]	; 0x2c
10003810:	3501      	adds	r5, #1
10003812:	7013      	strb	r3, [r2, #0]
10003814:	7823      	ldrb	r3, [r4, #0]
10003816:	18e4      	adds	r4, r4, r3
10003818:	42b5      	cmp	r5, r6
1000381a:	dbe5      	blt.n	100037e8 <usbd_open_edpt_pair+0x5c>
1000381c:	2001      	movs	r0, #1
1000381e:	e7f0      	b.n	10003802 <usbd_open_edpt_pair+0x76>
10003820:	20000eec 	.word	0x20000eec
10003824:	20001dd4 	.word	0x20001dd4

10003828 <usbd_defer_func>:
10003828:	2380      	movs	r3, #128	; 0x80
1000382a:	b510      	push	{r4, lr}
1000382c:	011b      	lsls	r3, r3, #4
1000382e:	b084      	sub	sp, #16
10003830:	9301      	str	r3, [sp, #4]
10003832:	4b0e      	ldr	r3, [pc, #56]	; (1000386c <usbd_defer_func+0x44>)
10003834:	9002      	str	r0, [sp, #8]
10003836:	681c      	ldr	r4, [r3, #0]
10003838:	9103      	str	r1, [sp, #12]
1000383a:	6962      	ldr	r2, [r4, #20]
1000383c:	f3ef 8310 	mrs	r3, PRIMASK
10003840:	b672      	cpsid	i
10003842:	6811      	ldr	r1, [r2, #0]
10003844:	2900      	cmp	r1, #0
10003846:	d0fc      	beq.n	10003842 <usbd_defer_func+0x1a>
10003848:	f3bf 8f5f 	dmb	sy
1000384c:	61a3      	str	r3, [r4, #24]
1000384e:	0020      	movs	r0, r4
10003850:	a901      	add	r1, sp, #4
10003852:	f000 fdf9 	bl	10004448 <tu_fifo_write>
10003856:	6962      	ldr	r2, [r4, #20]
10003858:	69a3      	ldr	r3, [r4, #24]
1000385a:	f3bf 8f5f 	dmb	sy
1000385e:	2100      	movs	r1, #0
10003860:	6011      	str	r1, [r2, #0]
10003862:	f383 8810 	msr	PRIMASK, r3
10003866:	b004      	add	sp, #16
10003868:	bd10      	pop	{r4, pc}
1000386a:	46c0      	nop			; (mov r8, r8)
1000386c:	20001e2c 	.word	0x20001e2c

10003870 <usbd_edpt_open>:
10003870:	2270      	movs	r2, #112	; 0x70
10003872:	b570      	push	{r4, r5, r6, lr}
10003874:	788b      	ldrb	r3, [r1, #2]
10003876:	000c      	movs	r4, r1
10003878:	421a      	tst	r2, r3
1000387a:	d001      	beq.n	10003880 <usbd_edpt_open+0x10>
1000387c:	2000      	movs	r0, #0
1000387e:	bd70      	pop	{r4, r5, r6, pc}
10003880:	4b06      	ldr	r3, [pc, #24]	; (1000389c <usbd_edpt_open+0x2c>)
10003882:	0020      	movs	r0, r4
10003884:	781d      	ldrb	r5, [r3, #0]
10003886:	4b06      	ldr	r3, [pc, #24]	; (100038a0 <usbd_edpt_open+0x30>)
10003888:	7899      	ldrb	r1, [r3, #2]
1000388a:	f000 fc55 	bl	10004138 <tu_edpt_validate>
1000388e:	2800      	cmp	r0, #0
10003890:	d0f4      	beq.n	1000387c <usbd_edpt_open+0xc>
10003892:	0021      	movs	r1, r4
10003894:	0028      	movs	r0, r5
10003896:	f7ff f9a7 	bl	10002be8 <dcd_edpt_open>
1000389a:	e7f0      	b.n	1000387e <usbd_edpt_open+0xe>
1000389c:	20000eec 	.word	0x20000eec
100038a0:	20001dd4 	.word	0x20001dd4

100038a4 <usbd_edpt_claim>:
100038a4:	4b07      	ldr	r3, [pc, #28]	; (100038c4 <usbd_edpt_claim+0x20>)
100038a6:	0008      	movs	r0, r1
100038a8:	6819      	ldr	r1, [r3, #0]
100038aa:	237f      	movs	r3, #127	; 0x7f
100038ac:	b510      	push	{r4, lr}
100038ae:	4003      	ands	r3, r0
100038b0:	09c0      	lsrs	r0, r0, #7
100038b2:	005b      	lsls	r3, r3, #1
100038b4:	3033      	adds	r0, #51	; 0x33
100038b6:	1818      	adds	r0, r3, r0
100038b8:	4b03      	ldr	r3, [pc, #12]	; (100038c8 <usbd_edpt_claim+0x24>)
100038ba:	1818      	adds	r0, r3, r0
100038bc:	f000 fbf8 	bl	100040b0 <tu_edpt_claim>
100038c0:	bd10      	pop	{r4, pc}
100038c2:	46c0      	nop			; (mov r8, r8)
100038c4:	20001e28 	.word	0x20001e28
100038c8:	20001dd4 	.word	0x20001dd4

100038cc <usbd_edpt_release>:
100038cc:	4b07      	ldr	r3, [pc, #28]	; (100038ec <usbd_edpt_release+0x20>)
100038ce:	0008      	movs	r0, r1
100038d0:	6819      	ldr	r1, [r3, #0]
100038d2:	237f      	movs	r3, #127	; 0x7f
100038d4:	b510      	push	{r4, lr}
100038d6:	4003      	ands	r3, r0
100038d8:	09c0      	lsrs	r0, r0, #7
100038da:	005b      	lsls	r3, r3, #1
100038dc:	3033      	adds	r0, #51	; 0x33
100038de:	1818      	adds	r0, r3, r0
100038e0:	4b03      	ldr	r3, [pc, #12]	; (100038f0 <usbd_edpt_release+0x24>)
100038e2:	1818      	adds	r0, r3, r0
100038e4:	f000 fc0c 	bl	10004100 <tu_edpt_release>
100038e8:	bd10      	pop	{r4, pc}
100038ea:	46c0      	nop			; (mov r8, r8)
100038ec:	20001e28 	.word	0x20001e28
100038f0:	20001dd4 	.word	0x20001dd4

100038f4 <usbd_edpt_xfer>:
100038f4:	207f      	movs	r0, #127	; 0x7f
100038f6:	b570      	push	{r4, r5, r6, lr}
100038f8:	4008      	ands	r0, r1
100038fa:	4c0f      	ldr	r4, [pc, #60]	; (10003938 <usbd_edpt_xfer+0x44>)
100038fc:	0040      	lsls	r0, r0, #1
100038fe:	09cd      	lsrs	r5, r1, #7
10003900:	1824      	adds	r4, r4, r0
10003902:	1964      	adds	r4, r4, r5
10003904:	3430      	adds	r4, #48	; 0x30
10003906:	78e5      	ldrb	r5, [r4, #3]
10003908:	2000      	movs	r0, #0
1000390a:	07ed      	lsls	r5, r5, #31
1000390c:	d500      	bpl.n	10003910 <usbd_edpt_xfer+0x1c>
1000390e:	bd70      	pop	{r4, r5, r6, pc}
10003910:	2601      	movs	r6, #1
10003912:	78e5      	ldrb	r5, [r4, #3]
10003914:	4809      	ldr	r0, [pc, #36]	; (1000393c <usbd_edpt_xfer+0x48>)
10003916:	4335      	orrs	r5, r6
10003918:	7800      	ldrb	r0, [r0, #0]
1000391a:	70e5      	strb	r5, [r4, #3]
1000391c:	f7ff f9ec 	bl	10002cf8 <dcd_edpt_xfer>
10003920:	2800      	cmp	r0, #0
10003922:	d1f4      	bne.n	1000390e <usbd_edpt_xfer+0x1a>
10003924:	2201      	movs	r2, #1
10003926:	78e3      	ldrb	r3, [r4, #3]
10003928:	4393      	bics	r3, r2
1000392a:	70e3      	strb	r3, [r4, #3]
1000392c:	78e3      	ldrb	r3, [r4, #3]
1000392e:	3203      	adds	r2, #3
10003930:	4393      	bics	r3, r2
10003932:	70e3      	strb	r3, [r4, #3]
10003934:	e7eb      	b.n	1000390e <usbd_edpt_xfer+0x1a>
10003936:	46c0      	nop			; (mov r8, r8)
10003938:	20001dd4 	.word	0x20001dd4
1000393c:	20000eec 	.word	0x20000eec

10003940 <tud_control_status>:
10003940:	b570      	push	{r4, r5, r6, lr}
10003942:	4e0a      	ldr	r6, [pc, #40]	; (1000396c <tud_control_status+0x2c>)
10003944:	0005      	movs	r5, r0
10003946:	0030      	movs	r0, r6
10003948:	2208      	movs	r2, #8
1000394a:	000c      	movs	r4, r1
1000394c:	f7fe fbea 	bl	10002124 <__wrap___aeabi_memcpy>
10003950:	2300      	movs	r3, #0
10003952:	217f      	movs	r1, #127	; 0x7f
10003954:	60f3      	str	r3, [r6, #12]
10003956:	7822      	ldrb	r2, [r4, #0]
10003958:	60b3      	str	r3, [r6, #8]
1000395a:	4291      	cmp	r1, r2
1000395c:	415b      	adcs	r3, r3
1000395e:	0028      	movs	r0, r5
10003960:	01d9      	lsls	r1, r3, #7
10003962:	2200      	movs	r2, #0
10003964:	2300      	movs	r3, #0
10003966:	f7ff ffc5 	bl	100038f4 <usbd_edpt_xfer>
1000396a:	bd70      	pop	{r4, r5, r6, pc}
1000396c:	20001d78 	.word	0x20001d78

10003970 <tud_control_xfer>:
10003970:	b5f8      	push	{r3, r4, r5, r6, r7, lr}
10003972:	46ce      	mov	lr, r9
10003974:	4647      	mov	r7, r8
10003976:	4691      	mov	r9, r2
10003978:	4e2a      	ldr	r6, [pc, #168]	; (10003a24 <tud_control_xfer+0xb4>)
1000397a:	b580      	push	{r7, lr}
1000397c:	2208      	movs	r2, #8
1000397e:	0007      	movs	r7, r0
10003980:	0030      	movs	r0, r6
10003982:	000d      	movs	r5, r1
10003984:	4698      	mov	r8, r3
10003986:	f7fe fbcd 	bl	10002124 <__wrap___aeabi_memcpy>
1000398a:	464b      	mov	r3, r9
1000398c:	60b3      	str	r3, [r6, #8]
1000398e:	2300      	movs	r3, #0
10003990:	81f3      	strh	r3, [r6, #14]
10003992:	79ec      	ldrb	r4, [r5, #7]
10003994:	79a9      	ldrb	r1, [r5, #6]
10003996:	0224      	lsls	r4, r4, #8
10003998:	430c      	orrs	r4, r1
1000399a:	1c23      	adds	r3, r4, #0
1000399c:	4544      	cmp	r4, r8
1000399e:	d900      	bls.n	100039a2 <tud_control_xfer+0x32>
100039a0:	4643      	mov	r3, r8
100039a2:	b29a      	uxth	r2, r3
100039a4:	4690      	mov	r8, r2
100039a6:	81b3      	strh	r3, [r6, #12]
100039a8:	2c00      	cmp	r4, #0
100039aa:	d013      	beq.n	100039d4 <tud_control_xfer+0x64>
100039ac:	2a00      	cmp	r2, #0
100039ae:	d01f      	beq.n	100039f0 <tud_control_xfer+0x80>
100039b0:	464b      	mov	r3, r9
100039b2:	2b00      	cmp	r3, #0
100039b4:	d034      	beq.n	10003a20 <tud_control_xfer+0xb0>
100039b6:	1c13      	adds	r3, r2, #0
100039b8:	2a40      	cmp	r2, #64	; 0x40
100039ba:	d81f      	bhi.n	100039fc <tud_control_xfer+0x8c>
100039bc:	b29b      	uxth	r3, r3
100039be:	4698      	mov	r8, r3
100039c0:	7833      	ldrb	r3, [r6, #0]
100039c2:	2b7f      	cmp	r3, #127	; 0x7f
100039c4:	d820      	bhi.n	10003a08 <tud_control_xfer+0x98>
100039c6:	2100      	movs	r1, #0
100039c8:	4a17      	ldr	r2, [pc, #92]	; (10003a28 <tud_control_xfer+0xb8>)
100039ca:	4643      	mov	r3, r8
100039cc:	0038      	movs	r0, r7
100039ce:	f7ff ff91 	bl	100038f4 <usbd_edpt_xfer>
100039d2:	e009      	b.n	100039e8 <tud_control_xfer+0x78>
100039d4:	227f      	movs	r2, #127	; 0x7f
100039d6:	782b      	ldrb	r3, [r5, #0]
100039d8:	0038      	movs	r0, r7
100039da:	429a      	cmp	r2, r3
100039dc:	4164      	adcs	r4, r4
100039de:	2300      	movs	r3, #0
100039e0:	2200      	movs	r2, #0
100039e2:	01e1      	lsls	r1, r4, #7
100039e4:	f7ff ff86 	bl	100038f4 <usbd_edpt_xfer>
100039e8:	bcc0      	pop	{r6, r7}
100039ea:	46b9      	mov	r9, r7
100039ec:	46b0      	mov	r8, r6
100039ee:	bdf8      	pop	{r3, r4, r5, r6, r7, pc}
100039f0:	7833      	ldrb	r3, [r6, #0]
100039f2:	2b7f      	cmp	r3, #127	; 0x7f
100039f4:	d911      	bls.n	10003a1a <tud_control_xfer+0xaa>
100039f6:	2180      	movs	r1, #128	; 0x80
100039f8:	2200      	movs	r2, #0
100039fa:	e7e6      	b.n	100039ca <tud_control_xfer+0x5a>
100039fc:	2340      	movs	r3, #64	; 0x40
100039fe:	b29b      	uxth	r3, r3
10003a00:	4698      	mov	r8, r3
10003a02:	7833      	ldrb	r3, [r6, #0]
10003a04:	2b7f      	cmp	r3, #127	; 0x7f
10003a06:	d9de      	bls.n	100039c6 <tud_control_xfer+0x56>
10003a08:	4c07      	ldr	r4, [pc, #28]	; (10003a28 <tud_control_xfer+0xb8>)
10003a0a:	4642      	mov	r2, r8
10003a0c:	4649      	mov	r1, r9
10003a0e:	0020      	movs	r0, r4
10003a10:	f7fe fb88 	bl	10002124 <__wrap___aeabi_memcpy>
10003a14:	2180      	movs	r1, #128	; 0x80
10003a16:	0022      	movs	r2, r4
10003a18:	e7d7      	b.n	100039ca <tud_control_xfer+0x5a>
10003a1a:	2100      	movs	r1, #0
10003a1c:	2200      	movs	r2, #0
10003a1e:	e7d4      	b.n	100039ca <tud_control_xfer+0x5a>
10003a20:	2000      	movs	r0, #0
10003a22:	e7e1      	b.n	100039e8 <tud_control_xfer+0x78>
10003a24:	20001d78 	.word	0x20001d78
10003a28:	20001d94 	.word	0x20001d94

10003a2c <usbd_control_reset>:
10003a2c:	b510      	push	{r4, lr}
10003a2e:	2214      	movs	r2, #20
10003a30:	2100      	movs	r1, #0
10003a32:	4802      	ldr	r0, [pc, #8]	; (10003a3c <usbd_control_reset+0x10>)
10003a34:	f7fe fb70 	bl	10002118 <__wrap_memset>
10003a38:	bd10      	pop	{r4, pc}
10003a3a:	46c0      	nop			; (mov r8, r8)
10003a3c:	20001d78 	.word	0x20001d78

10003a40 <usbd_control_set_complete_callback>:
10003a40:	4b01      	ldr	r3, [pc, #4]	; (10003a48 <usbd_control_set_complete_callback+0x8>)
10003a42:	6118      	str	r0, [r3, #16]
10003a44:	4770      	bx	lr
10003a46:	46c0      	nop			; (mov r8, r8)
10003a48:	20001d78 	.word	0x20001d78

10003a4c <usbd_control_set_request>:
10003a4c:	b510      	push	{r4, lr}
10003a4e:	4c05      	ldr	r4, [pc, #20]	; (10003a64 <usbd_control_set_request+0x18>)
10003a50:	0001      	movs	r1, r0
10003a52:	2208      	movs	r2, #8
10003a54:	0020      	movs	r0, r4
10003a56:	f7fe fb65 	bl	10002124 <__wrap___aeabi_memcpy>
10003a5a:	2300      	movs	r3, #0
10003a5c:	60a3      	str	r3, [r4, #8]
10003a5e:	60e3      	str	r3, [r4, #12]
10003a60:	bd10      	pop	{r4, pc}
10003a62:	46c0      	nop			; (mov r8, r8)
10003a64:	20001d78 	.word	0x20001d78

10003a68 <usbd_control_xfer_cb>:
10003a68:	b5f8      	push	{r3, r4, r5, r6, r7, lr}
10003a6a:	4c3b      	ldr	r4, [pc, #236]	; (10003b58 <usbd_control_xfer_cb+0xf0>)
10003a6c:	001d      	movs	r5, r3
10003a6e:	7823      	ldrb	r3, [r4, #0]
10003a70:	0006      	movs	r6, r0
10003a72:	09da      	lsrs	r2, r3, #7
10003a74:	09c9      	lsrs	r1, r1, #7
10003a76:	428a      	cmp	r2, r1
10003a78:	d013      	beq.n	10003aa2 <usbd_control_xfer_cb+0x3a>
10003a7a:	2000      	movs	r0, #0
10003a7c:	2d00      	cmp	r5, #0
10003a7e:	d000      	beq.n	10003a82 <usbd_control_xfer_cb+0x1a>
10003a80:	bdf8      	pop	{r3, r4, r5, r6, r7, pc}
10003a82:	4b36      	ldr	r3, [pc, #216]	; (10003b5c <usbd_control_xfer_cb+0xf4>)
10003a84:	2b00      	cmp	r3, #0
10003a86:	d003      	beq.n	10003a90 <usbd_control_xfer_cb+0x28>
10003a88:	0021      	movs	r1, r4
10003a8a:	0030      	movs	r0, r6
10003a8c:	f7ff f89e 	bl	10002bcc <dcd_edpt0_status_complete>
10003a90:	6923      	ldr	r3, [r4, #16]
10003a92:	2b00      	cmp	r3, #0
10003a94:	d044      	beq.n	10003b20 <usbd_control_xfer_cb+0xb8>
10003a96:	0022      	movs	r2, r4
10003a98:	2103      	movs	r1, #3
10003a9a:	0030      	movs	r0, r6
10003a9c:	4798      	blx	r3
10003a9e:	2001      	movs	r0, #1
10003aa0:	e7ee      	b.n	10003a80 <usbd_control_xfer_cb+0x18>
10003aa2:	2b7f      	cmp	r3, #127	; 0x7f
10003aa4:	d806      	bhi.n	10003ab4 <usbd_control_xfer_cb+0x4c>
10003aa6:	68a0      	ldr	r0, [r4, #8]
10003aa8:	2800      	cmp	r0, #0
10003aaa:	d037      	beq.n	10003b1c <usbd_control_xfer_cb+0xb4>
10003aac:	002a      	movs	r2, r5
10003aae:	492c      	ldr	r1, [pc, #176]	; (10003b60 <usbd_control_xfer_cb+0xf8>)
10003ab0:	f7fe fb38 	bl	10002124 <__wrap___aeabi_memcpy>
10003ab4:	68a3      	ldr	r3, [r4, #8]
10003ab6:	89e2      	ldrh	r2, [r4, #14]
10003ab8:	1959      	adds	r1, r3, r5
10003aba:	1952      	adds	r2, r2, r5
10003abc:	88e3      	ldrh	r3, [r4, #6]
10003abe:	b292      	uxth	r2, r2
10003ac0:	81e2      	strh	r2, [r4, #14]
10003ac2:	60a1      	str	r1, [r4, #8]
10003ac4:	4293      	cmp	r3, r2
10003ac6:	d014      	beq.n	10003af2 <usbd_control_xfer_cb+0x8a>
10003ac8:	2d3f      	cmp	r5, #63	; 0x3f
10003aca:	d912      	bls.n	10003af2 <usbd_control_xfer_cb+0x8a>
10003acc:	89a5      	ldrh	r5, [r4, #12]
10003ace:	1aa8      	subs	r0, r5, r2
10003ad0:	1c07      	adds	r7, r0, #0
10003ad2:	b280      	uxth	r0, r0
10003ad4:	2840      	cmp	r0, #64	; 0x40
10003ad6:	d82f      	bhi.n	10003b38 <usbd_control_xfer_cb+0xd0>
10003ad8:	7823      	ldrb	r3, [r4, #0]
10003ada:	b2bf      	uxth	r7, r7
10003adc:	2b7f      	cmp	r3, #127	; 0x7f
10003ade:	d82d      	bhi.n	10003b3c <usbd_control_xfer_cb+0xd4>
10003ae0:	2100      	movs	r1, #0
10003ae2:	42aa      	cmp	r2, r5
10003ae4:	d035      	beq.n	10003b52 <usbd_control_xfer_cb+0xea>
10003ae6:	4a1e      	ldr	r2, [pc, #120]	; (10003b60 <usbd_control_xfer_cb+0xf8>)
10003ae8:	003b      	movs	r3, r7
10003aea:	0030      	movs	r0, r6
10003aec:	f7ff ff02 	bl	100038f4 <usbd_edpt_xfer>
10003af0:	e7c6      	b.n	10003a80 <usbd_control_xfer_cb+0x18>
10003af2:	6923      	ldr	r3, [r4, #16]
10003af4:	2b00      	cmp	r3, #0
10003af6:	d005      	beq.n	10003b04 <usbd_control_xfer_cb+0x9c>
10003af8:	0022      	movs	r2, r4
10003afa:	2102      	movs	r1, #2
10003afc:	0030      	movs	r0, r6
10003afe:	4798      	blx	r3
10003b00:	2800      	cmp	r0, #0
10003b02:	d00f      	beq.n	10003b24 <usbd_control_xfer_cb+0xbc>
10003b04:	227f      	movs	r2, #127	; 0x7f
10003b06:	2100      	movs	r1, #0
10003b08:	7823      	ldrb	r3, [r4, #0]
10003b0a:	0030      	movs	r0, r6
10003b0c:	429a      	cmp	r2, r3
10003b0e:	4149      	adcs	r1, r1
10003b10:	2300      	movs	r3, #0
10003b12:	2200      	movs	r2, #0
10003b14:	01c9      	lsls	r1, r1, #7
10003b16:	f7ff feed 	bl	100038f4 <usbd_edpt_xfer>
10003b1a:	e7b1      	b.n	10003a80 <usbd_control_xfer_cb+0x18>
10003b1c:	2000      	movs	r0, #0
10003b1e:	e7af      	b.n	10003a80 <usbd_control_xfer_cb+0x18>
10003b20:	2001      	movs	r0, #1
10003b22:	e7ad      	b.n	10003a80 <usbd_control_xfer_cb+0x18>
10003b24:	2100      	movs	r1, #0
10003b26:	0030      	movs	r0, r6
10003b28:	f7ff f8f8 	bl	10002d1c <dcd_edpt_stall>
10003b2c:	0030      	movs	r0, r6
10003b2e:	2180      	movs	r1, #128	; 0x80
10003b30:	f7ff f8f4 	bl	10002d1c <dcd_edpt_stall>
10003b34:	2001      	movs	r0, #1
10003b36:	e7a3      	b.n	10003a80 <usbd_control_xfer_cb+0x18>
10003b38:	2740      	movs	r7, #64	; 0x40
10003b3a:	e7cd      	b.n	10003ad8 <usbd_control_xfer_cb+0x70>
10003b3c:	42aa      	cmp	r2, r5
10003b3e:	d007      	beq.n	10003b50 <usbd_control_xfer_cb+0xe8>
10003b40:	4c07      	ldr	r4, [pc, #28]	; (10003b60 <usbd_control_xfer_cb+0xf8>)
10003b42:	003a      	movs	r2, r7
10003b44:	0020      	movs	r0, r4
10003b46:	f7fe faed 	bl	10002124 <__wrap___aeabi_memcpy>
10003b4a:	2180      	movs	r1, #128	; 0x80
10003b4c:	0022      	movs	r2, r4
10003b4e:	e7cb      	b.n	10003ae8 <usbd_control_xfer_cb+0x80>
10003b50:	2180      	movs	r1, #128	; 0x80
10003b52:	2200      	movs	r2, #0
10003b54:	e7c8      	b.n	10003ae8 <usbd_control_xfer_cb+0x80>
10003b56:	46c0      	nop			; (mov r8, r8)
10003b58:	20001d78 	.word	0x20001d78
10003b5c:	10002bcd 	.word	0x10002bcd
10003b60:	20001d94 	.word	0x20001d94

10003b64 <tud_cdc_n_connected>:
10003b64:	b510      	push	{r4, lr}
10003b66:	0004      	movs	r4, r0
10003b68:	f7ff f95a 	bl	10002e20 <tud_mounted>
10003b6c:	2800      	cmp	r0, #0
10003b6e:	d101      	bne.n	10003b74 <tud_cdc_n_connected+0x10>
10003b70:	2000      	movs	r0, #0
10003b72:	bd10      	pop	{r4, pc}
10003b74:	f7ff f95c 	bl	10002e30 <tud_suspended>
10003b78:	2800      	cmp	r0, #0
10003b7a:	d1f9      	bne.n	10003b70 <tud_cdc_n_connected+0xc>
10003b7c:	20b2      	movs	r0, #178	; 0xb2
10003b7e:	0080      	lsls	r0, r0, #2
10003b80:	4344      	muls	r4, r0
10003b82:	4803      	ldr	r0, [pc, #12]	; (10003b90 <tud_cdc_n_connected+0x2c>)
10003b84:	1900      	adds	r0, r0, r4
10003b86:	7903      	ldrb	r3, [r0, #4]
10003b88:	2001      	movs	r0, #1
10003b8a:	4018      	ands	r0, r3
10003b8c:	e7f1      	b.n	10003b72 <tud_cdc_n_connected+0xe>
10003b8e:	46c0      	nop			; (mov r8, r8)
10003b90:	20001ab0 	.word	0x20001ab0

10003b94 <tud_cdc_n_available>:
10003b94:	23b2      	movs	r3, #178	; 0xb2
10003b96:	009b      	lsls	r3, r3, #2
10003b98:	4358      	muls	r0, r3
10003b9a:	b510      	push	{r4, lr}
10003b9c:	4b02      	ldr	r3, [pc, #8]	; (10003ba8 <tud_cdc_n_available+0x14>)
10003b9e:	3010      	adds	r0, #16
10003ba0:	18c0      	adds	r0, r0, r3
10003ba2:	f000 fb57 	bl	10004254 <tu_fifo_count>
10003ba6:	bd10      	pop	{r4, pc}
10003ba8:	20001ab0 	.word	0x20001ab0

10003bac <tud_cdc_n_read>:
10003bac:	b5f0      	push	{r4, r5, r6, r7, lr}
10003bae:	25b2      	movs	r5, #178	; 0xb2
10003bb0:	00ad      	lsls	r5, r5, #2
10003bb2:	4345      	muls	r5, r0
10003bb4:	002c      	movs	r4, r5
10003bb6:	46c6      	mov	lr, r8
10003bb8:	4f17      	ldr	r7, [pc, #92]	; (10003c18 <tud_cdc_n_read+0x6c>)
10003bba:	3410      	adds	r4, #16
10003bbc:	19e4      	adds	r4, r4, r7
10003bbe:	b500      	push	{lr}
10003bc0:	0020      	movs	r0, r4
10003bc2:	b292      	uxth	r2, r2
10003bc4:	f000 fbca 	bl	1000435c <tu_fifo_read_n>
10003bc8:	0006      	movs	r6, r0
10003bca:	0020      	movs	r0, r4
10003bcc:	f000 fb60 	bl	10004290 <tu_fifo_remaining>
10003bd0:	283f      	cmp	r0, #63	; 0x3f
10003bd2:	d803      	bhi.n	10003bdc <tud_cdc_n_read+0x30>
10003bd4:	0030      	movs	r0, r6
10003bd6:	bc80      	pop	{r7}
10003bd8:	46b8      	mov	r8, r7
10003bda:	bdf0      	pop	{r4, r5, r6, r7, pc}
10003bdc:	197b      	adds	r3, r7, r5
10003bde:	2000      	movs	r0, #0
10003be0:	78d9      	ldrb	r1, [r3, #3]
10003be2:	4698      	mov	r8, r3
10003be4:	f7ff fe5e 	bl	100038a4 <usbd_edpt_claim>
10003be8:	2800      	cmp	r0, #0
10003bea:	d0f3      	beq.n	10003bd4 <tud_cdc_n_read+0x28>
10003bec:	0020      	movs	r0, r4
10003bee:	f000 fb4f 	bl	10004290 <tu_fifo_remaining>
10003bf2:	283f      	cmp	r0, #63	; 0x3f
10003bf4:	d90a      	bls.n	10003c0c <tud_cdc_n_read+0x60>
10003bf6:	2392      	movs	r3, #146	; 0x92
10003bf8:	009b      	lsls	r3, r3, #2
10003bfa:	18ea      	adds	r2, r5, r3
10003bfc:	4643      	mov	r3, r8
10003bfe:	19d2      	adds	r2, r2, r7
10003c00:	78d9      	ldrb	r1, [r3, #3]
10003c02:	2000      	movs	r0, #0
10003c04:	2340      	movs	r3, #64	; 0x40
10003c06:	f7ff fe75 	bl	100038f4 <usbd_edpt_xfer>
10003c0a:	e7e3      	b.n	10003bd4 <tud_cdc_n_read+0x28>
10003c0c:	4643      	mov	r3, r8
10003c0e:	2000      	movs	r0, #0
10003c10:	78d9      	ldrb	r1, [r3, #3]
10003c12:	f7ff fe5b 	bl	100038cc <usbd_edpt_release>
10003c16:	e7dd      	b.n	10003bd4 <tud_cdc_n_read+0x28>
10003c18:	20001ab0 	.word	0x20001ab0

10003c1c <tud_cdc_n_write_flush>:
10003c1c:	b5f8      	push	{r3, r4, r5, r6, r7, lr}
10003c1e:	0004      	movs	r4, r0
10003c20:	f7ff f8fe 	bl	10002e20 <tud_mounted>
10003c24:	2800      	cmp	r0, #0
10003c26:	d101      	bne.n	10003c2c <tud_cdc_n_write_flush+0x10>
10003c28:	2000      	movs	r0, #0
10003c2a:	bdf8      	pop	{r3, r4, r5, r6, r7, pc}
10003c2c:	f7ff f900 	bl	10002e30 <tud_suspended>
10003c30:	2800      	cmp	r0, #0
10003c32:	d1f9      	bne.n	10003c28 <tud_cdc_n_write_flush+0xc>
10003c34:	20b2      	movs	r0, #178	; 0xb2
10003c36:	0080      	lsls	r0, r0, #2
10003c38:	4344      	muls	r4, r0
10003c3a:	0025      	movs	r5, r4
10003c3c:	4e14      	ldr	r6, [pc, #80]	; (10003c90 <tud_cdc_n_write_flush+0x74>)
10003c3e:	3524      	adds	r5, #36	; 0x24
10003c40:	19ad      	adds	r5, r5, r6
10003c42:	0028      	movs	r0, r5
10003c44:	f000 fb06 	bl	10004254 <tu_fifo_count>
10003c48:	2800      	cmp	r0, #0
10003c4a:	d0ed      	beq.n	10003c28 <tud_cdc_n_write_flush+0xc>
10003c4c:	1937      	adds	r7, r6, r4
10003c4e:	2000      	movs	r0, #0
10003c50:	78b9      	ldrb	r1, [r7, #2]
10003c52:	f7ff fe27 	bl	100038a4 <usbd_edpt_claim>
10003c56:	2800      	cmp	r0, #0
10003c58:	d0e6      	beq.n	10003c28 <tud_cdc_n_write_flush+0xc>
10003c5a:	23a2      	movs	r3, #162	; 0xa2
10003c5c:	009b      	lsls	r3, r3, #2
10003c5e:	469c      	mov	ip, r3
10003c60:	4464      	add	r4, ip
10003c62:	19a4      	adds	r4, r4, r6
10003c64:	0021      	movs	r1, r4
10003c66:	0028      	movs	r0, r5
10003c68:	2240      	movs	r2, #64	; 0x40
10003c6a:	f000 fb77 	bl	1000435c <tu_fifo_read_n>
10003c6e:	78b9      	ldrb	r1, [r7, #2]
10003c70:	1e05      	subs	r5, r0, #0
10003c72:	d008      	beq.n	10003c86 <tud_cdc_n_write_flush+0x6a>
10003c74:	0003      	movs	r3, r0
10003c76:	0022      	movs	r2, r4
10003c78:	2000      	movs	r0, #0
10003c7a:	f7ff fe3b 	bl	100038f4 <usbd_edpt_xfer>
10003c7e:	2800      	cmp	r0, #0
10003c80:	d0d2      	beq.n	10003c28 <tud_cdc_n_write_flush+0xc>
10003c82:	0028      	movs	r0, r5
10003c84:	e7d1      	b.n	10003c2a <tud_cdc_n_write_flush+0xe>
10003c86:	2000      	movs	r0, #0
10003c88:	f7ff fe20 	bl	100038cc <usbd_edpt_release>
10003c8c:	e7cc      	b.n	10003c28 <tud_cdc_n_write_flush+0xc>
10003c8e:	46c0      	nop			; (mov r8, r8)
10003c90:	20001ab0 	.word	0x20001ab0

10003c94 <tud_cdc_n_write>:
10003c94:	b570      	push	{r4, r5, r6, lr}
10003c96:	24b2      	movs	r4, #178	; 0xb2
10003c98:	00a4      	lsls	r4, r4, #2
10003c9a:	4344      	muls	r4, r0
10003c9c:	4b09      	ldr	r3, [pc, #36]	; (10003cc4 <tud_cdc_n_write+0x30>)
10003c9e:	3424      	adds	r4, #36	; 0x24
10003ca0:	18e4      	adds	r4, r4, r3
10003ca2:	0005      	movs	r5, r0
10003ca4:	b292      	uxth	r2, r2
10003ca6:	0020      	movs	r0, r4
10003ca8:	f000 fc12 	bl	100044d0 <tu_fifo_write_n>
10003cac:	0006      	movs	r6, r0
10003cae:	0020      	movs	r0, r4
10003cb0:	f000 fad0 	bl	10004254 <tu_fifo_count>
10003cb4:	283f      	cmp	r0, #63	; 0x3f
10003cb6:	d801      	bhi.n	10003cbc <tud_cdc_n_write+0x28>
10003cb8:	0030      	movs	r0, r6
10003cba:	bd70      	pop	{r4, r5, r6, pc}
10003cbc:	0028      	movs	r0, r5
10003cbe:	f7ff ffad 	bl	10003c1c <tud_cdc_n_write_flush>
10003cc2:	e7f9      	b.n	10003cb8 <tud_cdc_n_write+0x24>
10003cc4:	20001ab0 	.word	0x20001ab0

10003cc8 <tud_cdc_n_write_available>:
10003cc8:	23b2      	movs	r3, #178	; 0xb2
10003cca:	009b      	lsls	r3, r3, #2
10003ccc:	4358      	muls	r0, r3
10003cce:	b510      	push	{r4, lr}
10003cd0:	4b02      	ldr	r3, [pc, #8]	; (10003cdc <tud_cdc_n_write_available+0x14>)
10003cd2:	3024      	adds	r0, #36	; 0x24
10003cd4:	18c0      	adds	r0, r0, r3
10003cd6:	f000 fadb 	bl	10004290 <tu_fifo_remaining>
10003cda:	bd10      	pop	{r4, pc}
10003cdc:	20001ab0 	.word	0x20001ab0

10003ce0 <cdcd_init>:
10003ce0:	22b2      	movs	r2, #178	; 0xb2
10003ce2:	b5f0      	push	{r4, r5, r6, r7, lr}
10003ce4:	4c1b      	ldr	r4, [pc, #108]	; (10003d54 <cdcd_init+0x74>)
10003ce6:	b083      	sub	sp, #12
10003ce8:	2100      	movs	r1, #0
10003cea:	0020      	movs	r0, r4
10003cec:	0092      	lsls	r2, r2, #2
10003cee:	f7fe fa13 	bl	10002118 <__wrap_memset>
10003cf2:	23ff      	movs	r3, #255	; 0xff
10003cf4:	7163      	strb	r3, [r4, #5]
10003cf6:	4b18      	ldr	r3, [pc, #96]	; (10003d58 <cdcd_init+0x78>)
10003cf8:	2680      	movs	r6, #128	; 0x80
10003cfa:	2500      	movs	r5, #0
10003cfc:	80e3      	strh	r3, [r4, #6]
10003cfe:	2701      	movs	r7, #1
10003d00:	2308      	movs	r3, #8
10003d02:	0021      	movs	r1, r4
10003d04:	0020      	movs	r0, r4
10003d06:	0076      	lsls	r6, r6, #1
10003d08:	7323      	strb	r3, [r4, #12]
10003d0a:	0032      	movs	r2, r6
10003d0c:	8127      	strh	r7, [r4, #8]
10003d0e:	3138      	adds	r1, #56	; 0x38
10003d10:	9500      	str	r5, [sp, #0]
10003d12:	3b07      	subs	r3, #7
10003d14:	3010      	adds	r0, #16
10003d16:	f000 fa65 	bl	100041e4 <tu_fifo_config>
10003d1a:	0021      	movs	r1, r4
10003d1c:	0020      	movs	r0, r4
10003d1e:	3139      	adds	r1, #57	; 0x39
10003d20:	0032      	movs	r2, r6
10003d22:	31ff      	adds	r1, #255	; 0xff
10003d24:	2301      	movs	r3, #1
10003d26:	9700      	str	r7, [sp, #0]
10003d28:	3024      	adds	r0, #36	; 0x24
10003d2a:	f000 fa5b 	bl	100041e4 <tu_fifo_config>
10003d2e:	238e      	movs	r3, #142	; 0x8e
10003d30:	009b      	lsls	r3, r3, #2
10003d32:	18e6      	adds	r6, r4, r3
10003d34:	0030      	movs	r0, r6
10003d36:	f7fc ff79 	bl	10000c2c <mutex_init>
10003d3a:	2390      	movs	r3, #144	; 0x90
10003d3c:	009b      	lsls	r3, r3, #2
10003d3e:	6226      	str	r6, [r4, #32]
10003d40:	18e6      	adds	r6, r4, r3
10003d42:	0030      	movs	r0, r6
10003d44:	61e5      	str	r5, [r4, #28]
10003d46:	f7fc ff71 	bl	10000c2c <mutex_init>
10003d4a:	6326      	str	r6, [r4, #48]	; 0x30
10003d4c:	6365      	str	r5, [r4, #52]	; 0x34
10003d4e:	b003      	add	sp, #12
10003d50:	bdf0      	pop	{r4, r5, r6, r7, pc}
10003d52:	46c0      	nop			; (mov r8, r8)
10003d54:	20001ab0 	.word	0x20001ab0
10003d58:	ffffc200 	.word	0xffffc200

10003d5c <cdcd_reset>:
10003d5c:	b510      	push	{r4, lr}
10003d5e:	4c09      	ldr	r4, [pc, #36]	; (10003d84 <cdcd_reset+0x28>)
10003d60:	2205      	movs	r2, #5
10003d62:	2100      	movs	r1, #0
10003d64:	0020      	movs	r0, r4
10003d66:	f7fe f9d7 	bl	10002118 <__wrap_memset>
10003d6a:	0020      	movs	r0, r4
10003d6c:	3424      	adds	r4, #36	; 0x24
10003d6e:	3010      	adds	r0, #16
10003d70:	f000 fc62 	bl	10004638 <tu_fifo_clear>
10003d74:	0020      	movs	r0, r4
10003d76:	f000 fc5f 	bl	10004638 <tu_fifo_clear>
10003d7a:	2101      	movs	r1, #1
10003d7c:	0020      	movs	r0, r4
10003d7e:	f000 fc7b 	bl	10004678 <tu_fifo_set_overwritable>
10003d82:	bd10      	pop	{r4, pc}
10003d84:	20001ab0 	.word	0x20001ab0

10003d88 <cdcd_open>:
10003d88:	b5f0      	push	{r4, r5, r6, r7, lr}
10003d8a:	794b      	ldrb	r3, [r1, #5]
10003d8c:	0006      	movs	r6, r0
10003d8e:	b083      	sub	sp, #12
10003d90:	2b02      	cmp	r3, #2
10003d92:	d102      	bne.n	10003d9a <cdcd_open+0x12>
10003d94:	798b      	ldrb	r3, [r1, #6]
10003d96:	2b02      	cmp	r3, #2
10003d98:	d003      	beq.n	10003da2 <cdcd_open+0x1a>
10003d9a:	2500      	movs	r5, #0
10003d9c:	0028      	movs	r0, r5
10003d9e:	b003      	add	sp, #12
10003da0:	bdf0      	pop	{r4, r5, r6, r7, pc}
10003da2:	4f30      	ldr	r7, [pc, #192]	; (10003e64 <cdcd_open+0xdc>)
10003da4:	78bb      	ldrb	r3, [r7, #2]
10003da6:	2b00      	cmp	r3, #0
10003da8:	d1f7      	bne.n	10003d9a <cdcd_open+0x12>
10003daa:	788b      	ldrb	r3, [r1, #2]
10003dac:	2509      	movs	r5, #9
10003dae:	703b      	strb	r3, [r7, #0]
10003db0:	780c      	ldrb	r4, [r1, #0]
10003db2:	190c      	adds	r4, r1, r4
10003db4:	7863      	ldrb	r3, [r4, #1]
10003db6:	2b24      	cmp	r3, #36	; 0x24
10003db8:	d10b      	bne.n	10003dd2 <cdcd_open+0x4a>
10003dba:	2a08      	cmp	r2, #8
10003dbc:	d802      	bhi.n	10003dc4 <cdcd_open+0x3c>
10003dbe:	e00f      	b.n	10003de0 <cdcd_open+0x58>
10003dc0:	42aa      	cmp	r2, r5
10003dc2:	d30d      	bcc.n	10003de0 <cdcd_open+0x58>
10003dc4:	7823      	ldrb	r3, [r4, #0]
10003dc6:	18e4      	adds	r4, r4, r3
10003dc8:	18ed      	adds	r5, r5, r3
10003dca:	7863      	ldrb	r3, [r4, #1]
10003dcc:	b2ad      	uxth	r5, r5
10003dce:	2b24      	cmp	r3, #36	; 0x24
10003dd0:	d0f6      	beq.n	10003dc0 <cdcd_open+0x38>
10003dd2:	2b05      	cmp	r3, #5
10003dd4:	d021      	beq.n	10003e1a <cdcd_open+0x92>
10003dd6:	2b04      	cmp	r3, #4
10003dd8:	d102      	bne.n	10003de0 <cdcd_open+0x58>
10003dda:	7963      	ldrb	r3, [r4, #5]
10003ddc:	2b0a      	cmp	r3, #10
10003dde:	d02f      	beq.n	10003e40 <cdcd_open+0xb8>
10003de0:	4c21      	ldr	r4, [pc, #132]	; (10003e68 <cdcd_open+0xe0>)
10003de2:	0020      	movs	r0, r4
10003de4:	f000 fa54 	bl	10004290 <tu_fifo_remaining>
10003de8:	283f      	cmp	r0, #63	; 0x3f
10003dea:	d9d7      	bls.n	10003d9c <cdcd_open+0x14>
10003dec:	0026      	movs	r6, r4
10003dee:	3e10      	subs	r6, #16
10003df0:	2000      	movs	r0, #0
10003df2:	78f1      	ldrb	r1, [r6, #3]
10003df4:	f7ff fd56 	bl	100038a4 <usbd_edpt_claim>
10003df8:	2800      	cmp	r0, #0
10003dfa:	d0cf      	beq.n	10003d9c <cdcd_open+0x14>
10003dfc:	0020      	movs	r0, r4
10003dfe:	f000 fa47 	bl	10004290 <tu_fifo_remaining>
10003e02:	283f      	cmp	r0, #63	; 0x3f
10003e04:	d917      	bls.n	10003e36 <cdcd_open+0xae>
10003e06:	238e      	movs	r3, #142	; 0x8e
10003e08:	009b      	lsls	r3, r3, #2
10003e0a:	18e2      	adds	r2, r4, r3
10003e0c:	3bf9      	subs	r3, #249	; 0xf9
10003e0e:	78f1      	ldrb	r1, [r6, #3]
10003e10:	3bff      	subs	r3, #255	; 0xff
10003e12:	2000      	movs	r0, #0
10003e14:	f7ff fd6e 	bl	100038f4 <usbd_edpt_xfer>
10003e18:	e7c0      	b.n	10003d9c <cdcd_open+0x14>
10003e1a:	0021      	movs	r1, r4
10003e1c:	0030      	movs	r0, r6
10003e1e:	f7ff fd27 	bl	10003870 <usbd_edpt_open>
10003e22:	2800      	cmp	r0, #0
10003e24:	d0b9      	beq.n	10003d9a <cdcd_open+0x12>
10003e26:	78a3      	ldrb	r3, [r4, #2]
10003e28:	707b      	strb	r3, [r7, #1]
10003e2a:	7823      	ldrb	r3, [r4, #0]
10003e2c:	18ed      	adds	r5, r5, r3
10003e2e:	18e4      	adds	r4, r4, r3
10003e30:	7863      	ldrb	r3, [r4, #1]
10003e32:	b2ad      	uxth	r5, r5
10003e34:	e7cf      	b.n	10003dd6 <cdcd_open+0x4e>
10003e36:	78f1      	ldrb	r1, [r6, #3]
10003e38:	2000      	movs	r0, #0
10003e3a:	f7ff fd47 	bl	100038cc <usbd_edpt_release>
10003e3e:	e7ad      	b.n	10003d9c <cdcd_open+0x14>
10003e40:	4b0a      	ldr	r3, [pc, #40]	; (10003e6c <cdcd_open+0xe4>)
10003e42:	7827      	ldrb	r7, [r4, #0]
10003e44:	9301      	str	r3, [sp, #4]
10003e46:	3301      	adds	r3, #1
10003e48:	9300      	str	r3, [sp, #0]
10003e4a:	2202      	movs	r2, #2
10003e4c:	2302      	movs	r3, #2
10003e4e:	0030      	movs	r0, r6
10003e50:	19e1      	adds	r1, r4, r7
10003e52:	f7ff fc9b 	bl	1000378c <usbd_open_edpt_pair>
10003e56:	2800      	cmp	r0, #0
10003e58:	d09f      	beq.n	10003d9a <cdcd_open+0x12>
10003e5a:	350e      	adds	r5, #14
10003e5c:	19ed      	adds	r5, r5, r7
10003e5e:	b2ad      	uxth	r5, r5
10003e60:	e7be      	b.n	10003de0 <cdcd_open+0x58>
10003e62:	46c0      	nop			; (mov r8, r8)
10003e64:	20001ab0 	.word	0x20001ab0
10003e68:	20001ac0 	.word	0x20001ac0
10003e6c:	20001ab2 	.word	0x20001ab2

10003e70 <cdcd_control_xfer_cb>:
10003e70:	b5f8      	push	{r3, r4, r5, r6, r7, lr}
10003e72:	2360      	movs	r3, #96	; 0x60
10003e74:	0014      	movs	r4, r2
10003e76:	7812      	ldrb	r2, [r2, #0]
10003e78:	0005      	movs	r5, r0
10003e7a:	4013      	ands	r3, r2
10003e7c:	2000      	movs	r0, #0
10003e7e:	2b20      	cmp	r3, #32
10003e80:	d112      	bne.n	10003ea8 <cdcd_control_xfer_cb+0x38>
10003e82:	4a2f      	ldr	r2, [pc, #188]	; (10003f40 <cdcd_control_xfer_cb+0xd0>)
10003e84:	7963      	ldrb	r3, [r4, #5]
10003e86:	7927      	ldrb	r7, [r4, #4]
10003e88:	7816      	ldrb	r6, [r2, #0]
10003e8a:	021b      	lsls	r3, r3, #8
10003e8c:	433b      	orrs	r3, r7
10003e8e:	429e      	cmp	r6, r3
10003e90:	d10a      	bne.n	10003ea8 <cdcd_control_xfer_cb+0x38>
10003e92:	7863      	ldrb	r3, [r4, #1]
10003e94:	2b22      	cmp	r3, #34	; 0x22
10003e96:	d027      	beq.n	10003ee8 <cdcd_control_xfer_cb+0x78>
10003e98:	d807      	bhi.n	10003eaa <cdcd_control_xfer_cb+0x3a>
10003e9a:	2b20      	cmp	r3, #32
10003e9c:	d017      	beq.n	10003ece <cdcd_control_xfer_cb+0x5e>
10003e9e:	2b21      	cmp	r3, #33	; 0x21
10003ea0:	d102      	bne.n	10003ea8 <cdcd_control_xfer_cb+0x38>
10003ea2:	2901      	cmp	r1, #1
10003ea4:	d03d      	beq.n	10003f22 <cdcd_control_xfer_cb+0xb2>
10003ea6:	2001      	movs	r0, #1
10003ea8:	bdf8      	pop	{r3, r4, r5, r6, r7, pc}
10003eaa:	2b23      	cmp	r3, #35	; 0x23
10003eac:	d1fc      	bne.n	10003ea8 <cdcd_control_xfer_cb+0x38>
10003eae:	2901      	cmp	r1, #1
10003eb0:	d03f      	beq.n	10003f32 <cdcd_control_xfer_cb+0xc2>
10003eb2:	2903      	cmp	r1, #3
10003eb4:	d1f7      	bne.n	10003ea6 <cdcd_control_xfer_cb+0x36>
10003eb6:	4b23      	ldr	r3, [pc, #140]	; (10003f44 <cdcd_control_xfer_cb+0xd4>)
10003eb8:	2b00      	cmp	r3, #0
10003eba:	d0f4      	beq.n	10003ea6 <cdcd_control_xfer_cb+0x36>
10003ebc:	78e1      	ldrb	r1, [r4, #3]
10003ebe:	78a3      	ldrb	r3, [r4, #2]
10003ec0:	0209      	lsls	r1, r1, #8
10003ec2:	2000      	movs	r0, #0
10003ec4:	4319      	orrs	r1, r3
10003ec6:	e000      	b.n	10003eca <cdcd_control_xfer_cb+0x5a>
10003ec8:	bf00      	nop
10003eca:	2001      	movs	r0, #1
10003ecc:	e7ec      	b.n	10003ea8 <cdcd_control_xfer_cb+0x38>
10003ece:	2901      	cmp	r1, #1
10003ed0:	d027      	beq.n	10003f22 <cdcd_control_xfer_cb+0xb2>
10003ed2:	2903      	cmp	r1, #3
10003ed4:	d1e7      	bne.n	10003ea6 <cdcd_control_xfer_cb+0x36>
10003ed6:	4b1c      	ldr	r3, [pc, #112]	; (10003f48 <cdcd_control_xfer_cb+0xd8>)
10003ed8:	2b00      	cmp	r3, #0
10003eda:	d0e4      	beq.n	10003ea6 <cdcd_control_xfer_cb+0x36>
10003edc:	2000      	movs	r0, #0
10003ede:	1d91      	adds	r1, r2, #6
10003ee0:	f7fe fae2 	bl	100024a8 <tud_cdc_line_coding_cb>
10003ee4:	2001      	movs	r0, #1
10003ee6:	e7df      	b.n	10003ea8 <cdcd_control_xfer_cb+0x38>
10003ee8:	2901      	cmp	r1, #1
10003eea:	d022      	beq.n	10003f32 <cdcd_control_xfer_cb+0xc2>
10003eec:	2903      	cmp	r1, #3
10003eee:	d1da      	bne.n	10003ea6 <cdcd_control_xfer_cb+0x36>
10003ef0:	2501      	movs	r5, #1
10003ef2:	002e      	movs	r6, r5
10003ef4:	78a3      	ldrb	r3, [r4, #2]
10003ef6:	78e4      	ldrb	r4, [r4, #3]
10003ef8:	3902      	subs	r1, #2
10003efa:	0224      	lsls	r4, r4, #8
10003efc:	431c      	orrs	r4, r3
10003efe:	7114      	strb	r4, [r2, #4]
10003f00:	4026      	ands	r6, r4
10003f02:	3224      	adds	r2, #36	; 0x24
10003f04:	0010      	movs	r0, r2
10003f06:	4071      	eors	r1, r6
10003f08:	f000 fbb6 	bl	10004678 <tu_fifo_set_overwritable>
10003f0c:	4b0f      	ldr	r3, [pc, #60]	; (10003f4c <cdcd_control_xfer_cb+0xdc>)
10003f0e:	2b00      	cmp	r3, #0
10003f10:	d0c9      	beq.n	10003ea6 <cdcd_control_xfer_cb+0x36>
10003f12:	0862      	lsrs	r2, r4, #1
10003f14:	2000      	movs	r0, #0
10003f16:	0031      	movs	r1, r6
10003f18:	402a      	ands	r2, r5
10003f1a:	e000      	b.n	10003f1e <cdcd_control_xfer_cb+0xae>
10003f1c:	bf00      	nop
10003f1e:	2001      	movs	r0, #1
10003f20:	e7c2      	b.n	10003ea8 <cdcd_control_xfer_cb+0x38>
10003f22:	2307      	movs	r3, #7
10003f24:	0021      	movs	r1, r4
10003f26:	0028      	movs	r0, r5
10003f28:	4a09      	ldr	r2, [pc, #36]	; (10003f50 <cdcd_control_xfer_cb+0xe0>)
10003f2a:	f7ff fd21 	bl	10003970 <tud_control_xfer>
10003f2e:	2001      	movs	r0, #1
10003f30:	e7ba      	b.n	10003ea8 <cdcd_control_xfer_cb+0x38>
10003f32:	0021      	movs	r1, r4
10003f34:	0028      	movs	r0, r5
10003f36:	f7ff fd03 	bl	10003940 <tud_control_status>
10003f3a:	2001      	movs	r0, #1
10003f3c:	e7b4      	b.n	10003ea8 <cdcd_control_xfer_cb+0x38>
10003f3e:	46c0      	nop			; (mov r8, r8)
10003f40:	20001ab0 	.word	0x20001ab0
10003f44:	00000000 	.word	0x00000000
10003f48:	100024a9 	.word	0x100024a9
10003f4c:	00000000 	.word	0x00000000
10003f50:	20001ab6 	.word	0x20001ab6

10003f54 <cdcd_xfer_cb>:
10003f54:	b5f8      	push	{r3, r4, r5, r6, r7, lr}
10003f56:	4657      	mov	r7, sl
10003f58:	464e      	mov	r6, r9
10003f5a:	4645      	mov	r5, r8
10003f5c:	46de      	mov	lr, fp
10003f5e:	b5e0      	push	{r5, r6, r7, lr}
10003f60:	4f49      	ldr	r7, [pc, #292]	; (10004088 <cdcd_xfer_cb+0x134>)
10003f62:	4680      	mov	r8, r0
10003f64:	78fa      	ldrb	r2, [r7, #3]
10003f66:	000c      	movs	r4, r1
10003f68:	001e      	movs	r6, r3
10003f6a:	428a      	cmp	r2, r1
10003f6c:	d164      	bne.n	10004038 <cdcd_xfer_cb+0xe4>
10003f6e:	b29a      	uxth	r2, r3
10003f70:	2392      	movs	r3, #146	; 0x92
10003f72:	009b      	lsls	r3, r3, #2
10003f74:	18fd      	adds	r5, r7, r3
10003f76:	2310      	movs	r3, #16
10003f78:	469b      	mov	fp, r3
10003f7a:	44bb      	add	fp, r7
10003f7c:	0029      	movs	r1, r5
10003f7e:	4658      	mov	r0, fp
10003f80:	f000 faa6 	bl	100044d0 <tu_fifo_write_n>
10003f84:	4b41      	ldr	r3, [pc, #260]	; (1000408c <cdcd_xfer_cb+0x138>)
10003f86:	46d9      	mov	r9, fp
10003f88:	2b00      	cmp	r3, #0
10003f8a:	d018      	beq.n	10003fbe <cdcd_xfer_cb+0x6a>
10003f8c:	797b      	ldrb	r3, [r7, #5]
10003f8e:	46d9      	mov	r9, fp
10003f90:	2bff      	cmp	r3, #255	; 0xff
10003f92:	d014      	beq.n	10003fbe <cdcd_xfer_cb+0x6a>
10003f94:	2e00      	cmp	r6, #0
10003f96:	d012      	beq.n	10003fbe <cdcd_xfer_cb+0x6a>
10003f98:	19aa      	adds	r2, r5, r6
10003f9a:	4692      	mov	sl, r2
10003f9c:	e003      	b.n	10003fa6 <cdcd_xfer_cb+0x52>
10003f9e:	3501      	adds	r5, #1
10003fa0:	4555      	cmp	r5, sl
10003fa2:	d00c      	beq.n	10003fbe <cdcd_xfer_cb+0x6a>
10003fa4:	797b      	ldrb	r3, [r7, #5]
10003fa6:	782a      	ldrb	r2, [r5, #0]
10003fa8:	429a      	cmp	r2, r3
10003faa:	d1f8      	bne.n	10003f9e <cdcd_xfer_cb+0x4a>
10003fac:	4648      	mov	r0, r9
10003fae:	f000 f967 	bl	10004280 <tu_fifo_empty>
10003fb2:	2800      	cmp	r0, #0
10003fb4:	d1f3      	bne.n	10003f9e <cdcd_xfer_cb+0x4a>
10003fb6:	7979      	ldrb	r1, [r7, #5]
10003fb8:	e000      	b.n	10003fbc <cdcd_xfer_cb+0x68>
10003fba:	bf00      	nop
10003fbc:	e7ef      	b.n	10003f9e <cdcd_xfer_cb+0x4a>
10003fbe:	4b34      	ldr	r3, [pc, #208]	; (10004090 <cdcd_xfer_cb+0x13c>)
10003fc0:	2b00      	cmp	r3, #0
10003fc2:	d004      	beq.n	10003fce <cdcd_xfer_cb+0x7a>
10003fc4:	4648      	mov	r0, r9
10003fc6:	f000 f95b 	bl	10004280 <tu_fifo_empty>
10003fca:	2800      	cmp	r0, #0
10003fcc:	d052      	beq.n	10004074 <cdcd_xfer_cb+0x120>
10003fce:	4648      	mov	r0, r9
10003fd0:	f000 f95e 	bl	10004290 <tu_fifo_remaining>
10003fd4:	283f      	cmp	r0, #63	; 0x3f
10003fd6:	d834      	bhi.n	10004042 <cdcd_xfer_cb+0xee>
10003fd8:	464a      	mov	r2, r9
10003fda:	3a10      	subs	r2, #16
10003fdc:	7893      	ldrb	r3, [r2, #2]
10003fde:	42a3      	cmp	r3, r4
10003fe0:	d007      	beq.n	10003ff2 <cdcd_xfer_cb+0x9e>
10003fe2:	2401      	movs	r4, #1
10003fe4:	0020      	movs	r0, r4
10003fe6:	bcf0      	pop	{r4, r5, r6, r7}
10003fe8:	46bb      	mov	fp, r7
10003fea:	46b2      	mov	sl, r6
10003fec:	46a9      	mov	r9, r5
10003fee:	46a0      	mov	r8, r4
10003ff0:	bdf8      	pop	{r3, r4, r5, r6, r7, pc}
10003ff2:	4b28      	ldr	r3, [pc, #160]	; (10004094 <cdcd_xfer_cb+0x140>)
10003ff4:	2b00      	cmp	r3, #0
10003ff6:	d002      	beq.n	10003ffe <cdcd_xfer_cb+0xaa>
10003ff8:	2000      	movs	r0, #0
10003ffa:	e000      	b.n	10003ffe <cdcd_xfer_cb+0xaa>
10003ffc:	bf00      	nop
10003ffe:	2000      	movs	r0, #0
10004000:	f7ff fe0c 	bl	10003c1c <tud_cdc_n_write_flush>
10004004:	2800      	cmp	r0, #0
10004006:	d1ec      	bne.n	10003fe2 <cdcd_xfer_cb+0x8e>
10004008:	4d23      	ldr	r5, [pc, #140]	; (10004098 <cdcd_xfer_cb+0x144>)
1000400a:	0028      	movs	r0, r5
1000400c:	f000 f922 	bl	10004254 <tu_fifo_count>
10004010:	2800      	cmp	r0, #0
10004012:	d1e6      	bne.n	10003fe2 <cdcd_xfer_cb+0x8e>
10004014:	2e00      	cmp	r6, #0
10004016:	d0e4      	beq.n	10003fe2 <cdcd_xfer_cb+0x8e>
10004018:	06b3      	lsls	r3, r6, #26
1000401a:	d1e2      	bne.n	10003fe2 <cdcd_xfer_cb+0x8e>
1000401c:	3d24      	subs	r5, #36	; 0x24
1000401e:	4640      	mov	r0, r8
10004020:	78a9      	ldrb	r1, [r5, #2]
10004022:	f7ff fc3f 	bl	100038a4 <usbd_edpt_claim>
10004026:	1e04      	subs	r4, r0, #0
10004028:	d0db      	beq.n	10003fe2 <cdcd_xfer_cb+0x8e>
1000402a:	2300      	movs	r3, #0
1000402c:	2200      	movs	r2, #0
1000402e:	4640      	mov	r0, r8
10004030:	78a9      	ldrb	r1, [r5, #2]
10004032:	f7ff fc5f 	bl	100038f4 <usbd_edpt_xfer>
10004036:	e7d5      	b.n	10003fe4 <cdcd_xfer_cb+0x90>
10004038:	78bb      	ldrb	r3, [r7, #2]
1000403a:	428b      	cmp	r3, r1
1000403c:	d0d9      	beq.n	10003ff2 <cdcd_xfer_cb+0x9e>
1000403e:	2400      	movs	r4, #0
10004040:	e7d0      	b.n	10003fe4 <cdcd_xfer_cb+0x90>
10004042:	464d      	mov	r5, r9
10004044:	3d10      	subs	r5, #16
10004046:	2000      	movs	r0, #0
10004048:	78e9      	ldrb	r1, [r5, #3]
1000404a:	f7ff fc2b 	bl	100038a4 <usbd_edpt_claim>
1000404e:	2800      	cmp	r0, #0
10004050:	d101      	bne.n	10004056 <cdcd_xfer_cb+0x102>
10004052:	78ab      	ldrb	r3, [r5, #2]
10004054:	e7c3      	b.n	10003fde <cdcd_xfer_cb+0x8a>
10004056:	4648      	mov	r0, r9
10004058:	f000 f91a 	bl	10004290 <tu_fifo_remaining>
1000405c:	283f      	cmp	r0, #63	; 0x3f
1000405e:	d90c      	bls.n	1000407a <cdcd_xfer_cb+0x126>
10004060:	228e      	movs	r2, #142	; 0x8e
10004062:	0092      	lsls	r2, r2, #2
10004064:	2340      	movs	r3, #64	; 0x40
10004066:	2000      	movs	r0, #0
10004068:	78e9      	ldrb	r1, [r5, #3]
1000406a:	444a      	add	r2, r9
1000406c:	f7ff fc42 	bl	100038f4 <usbd_edpt_xfer>
10004070:	78ab      	ldrb	r3, [r5, #2]
10004072:	e7b4      	b.n	10003fde <cdcd_xfer_cb+0x8a>
10004074:	f7fe fb8a 	bl	1000278c <tud_cdc_rx_cb>
10004078:	e7a9      	b.n	10003fce <cdcd_xfer_cb+0x7a>
1000407a:	2000      	movs	r0, #0
1000407c:	78e9      	ldrb	r1, [r5, #3]
1000407e:	f7ff fc25 	bl	100038cc <usbd_edpt_release>
10004082:	78ab      	ldrb	r3, [r5, #2]
10004084:	e7ab      	b.n	10003fde <cdcd_xfer_cb+0x8a>
10004086:	46c0      	nop			; (mov r8, r8)
10004088:	20001ab0 	.word	0x20001ab0
1000408c:	00000000 	.word	0x00000000
10004090:	1000278d 	.word	0x1000278d
10004094:	00000000 	.word	0x00000000
10004098:	20001ad4 	.word	0x20001ad4

1000409c <tusb_init>:
1000409c:	b510      	push	{r4, lr}
1000409e:	2000      	movs	r0, #0
100040a0:	f7fe fed8 	bl	10002e54 <tud_init>
100040a4:	bd10      	pop	{r4, pc}
100040a6:	46c0      	nop			; (mov r8, r8)

100040a8 <tusb_inited>:
100040a8:	b510      	push	{r4, lr}
100040aa:	f7fe fec9 	bl	10002e40 <tud_inited>
100040ae:	bd10      	pop	{r4, pc}

100040b0 <tu_edpt_claim>:
100040b0:	7803      	ldrb	r3, [r0, #0]
100040b2:	b570      	push	{r4, r5, r6, lr}
100040b4:	07db      	lsls	r3, r3, #31
100040b6:	0004      	movs	r4, r0
100040b8:	000e      	movs	r6, r1
100040ba:	0fdd      	lsrs	r5, r3, #31
100040bc:	2b00      	cmp	r3, #0
100040be:	d117      	bne.n	100040f0 <tu_edpt_claim+0x40>
100040c0:	7803      	ldrb	r3, [r0, #0]
100040c2:	075b      	lsls	r3, r3, #29
100040c4:	d501      	bpl.n	100040ca <tu_edpt_claim+0x1a>
100040c6:	0028      	movs	r0, r5
100040c8:	bd70      	pop	{r4, r5, r6, pc}
100040ca:	2101      	movs	r1, #1
100040cc:	0030      	movs	r0, r6
100040ce:	4249      	negs	r1, r1
100040d0:	f001 f81e 	bl	10005110 <__mutex_enter_timeout_ms_veneer>
100040d4:	7823      	ldrb	r3, [r4, #0]
100040d6:	07db      	lsls	r3, r3, #31
100040d8:	0fdd      	lsrs	r5, r3, #31
100040da:	2b00      	cmp	r3, #0
100040dc:	d10a      	bne.n	100040f4 <tu_edpt_claim+0x44>
100040de:	7823      	ldrb	r3, [r4, #0]
100040e0:	075b      	lsls	r3, r3, #29
100040e2:	d408      	bmi.n	100040f6 <tu_edpt_claim+0x46>
100040e4:	2204      	movs	r2, #4
100040e6:	7823      	ldrb	r3, [r4, #0]
100040e8:	2501      	movs	r5, #1
100040ea:	4313      	orrs	r3, r2
100040ec:	7023      	strb	r3, [r4, #0]
100040ee:	e002      	b.n	100040f6 <tu_edpt_claim+0x46>
100040f0:	2500      	movs	r5, #0
100040f2:	e7e8      	b.n	100040c6 <tu_edpt_claim+0x16>
100040f4:	2500      	movs	r5, #0
100040f6:	0030      	movs	r0, r6
100040f8:	f000 ffda 	bl	100050b0 <__mutex_exit_veneer>
100040fc:	e7e3      	b.n	100040c6 <tu_edpt_claim+0x16>
100040fe:	46c0      	nop			; (mov r8, r8)

10004100 <tu_edpt_release>:
10004100:	b570      	push	{r4, r5, r6, lr}
10004102:	000d      	movs	r5, r1
10004104:	2101      	movs	r1, #1
10004106:	0004      	movs	r4, r0
10004108:	4249      	negs	r1, r1
1000410a:	0028      	movs	r0, r5
1000410c:	f001 f800 	bl	10005110 <__mutex_enter_timeout_ms_veneer>
10004110:	7823      	ldrb	r3, [r4, #0]
10004112:	075b      	lsls	r3, r3, #29
10004114:	0fde      	lsrs	r6, r3, #31
10004116:	2b00      	cmp	r3, #0
10004118:	db04      	blt.n	10004124 <tu_edpt_release+0x24>
1000411a:	0028      	movs	r0, r5
1000411c:	f000 ffc8 	bl	100050b0 <__mutex_exit_veneer>
10004120:	0030      	movs	r0, r6
10004122:	bd70      	pop	{r4, r5, r6, pc}
10004124:	7823      	ldrb	r3, [r4, #0]
10004126:	07db      	lsls	r3, r3, #31
10004128:	d404      	bmi.n	10004134 <tu_edpt_release+0x34>
1000412a:	2204      	movs	r2, #4
1000412c:	7823      	ldrb	r3, [r4, #0]
1000412e:	4393      	bics	r3, r2
10004130:	7023      	strb	r3, [r4, #0]
10004132:	e7f2      	b.n	1000411a <tu_edpt_release+0x1a>
10004134:	2600      	movs	r6, #0
10004136:	e7f0      	b.n	1000411a <tu_edpt_release+0x1a>

10004138 <tu_edpt_validate>:
10004138:	b510      	push	{r4, lr}
1000413a:	7943      	ldrb	r3, [r0, #5]
1000413c:	7904      	ldrb	r4, [r0, #4]
1000413e:	021b      	lsls	r3, r3, #8
10004140:	4323      	orrs	r3, r4
10004142:	055b      	lsls	r3, r3, #21
10004144:	0d5a      	lsrs	r2, r3, #21
10004146:	78c3      	ldrb	r3, [r0, #3]
10004148:	079b      	lsls	r3, r3, #30
1000414a:	0f9b      	lsrs	r3, r3, #30
1000414c:	2b02      	cmp	r3, #2
1000414e:	d005      	beq.n	1000415c <tu_edpt_validate+0x24>
10004150:	2b03      	cmp	r3, #3
10004152:	d015      	beq.n	10004180 <tu_edpt_validate+0x48>
10004154:	2000      	movs	r0, #0
10004156:	2b01      	cmp	r3, #1
10004158:	d008      	beq.n	1000416c <tu_edpt_validate+0x34>
1000415a:	bd10      	pop	{r4, pc}
1000415c:	2902      	cmp	r1, #2
1000415e:	d01c      	beq.n	1000419a <tu_edpt_validate+0x62>
10004160:	2000      	movs	r0, #0
10004162:	2340      	movs	r3, #64	; 0x40
10004164:	4293      	cmp	r3, r2
10004166:	4140      	adcs	r0, r0
10004168:	b2c0      	uxtb	r0, r0
1000416a:	e7f6      	b.n	1000415a <tu_edpt_validate+0x22>
1000416c:	3902      	subs	r1, #2
1000416e:	424b      	negs	r3, r1
10004170:	4159      	adcs	r1, r3
10004172:	4b0d      	ldr	r3, [pc, #52]	; (100041a8 <tu_edpt_validate+0x70>)
10004174:	469c      	mov	ip, r3
10004176:	4461      	add	r1, ip
10004178:	4291      	cmp	r1, r2
1000417a:	4140      	adcs	r0, r0
1000417c:	b2c0      	uxtb	r0, r0
1000417e:	e7ec      	b.n	1000415a <tu_edpt_validate+0x22>
10004180:	3902      	subs	r1, #2
10004182:	424b      	negs	r3, r1
10004184:	4159      	adcs	r1, r3
10004186:	23f0      	movs	r3, #240	; 0xf0
10004188:	2000      	movs	r0, #0
1000418a:	4249      	negs	r1, r1
1000418c:	009b      	lsls	r3, r3, #2
1000418e:	4019      	ands	r1, r3
10004190:	3140      	adds	r1, #64	; 0x40
10004192:	4291      	cmp	r1, r2
10004194:	4140      	adcs	r0, r0
10004196:	b2c0      	uxtb	r0, r0
10004198:	e7df      	b.n	1000415a <tu_edpt_validate+0x22>
1000419a:	4b04      	ldr	r3, [pc, #16]	; (100041ac <tu_edpt_validate+0x74>)
1000419c:	18d3      	adds	r3, r2, r3
1000419e:	425a      	negs	r2, r3
100041a0:	4153      	adcs	r3, r2
100041a2:	b2d8      	uxtb	r0, r3
100041a4:	e7d9      	b.n	1000415a <tu_edpt_validate+0x22>
100041a6:	46c0      	nop			; (mov r8, r8)
100041a8:	000003ff 	.word	0x000003ff
100041ac:	fffffe00 	.word	0xfffffe00

100041b0 <tu_edpt_bind_driver>:
100041b0:	188a      	adds	r2, r1, r2
100041b2:	b570      	push	{r4, r5, r6, lr}
100041b4:	4291      	cmp	r1, r2
100041b6:	d207      	bcs.n	100041c8 <tu_edpt_bind_driver+0x18>
100041b8:	267f      	movs	r6, #127	; 0x7f
100041ba:	784c      	ldrb	r4, [r1, #1]
100041bc:	2c05      	cmp	r4, #5
100041be:	d004      	beq.n	100041ca <tu_edpt_bind_driver+0x1a>
100041c0:	780c      	ldrb	r4, [r1, #0]
100041c2:	1909      	adds	r1, r1, r4
100041c4:	428a      	cmp	r2, r1
100041c6:	d8f8      	bhi.n	100041ba <tu_edpt_bind_driver+0xa>
100041c8:	bd70      	pop	{r4, r5, r6, pc}
100041ca:	0034      	movs	r4, r6
100041cc:	788d      	ldrb	r5, [r1, #2]
100041ce:	402c      	ands	r4, r5
100041d0:	0064      	lsls	r4, r4, #1
100041d2:	1904      	adds	r4, r0, r4
100041d4:	09ed      	lsrs	r5, r5, #7
100041d6:	5563      	strb	r3, [r4, r5]
100041d8:	780c      	ldrb	r4, [r1, #0]
100041da:	1909      	adds	r1, r1, r4
100041dc:	428a      	cmp	r2, r1
100041de:	d8ec      	bhi.n	100041ba <tu_edpt_bind_driver+0xa>
100041e0:	e7f2      	b.n	100041c8 <tu_edpt_bind_driver+0x18>
100041e2:	46c0      	nop			; (mov r8, r8)

100041e4 <tu_fifo_config>:
100041e4:	b5f0      	push	{r4, r5, r6, r7, lr}
100041e6:	46c6      	mov	lr, r8
100041e8:	b500      	push	{lr}
100041ea:	0004      	movs	r4, r0
100041ec:	a806      	add	r0, sp, #24
100041ee:	7805      	ldrb	r5, [r0, #0]
100041f0:	2080      	movs	r0, #128	; 0x80
100041f2:	4688      	mov	r8, r1
100041f4:	0017      	movs	r7, r2
100041f6:	001e      	movs	r6, r3
100041f8:	0200      	lsls	r0, r0, #8
100041fa:	4282      	cmp	r2, r0
100041fc:	d827      	bhi.n	1000424e <tu_fifo_config+0x6a>
100041fe:	68e0      	ldr	r0, [r4, #12]
10004200:	2800      	cmp	r0, #0
10004202:	d003      	beq.n	1000420c <tu_fifo_config+0x28>
10004204:	2101      	movs	r1, #1
10004206:	4249      	negs	r1, r1
10004208:	f000 ff82 	bl	10005110 <__mutex_enter_timeout_ms_veneer>
1000420c:	6920      	ldr	r0, [r4, #16]
1000420e:	2800      	cmp	r0, #0
10004210:	d003      	beq.n	1000421a <tu_fifo_config+0x36>
10004212:	2101      	movs	r1, #1
10004214:	4249      	negs	r1, r1
10004216:	f000 ff7b 	bl	10005110 <__mutex_enter_timeout_ms_veneer>
1000421a:	4643      	mov	r3, r8
1000421c:	6023      	str	r3, [r4, #0]
1000421e:	0473      	lsls	r3, r6, #17
10004220:	0c5b      	lsrs	r3, r3, #17
10004222:	03ed      	lsls	r5, r5, #15
10004224:	431d      	orrs	r5, r3
10004226:	2300      	movs	r3, #0
10004228:	68e0      	ldr	r0, [r4, #12]
1000422a:	8163      	strh	r3, [r4, #10]
1000422c:	80a7      	strh	r7, [r4, #4]
1000422e:	80e5      	strh	r5, [r4, #6]
10004230:	8123      	strh	r3, [r4, #8]
10004232:	2800      	cmp	r0, #0
10004234:	d001      	beq.n	1000423a <tu_fifo_config+0x56>
10004236:	f000 ff3b 	bl	100050b0 <__mutex_exit_veneer>
1000423a:	6920      	ldr	r0, [r4, #16]
1000423c:	2401      	movs	r4, #1
1000423e:	2800      	cmp	r0, #0
10004240:	d001      	beq.n	10004246 <tu_fifo_config+0x62>
10004242:	f000 ff35 	bl	100050b0 <__mutex_exit_veneer>
10004246:	0020      	movs	r0, r4
10004248:	bc80      	pop	{r7}
1000424a:	46b8      	mov	r8, r7
1000424c:	bdf0      	pop	{r4, r5, r6, r7, pc}
1000424e:	2400      	movs	r4, #0
10004250:	e7f9      	b.n	10004246 <tu_fifo_config+0x62>
10004252:	46c0      	nop			; (mov r8, r8)

10004254 <tu_fifo_count>:
10004254:	b510      	push	{r4, lr}
10004256:	8904      	ldrh	r4, [r0, #8]
10004258:	8941      	ldrh	r1, [r0, #10]
1000425a:	8882      	ldrh	r2, [r0, #4]
1000425c:	b2a3      	uxth	r3, r4
1000425e:	b288      	uxth	r0, r1
10004260:	428c      	cmp	r4, r1
10004262:	d307      	bcc.n	10004274 <tu_fifo_count+0x20>
10004264:	1a1b      	subs	r3, r3, r0
10004266:	b29b      	uxth	r3, r3
10004268:	1c10      	adds	r0, r2, #0
1000426a:	429a      	cmp	r2, r3
1000426c:	d900      	bls.n	10004270 <tu_fifo_count+0x1c>
1000426e:	1c18      	adds	r0, r3, #0
10004270:	b280      	uxth	r0, r0
10004272:	bd10      	pop	{r4, pc}
10004274:	0051      	lsls	r1, r2, #1
10004276:	1a09      	subs	r1, r1, r0
10004278:	185b      	adds	r3, r3, r1
1000427a:	b29b      	uxth	r3, r3
1000427c:	e7f4      	b.n	10004268 <tu_fifo_count+0x14>
1000427e:	46c0      	nop			; (mov r8, r8)

10004280 <tu_fifo_empty>:
10004280:	0003      	movs	r3, r0
10004282:	8900      	ldrh	r0, [r0, #8]
10004284:	895b      	ldrh	r3, [r3, #10]
10004286:	1ac0      	subs	r0, r0, r3
10004288:	4243      	negs	r3, r0
1000428a:	4158      	adcs	r0, r3
1000428c:	b2c0      	uxtb	r0, r0
1000428e:	4770      	bx	lr

10004290 <tu_fifo_remaining>:
10004290:	b510      	push	{r4, lr}
10004292:	8904      	ldrh	r4, [r0, #8]
10004294:	8941      	ldrh	r1, [r0, #10]
10004296:	8882      	ldrh	r2, [r0, #4]
10004298:	b2a3      	uxth	r3, r4
1000429a:	b288      	uxth	r0, r1
1000429c:	428c      	cmp	r4, r1
1000429e:	d307      	bcc.n	100042b0 <tu_fifo_remaining+0x20>
100042a0:	1a1b      	subs	r3, r3, r0
100042a2:	b29b      	uxth	r3, r3
100042a4:	2000      	movs	r0, #0
100042a6:	429a      	cmp	r2, r3
100042a8:	d901      	bls.n	100042ae <tu_fifo_remaining+0x1e>
100042aa:	1ad3      	subs	r3, r2, r3
100042ac:	b298      	uxth	r0, r3
100042ae:	bd10      	pop	{r4, pc}
100042b0:	0051      	lsls	r1, r2, #1
100042b2:	1a09      	subs	r1, r1, r0
100042b4:	185b      	adds	r3, r3, r1
100042b6:	b29b      	uxth	r3, r3
100042b8:	e7f4      	b.n	100042a4 <tu_fifo_remaining+0x14>
100042ba:	46c0      	nop			; (mov r8, r8)

100042bc <tu_fifo_read>:
100042bc:	b570      	push	{r4, r5, r6, lr}
100042be:	0004      	movs	r4, r0
100042c0:	6900      	ldr	r0, [r0, #16]
100042c2:	000e      	movs	r6, r1
100042c4:	2800      	cmp	r0, #0
100042c6:	d003      	beq.n	100042d0 <tu_fifo_read+0x14>
100042c8:	2101      	movs	r1, #1
100042ca:	4249      	negs	r1, r1
100042cc:	f000 ff20 	bl	10005110 <__mutex_enter_timeout_ms_veneer>
100042d0:	8925      	ldrh	r5, [r4, #8]
100042d2:	8960      	ldrh	r0, [r4, #10]
100042d4:	88a2      	ldrh	r2, [r4, #4]
100042d6:	b2a9      	uxth	r1, r5
100042d8:	b283      	uxth	r3, r0
100042da:	4285      	cmp	r5, r0
100042dc:	d32c      	bcc.n	10004338 <tu_fifo_read+0x7c>
100042de:	1acd      	subs	r5, r1, r3
100042e0:	b2ad      	uxth	r5, r5
100042e2:	2d00      	cmp	r5, #0
100042e4:	d02e      	beq.n	10004344 <tu_fifo_read+0x88>
100042e6:	42aa      	cmp	r2, r5
100042e8:	d208      	bcs.n	100042fc <tu_fifo_read+0x40>
100042ea:	4291      	cmp	r1, r2
100042ec:	d331      	bcc.n	10004352 <tu_fifo_read+0x96>
100042ee:	1a8b      	subs	r3, r1, r2
100042f0:	b29b      	uxth	r3, r3
100042f2:	8163      	strh	r3, [r4, #10]
100042f4:	429a      	cmp	r2, r3
100042f6:	d803      	bhi.n	10004300 <tu_fifo_read+0x44>
100042f8:	1a9b      	subs	r3, r3, r2
100042fa:	b29b      	uxth	r3, r3
100042fc:	429a      	cmp	r2, r3
100042fe:	d9fb      	bls.n	100042f8 <tu_fifo_read+0x3c>
10004300:	88e2      	ldrh	r2, [r4, #6]
10004302:	6821      	ldr	r1, [r4, #0]
10004304:	0452      	lsls	r2, r2, #17
10004306:	0c52      	lsrs	r2, r2, #17
10004308:	4353      	muls	r3, r2
1000430a:	0030      	movs	r0, r6
1000430c:	18c9      	adds	r1, r1, r3
1000430e:	f7fd ff09 	bl	10002124 <__wrap___aeabi_memcpy>
10004312:	8961      	ldrh	r1, [r4, #10]
10004314:	2501      	movs	r5, #1
10004316:	1c4b      	adds	r3, r1, #1
10004318:	b29b      	uxth	r3, r3
1000431a:	88a2      	ldrh	r2, [r4, #4]
1000431c:	4299      	cmp	r1, r3
1000431e:	d914      	bls.n	1000434a <tu_fifo_read+0x8e>
10004320:	2300      	movs	r3, #0
10004322:	0052      	lsls	r2, r2, #1
10004324:	1a9b      	subs	r3, r3, r2
10004326:	b29b      	uxth	r3, r3
10004328:	6920      	ldr	r0, [r4, #16]
1000432a:	8163      	strh	r3, [r4, #10]
1000432c:	2800      	cmp	r0, #0
1000432e:	d001      	beq.n	10004334 <tu_fifo_read+0x78>
10004330:	f000 febe 	bl	100050b0 <__mutex_exit_veneer>
10004334:	0028      	movs	r0, r5
10004336:	bd70      	pop	{r4, r5, r6, pc}
10004338:	0055      	lsls	r5, r2, #1
1000433a:	1aed      	subs	r5, r5, r3
1000433c:	194d      	adds	r5, r1, r5
1000433e:	b2ad      	uxth	r5, r5
10004340:	2d00      	cmp	r5, #0
10004342:	d1d0      	bne.n	100042e6 <tu_fifo_read+0x2a>
10004344:	2500      	movs	r5, #0
10004346:	8963      	ldrh	r3, [r4, #10]
10004348:	b29b      	uxth	r3, r3
1000434a:	0052      	lsls	r2, r2, #1
1000434c:	4293      	cmp	r3, r2
1000434e:	dbeb      	blt.n	10004328 <tu_fifo_read+0x6c>
10004350:	e7e8      	b.n	10004324 <tu_fifo_read+0x68>
10004352:	1889      	adds	r1, r1, r2
10004354:	b28b      	uxth	r3, r1
10004356:	8163      	strh	r3, [r4, #10]
10004358:	e7cc      	b.n	100042f4 <tu_fifo_read+0x38>
1000435a:	46c0      	nop			; (mov r8, r8)

1000435c <tu_fifo_read_n>:
1000435c:	b5f0      	push	{r4, r5, r6, r7, lr}
1000435e:	4646      	mov	r6, r8
10004360:	464f      	mov	r7, r9
10004362:	46d6      	mov	lr, sl
10004364:	b5c0      	push	{r6, r7, lr}
10004366:	0006      	movs	r6, r0
10004368:	6900      	ldr	r0, [r0, #16]
1000436a:	4689      	mov	r9, r1
1000436c:	4690      	mov	r8, r2
1000436e:	2800      	cmp	r0, #0
10004370:	d003      	beq.n	1000437a <tu_fifo_read_n+0x1e>
10004372:	2101      	movs	r1, #1
10004374:	4249      	negs	r1, r1
10004376:	f000 fecb 	bl	10005110 <__mutex_enter_timeout_ms_veneer>
1000437a:	8931      	ldrh	r1, [r6, #8]
1000437c:	8972      	ldrh	r2, [r6, #10]
1000437e:	88b5      	ldrh	r5, [r6, #4]
10004380:	b28b      	uxth	r3, r1
10004382:	b294      	uxth	r4, r2
10004384:	4291      	cmp	r1, r2
10004386:	d357      	bcc.n	10004438 <tu_fifo_read_n+0xdc>
10004388:	1b1f      	subs	r7, r3, r4
1000438a:	b2bf      	uxth	r7, r7
1000438c:	2f00      	cmp	r7, #0
1000438e:	d04d      	beq.n	1000442c <tu_fifo_read_n+0xd0>
10004390:	42bd      	cmp	r5, r7
10004392:	d205      	bcs.n	100043a0 <tu_fifo_read_n+0x44>
10004394:	42ab      	cmp	r3, r5
10004396:	d254      	bcs.n	10004442 <tu_fifo_read_n+0xe6>
10004398:	195b      	adds	r3, r3, r5
1000439a:	b29c      	uxth	r4, r3
1000439c:	002f      	movs	r7, r5
1000439e:	8174      	strh	r4, [r6, #10]
100043a0:	4643      	mov	r3, r8
100043a2:	45b8      	cmp	r8, r7
100043a4:	d840      	bhi.n	10004428 <tu_fifo_read_n+0xcc>
100043a6:	b29f      	uxth	r7, r3
100043a8:	42a5      	cmp	r5, r4
100043aa:	d803      	bhi.n	100043b4 <tu_fifo_read_n+0x58>
100043ac:	1b64      	subs	r4, r4, r5
100043ae:	b2a4      	uxth	r4, r4
100043b0:	42a5      	cmp	r5, r4
100043b2:	d9fb      	bls.n	100043ac <tu_fifo_read_n+0x50>
100043b4:	88f2      	ldrh	r2, [r6, #6]
100043b6:	1b28      	subs	r0, r5, r4
100043b8:	0452      	lsls	r2, r2, #17
100043ba:	0c53      	lsrs	r3, r2, #17
100043bc:	0019      	movs	r1, r3
100043be:	4698      	mov	r8, r3
100043c0:	6833      	ldr	r3, [r6, #0]
100043c2:	4361      	muls	r1, r4
100043c4:	469c      	mov	ip, r3
100043c6:	b280      	uxth	r0, r0
100043c8:	4461      	add	r1, ip
100043ca:	4287      	cmp	r7, r0
100043cc:	d926      	bls.n	1000441c <tu_fifo_read_n+0xc0>
100043ce:	4643      	mov	r3, r8
100043d0:	4358      	muls	r0, r3
100043d2:	b283      	uxth	r3, r0
100043d4:	001a      	movs	r2, r3
100043d6:	4648      	mov	r0, r9
100043d8:	469a      	mov	sl, r3
100043da:	f7fd fea3 	bl	10002124 <__wrap___aeabi_memcpy>
100043de:	4643      	mov	r3, r8
100043e0:	4648      	mov	r0, r9
100043e2:	1b7d      	subs	r5, r7, r5
100043e4:	1964      	adds	r4, r4, r5
100043e6:	435c      	muls	r4, r3
100043e8:	6831      	ldr	r1, [r6, #0]
100043ea:	4450      	add	r0, sl
100043ec:	b2a2      	uxth	r2, r4
100043ee:	f7fd fe99 	bl	10002124 <__wrap___aeabi_memcpy>
100043f2:	8971      	ldrh	r1, [r6, #10]
100043f4:	88b5      	ldrh	r5, [r6, #4]
100043f6:	19cb      	adds	r3, r1, r7
100043f8:	b29b      	uxth	r3, r3
100043fa:	006a      	lsls	r2, r5, #1
100043fc:	4299      	cmp	r1, r3
100043fe:	d917      	bls.n	10004430 <tu_fifo_read_n+0xd4>
10004400:	1a9b      	subs	r3, r3, r2
10004402:	b29b      	uxth	r3, r3
10004404:	6930      	ldr	r0, [r6, #16]
10004406:	8173      	strh	r3, [r6, #10]
10004408:	2800      	cmp	r0, #0
1000440a:	d001      	beq.n	10004410 <tu_fifo_read_n+0xb4>
1000440c:	f000 fe50 	bl	100050b0 <__mutex_exit_veneer>
10004410:	0038      	movs	r0, r7
10004412:	bce0      	pop	{r5, r6, r7}
10004414:	46ba      	mov	sl, r7
10004416:	46b1      	mov	r9, r6
10004418:	46a8      	mov	r8, r5
1000441a:	bdf0      	pop	{r4, r5, r6, r7, pc}
1000441c:	4642      	mov	r2, r8
1000441e:	4648      	mov	r0, r9
10004420:	437a      	muls	r2, r7
10004422:	f7fd fe7f 	bl	10002124 <__wrap___aeabi_memcpy>
10004426:	e7e4      	b.n	100043f2 <tu_fifo_read_n+0x96>
10004428:	1c3b      	adds	r3, r7, #0
1000442a:	e7bc      	b.n	100043a6 <tu_fifo_read_n+0x4a>
1000442c:	8973      	ldrh	r3, [r6, #10]
1000442e:	b29b      	uxth	r3, r3
10004430:	006a      	lsls	r2, r5, #1
10004432:	4293      	cmp	r3, r2
10004434:	dbe6      	blt.n	10004404 <tu_fifo_read_n+0xa8>
10004436:	e7e3      	b.n	10004400 <tu_fifo_read_n+0xa4>
10004438:	006f      	lsls	r7, r5, #1
1000443a:	1b3f      	subs	r7, r7, r4
1000443c:	19df      	adds	r7, r3, r7
1000443e:	b2bf      	uxth	r7, r7
10004440:	e7a4      	b.n	1000438c <tu_fifo_read_n+0x30>
10004442:	1b5b      	subs	r3, r3, r5
10004444:	b29c      	uxth	r4, r3
10004446:	e7a9      	b.n	1000439c <tu_fifo_read_n+0x40>

10004448 <tu_fifo_write>:
10004448:	b5f8      	push	{r3, r4, r5, r6, r7, lr}
1000444a:	0004      	movs	r4, r0
1000444c:	68c0      	ldr	r0, [r0, #12]
1000444e:	000e      	movs	r6, r1
10004450:	2800      	cmp	r0, #0
10004452:	d003      	beq.n	1000445c <tu_fifo_write+0x14>
10004454:	2101      	movs	r1, #1
10004456:	4249      	negs	r1, r1
10004458:	f000 fe5a 	bl	10005110 <__mutex_enter_timeout_ms_veneer>
1000445c:	8925      	ldrh	r5, [r4, #8]
1000445e:	8920      	ldrh	r0, [r4, #8]
10004460:	8961      	ldrh	r1, [r4, #10]
10004462:	88a2      	ldrh	r2, [r4, #4]
10004464:	b2ad      	uxth	r5, r5
10004466:	b283      	uxth	r3, r0
10004468:	b28f      	uxth	r7, r1
1000446a:	4288      	cmp	r0, r1
1000446c:	d328      	bcc.n	100044c0 <tu_fifo_write+0x78>
1000446e:	1bdb      	subs	r3, r3, r7
10004470:	b29b      	uxth	r3, r3
10004472:	429a      	cmp	r2, r3
10004474:	d809      	bhi.n	1000448a <tu_fifo_write+0x42>
10004476:	79e7      	ldrb	r7, [r4, #7]
10004478:	09ff      	lsrs	r7, r7, #7
1000447a:	d106      	bne.n	1000448a <tu_fifo_write+0x42>
1000447c:	68e0      	ldr	r0, [r4, #12]
1000447e:	2800      	cmp	r0, #0
10004480:	d001      	beq.n	10004486 <tu_fifo_write+0x3e>
10004482:	f000 fe15 	bl	100050b0 <__mutex_exit_veneer>
10004486:	0038      	movs	r0, r7
10004488:	bdf8      	pop	{r3, r4, r5, r6, r7, pc}
1000448a:	002b      	movs	r3, r5
1000448c:	4295      	cmp	r5, r2
1000448e:	d303      	bcc.n	10004498 <tu_fifo_write+0x50>
10004490:	1a9b      	subs	r3, r3, r2
10004492:	b29b      	uxth	r3, r3
10004494:	4293      	cmp	r3, r2
10004496:	d2fb      	bcs.n	10004490 <tu_fifo_write+0x48>
10004498:	88e2      	ldrh	r2, [r4, #6]
1000449a:	6821      	ldr	r1, [r4, #0]
1000449c:	0452      	lsls	r2, r2, #17
1000449e:	0c52      	lsrs	r2, r2, #17
100044a0:	4353      	muls	r3, r2
100044a2:	18c8      	adds	r0, r1, r3
100044a4:	0031      	movs	r1, r6
100044a6:	f7fd fe3d 	bl	10002124 <__wrap___aeabi_memcpy>
100044aa:	88a2      	ldrh	r2, [r4, #4]
100044ac:	1c6b      	adds	r3, r5, #1
100044ae:	b29b      	uxth	r3, r3
100044b0:	0052      	lsls	r2, r2, #1
100044b2:	429d      	cmp	r5, r3
100044b4:	d909      	bls.n	100044ca <tu_fifo_write+0x82>
100044b6:	1a9b      	subs	r3, r3, r2
100044b8:	b29b      	uxth	r3, r3
100044ba:	2701      	movs	r7, #1
100044bc:	8123      	strh	r3, [r4, #8]
100044be:	e7dd      	b.n	1000447c <tu_fifo_write+0x34>
100044c0:	0051      	lsls	r1, r2, #1
100044c2:	1bc9      	subs	r1, r1, r7
100044c4:	185b      	adds	r3, r3, r1
100044c6:	b29b      	uxth	r3, r3
100044c8:	e7d3      	b.n	10004472 <tu_fifo_write+0x2a>
100044ca:	4293      	cmp	r3, r2
100044cc:	dbf5      	blt.n	100044ba <tu_fifo_write+0x72>
100044ce:	e7f2      	b.n	100044b6 <tu_fifo_write+0x6e>

100044d0 <tu_fifo_write_n>:
100044d0:	b5f0      	push	{r4, r5, r6, r7, lr}
100044d2:	464e      	mov	r6, r9
100044d4:	4645      	mov	r5, r8
100044d6:	46de      	mov	lr, fp
100044d8:	4657      	mov	r7, sl
100044da:	b5e0      	push	{r5, r6, r7, lr}
100044dc:	4689      	mov	r9, r1
100044de:	0005      	movs	r5, r0
100044e0:	0014      	movs	r4, r2
100044e2:	b083      	sub	sp, #12
100044e4:	2a00      	cmp	r2, #0
100044e6:	d06e      	beq.n	100045c6 <tu_fifo_write_n+0xf6>
100044e8:	68c0      	ldr	r0, [r0, #12]
100044ea:	2800      	cmp	r0, #0
100044ec:	d003      	beq.n	100044f6 <tu_fifo_write_n+0x26>
100044ee:	2101      	movs	r1, #1
100044f0:	4249      	negs	r1, r1
100044f2:	f000 fe0d 	bl	10005110 <__mutex_enter_timeout_ms_veneer>
100044f6:	892f      	ldrh	r7, [r5, #8]
100044f8:	79ea      	ldrb	r2, [r5, #7]
100044fa:	896b      	ldrh	r3, [r5, #10]
100044fc:	b2bf      	uxth	r7, r7
100044fe:	b29b      	uxth	r3, r3
10004500:	09d2      	lsrs	r2, r2, #7
10004502:	d142      	bne.n	1000458a <tu_fifo_write_n+0xba>
10004504:	88ae      	ldrh	r6, [r5, #4]
10004506:	429f      	cmp	r7, r3
10004508:	d267      	bcs.n	100045da <tu_fifo_write_n+0x10a>
1000450a:	0072      	lsls	r2, r6, #1
1000450c:	1ad3      	subs	r3, r2, r3
1000450e:	18fb      	adds	r3, r7, r3
10004510:	b29b      	uxth	r3, r3
10004512:	2200      	movs	r2, #0
10004514:	4690      	mov	r8, r2
10004516:	429e      	cmp	r6, r3
10004518:	d931      	bls.n	1000457e <tu_fifo_write_n+0xae>
1000451a:	1af3      	subs	r3, r6, r3
1000451c:	1c1a      	adds	r2, r3, #0
1000451e:	b29b      	uxth	r3, r3
10004520:	42a3      	cmp	r3, r4
10004522:	d900      	bls.n	10004526 <tu_fifo_write_n+0x56>
10004524:	1c22      	adds	r2, r4, #0
10004526:	b293      	uxth	r3, r2
10004528:	4698      	mov	r8, r3
1000452a:	88e8      	ldrh	r0, [r5, #6]
1000452c:	4643      	mov	r3, r8
1000452e:	18fb      	adds	r3, r7, r3
10004530:	b29b      	uxth	r3, r3
10004532:	469b      	mov	fp, r3
10004534:	003c      	movs	r4, r7
10004536:	42b7      	cmp	r7, r6
10004538:	d303      	bcc.n	10004542 <tu_fifo_write_n+0x72>
1000453a:	1ba4      	subs	r4, r4, r6
1000453c:	b2a4      	uxth	r4, r4
1000453e:	42b4      	cmp	r4, r6
10004540:	d2fb      	bcs.n	1000453a <tu_fifo_write_n+0x6a>
10004542:	0440      	lsls	r0, r0, #17
10004544:	0c43      	lsrs	r3, r0, #17
10004546:	0018      	movs	r0, r3
10004548:	469a      	mov	sl, r3
1000454a:	682b      	ldr	r3, [r5, #0]
1000454c:	4360      	muls	r0, r4
1000454e:	469c      	mov	ip, r3
10004550:	1b31      	subs	r1, r6, r4
10004552:	b289      	uxth	r1, r1
10004554:	4460      	add	r0, ip
10004556:	4541      	cmp	r1, r8
10004558:	d34e      	bcc.n	100045f8 <tu_fifo_write_n+0x128>
1000455a:	4652      	mov	r2, sl
1000455c:	4643      	mov	r3, r8
1000455e:	4649      	mov	r1, r9
10004560:	435a      	muls	r2, r3
10004562:	f7fd fddf 	bl	10002124 <__wrap___aeabi_memcpy>
10004566:	88ab      	ldrh	r3, [r5, #4]
10004568:	005b      	lsls	r3, r3, #1
1000456a:	45bb      	cmp	fp, r7
1000456c:	d301      	bcc.n	10004572 <tu_fifo_write_n+0xa2>
1000456e:	459b      	cmp	fp, r3
10004570:	db03      	blt.n	1000457a <tu_fifo_write_n+0xaa>
10004572:	465a      	mov	r2, fp
10004574:	1ad3      	subs	r3, r2, r3
10004576:	b29b      	uxth	r3, r3
10004578:	469b      	mov	fp, r3
1000457a:	465b      	mov	r3, fp
1000457c:	812b      	strh	r3, [r5, #8]
1000457e:	68e8      	ldr	r0, [r5, #12]
10004580:	2800      	cmp	r0, #0
10004582:	d022      	beq.n	100045ca <tu_fifo_write_n+0xfa>
10004584:	f000 fd94 	bl	100050b0 <__mutex_exit_veneer>
10004588:	e01f      	b.n	100045ca <tu_fifo_write_n+0xfa>
1000458a:	88aa      	ldrh	r2, [r5, #4]
1000458c:	4690      	mov	r8, r2
1000458e:	4294      	cmp	r4, r2
10004590:	d226      	bcs.n	100045e0 <tu_fifo_write_n+0x110>
10004592:	429f      	cmp	r7, r3
10004594:	d344      	bcc.n	10004620 <tu_fifo_write_n+0x150>
10004596:	4641      	mov	r1, r8
10004598:	1afa      	subs	r2, r7, r3
1000459a:	b292      	uxth	r2, r2
1000459c:	0049      	lsls	r1, r1, #1
1000459e:	1912      	adds	r2, r2, r4
100045a0:	428a      	cmp	r2, r1
100045a2:	db09      	blt.n	100045b8 <tu_fifo_write_n+0xe8>
100045a4:	4642      	mov	r2, r8
100045a6:	189a      	adds	r2, r3, r2
100045a8:	b292      	uxth	r2, r2
100045aa:	1b17      	subs	r7, r2, r4
100045ac:	b2bf      	uxth	r7, r7
100045ae:	4693      	mov	fp, r2
100045b0:	42bb      	cmp	r3, r7
100045b2:	d93a      	bls.n	1000462a <tu_fifo_write_n+0x15a>
100045b4:	1a7f      	subs	r7, r7, r1
100045b6:	b2bf      	uxth	r7, r7
100045b8:	19e3      	adds	r3, r4, r7
100045ba:	b29b      	uxth	r3, r3
100045bc:	4646      	mov	r6, r8
100045be:	469b      	mov	fp, r3
100045c0:	46a0      	mov	r8, r4
100045c2:	88e8      	ldrh	r0, [r5, #6]
100045c4:	e7b6      	b.n	10004534 <tu_fifo_write_n+0x64>
100045c6:	2300      	movs	r3, #0
100045c8:	4698      	mov	r8, r3
100045ca:	4640      	mov	r0, r8
100045cc:	b003      	add	sp, #12
100045ce:	bcf0      	pop	{r4, r5, r6, r7}
100045d0:	46bb      	mov	fp, r7
100045d2:	46b2      	mov	sl, r6
100045d4:	46a9      	mov	r9, r5
100045d6:	46a0      	mov	r8, r4
100045d8:	bdf0      	pop	{r4, r5, r6, r7, pc}
100045da:	1afb      	subs	r3, r7, r3
100045dc:	b29b      	uxth	r3, r3
100045de:	e798      	b.n	10004512 <tu_fifo_write_n+0x42>
100045e0:	88e8      	ldrh	r0, [r5, #6]
100045e2:	1aa2      	subs	r2, r4, r2
100045e4:	0444      	lsls	r4, r0, #17
100045e6:	0c64      	lsrs	r4, r4, #17
100045e8:	4354      	muls	r4, r2
100045ea:	4642      	mov	r2, r8
100045ec:	44a1      	add	r9, r4
100045ee:	2a00      	cmp	r2, #0
100045f0:	d0c5      	beq.n	1000457e <tu_fifo_write_n+0xae>
100045f2:	4646      	mov	r6, r8
100045f4:	001f      	movs	r7, r3
100045f6:	e799      	b.n	1000452c <tu_fifo_write_n+0x5c>
100045f8:	4653      	mov	r3, sl
100045fa:	4359      	muls	r1, r3
100045fc:	b289      	uxth	r1, r1
100045fe:	000a      	movs	r2, r1
10004600:	9101      	str	r1, [sp, #4]
10004602:	4649      	mov	r1, r9
10004604:	f7fd fd8e 	bl	10002124 <__wrap___aeabi_memcpy>
10004608:	4643      	mov	r3, r8
1000460a:	1b9a      	subs	r2, r3, r6
1000460c:	4653      	mov	r3, sl
1000460e:	18a2      	adds	r2, r4, r2
10004610:	435a      	muls	r2, r3
10004612:	9901      	ldr	r1, [sp, #4]
10004614:	6828      	ldr	r0, [r5, #0]
10004616:	b292      	uxth	r2, r2
10004618:	4449      	add	r1, r9
1000461a:	f7fd fd83 	bl	10002124 <__wrap___aeabi_memcpy>
1000461e:	e7a2      	b.n	10004566 <tu_fifo_write_n+0x96>
10004620:	0051      	lsls	r1, r2, #1
10004622:	1aca      	subs	r2, r1, r3
10004624:	18ba      	adds	r2, r7, r2
10004626:	b292      	uxth	r2, r2
10004628:	e7b9      	b.n	1000459e <tu_fifo_write_n+0xce>
1000462a:	42b9      	cmp	r1, r7
1000462c:	ddc2      	ble.n	100045b4 <tu_fifo_write_n+0xe4>
1000462e:	4646      	mov	r6, r8
10004630:	88e8      	ldrh	r0, [r5, #6]
10004632:	46a0      	mov	r8, r4
10004634:	e77e      	b.n	10004534 <tu_fifo_write_n+0x64>
10004636:	46c0      	nop			; (mov r8, r8)

10004638 <tu_fifo_clear>:
10004638:	b510      	push	{r4, lr}
1000463a:	0004      	movs	r4, r0
1000463c:	68c0      	ldr	r0, [r0, #12]
1000463e:	2800      	cmp	r0, #0
10004640:	d003      	beq.n	1000464a <tu_fifo_clear+0x12>
10004642:	2101      	movs	r1, #1
10004644:	4249      	negs	r1, r1
10004646:	f000 fd63 	bl	10005110 <__mutex_enter_timeout_ms_veneer>
1000464a:	6920      	ldr	r0, [r4, #16]
1000464c:	2800      	cmp	r0, #0
1000464e:	d003      	beq.n	10004658 <tu_fifo_clear+0x20>
10004650:	2101      	movs	r1, #1
10004652:	4249      	negs	r1, r1
10004654:	f000 fd5c 	bl	10005110 <__mutex_enter_timeout_ms_veneer>
10004658:	2300      	movs	r3, #0
1000465a:	68e0      	ldr	r0, [r4, #12]
1000465c:	8163      	strh	r3, [r4, #10]
1000465e:	8123      	strh	r3, [r4, #8]
10004660:	2800      	cmp	r0, #0
10004662:	d001      	beq.n	10004668 <tu_fifo_clear+0x30>
10004664:	f000 fd24 	bl	100050b0 <__mutex_exit_veneer>
10004668:	6920      	ldr	r0, [r4, #16]
1000466a:	2800      	cmp	r0, #0
1000466c:	d001      	beq.n	10004672 <tu_fifo_clear+0x3a>
1000466e:	f000 fd1f 	bl	100050b0 <__mutex_exit_veneer>
10004672:	2001      	movs	r0, #1
10004674:	bd10      	pop	{r4, pc}
10004676:	46c0      	nop			; (mov r8, r8)

10004678 <tu_fifo_set_overwritable>:
10004678:	b570      	push	{r4, r5, r6, lr}
1000467a:	0004      	movs	r4, r0
1000467c:	68c0      	ldr	r0, [r0, #12]
1000467e:	000d      	movs	r5, r1
10004680:	2800      	cmp	r0, #0
10004682:	d003      	beq.n	1000468c <tu_fifo_set_overwritable+0x14>
10004684:	2101      	movs	r1, #1
10004686:	4249      	negs	r1, r1
10004688:	f000 fd42 	bl	10005110 <__mutex_enter_timeout_ms_veneer>
1000468c:	6920      	ldr	r0, [r4, #16]
1000468e:	2800      	cmp	r0, #0
10004690:	d003      	beq.n	1000469a <tu_fifo_set_overwritable+0x22>
10004692:	2101      	movs	r1, #1
10004694:	4249      	negs	r1, r1
10004696:	f000 fd3b 	bl	10005110 <__mutex_enter_timeout_ms_veneer>
1000469a:	217f      	movs	r1, #127	; 0x7f
1000469c:	79e3      	ldrb	r3, [r4, #7]
1000469e:	01ed      	lsls	r5, r5, #7
100046a0:	4019      	ands	r1, r3
100046a2:	68e0      	ldr	r0, [r4, #12]
100046a4:	4329      	orrs	r1, r5
100046a6:	71e1      	strb	r1, [r4, #7]
100046a8:	2800      	cmp	r0, #0
100046aa:	d001      	beq.n	100046b0 <tu_fifo_set_overwritable+0x38>
100046ac:	f000 fd00 	bl	100050b0 <__mutex_exit_veneer>
100046b0:	6920      	ldr	r0, [r4, #16]
100046b2:	2800      	cmp	r0, #0
100046b4:	d001      	beq.n	100046ba <tu_fifo_set_overwritable+0x42>
100046b6:	f000 fcfb 	bl	100050b0 <__mutex_exit_veneer>
100046ba:	2001      	movs	r0, #1
100046bc:	bd70      	pop	{r4, r5, r6, pc}
100046be:	46c0      	nop			; (mov r8, r8)

100046c0 <pio_add_program>:
100046c0:	b5f0      	push	{r4, r5, r6, r7, lr}
100046c2:	46d6      	mov	lr, sl
100046c4:	464f      	mov	r7, r9
100046c6:	4646      	mov	r6, r8
100046c8:	4688      	mov	r8, r1
100046ca:	b5c0      	push	{r6, r7, lr}
100046cc:	2405      	movs	r4, #5
100046ce:	0006      	movs	r6, r0
100046d0:	f7fb ff46 	bl	10000560 <hw_claim_lock>
100046d4:	4643      	mov	r3, r8
100046d6:	791f      	ldrb	r7, [r3, #4]
100046d8:	571c      	ldrsb	r4, [r3, r4]
100046da:	4b28      	ldr	r3, [pc, #160]	; (1000477c <pio_add_program+0xbc>)
100046dc:	4681      	mov	r9, r0
100046de:	18f0      	adds	r0, r6, r3
100046e0:	4243      	negs	r3, r0
100046e2:	4158      	adcs	r0, r3
100046e4:	4b26      	ldr	r3, [pc, #152]	; (10004780 <pio_add_program+0xc0>)
100046e6:	469a      	mov	sl, r3
100046e8:	0083      	lsls	r3, r0, #2
100046ea:	469c      	mov	ip, r3
100046ec:	4653      	mov	r3, sl
100046ee:	4662      	mov	r2, ip
100046f0:	5898      	ldr	r0, [r3, r2]
100046f2:	2201      	movs	r2, #1
100046f4:	2320      	movs	r3, #32
100046f6:	40ba      	lsls	r2, r7
100046f8:	1bdb      	subs	r3, r3, r7
100046fa:	3a01      	subs	r2, #1
100046fc:	2c00      	cmp	r4, #0
100046fe:	db32      	blt.n	10004766 <pio_add_program+0xa6>
10004700:	429c      	cmp	r4, r3
10004702:	dc2d      	bgt.n	10004760 <pio_add_program+0xa0>
10004704:	40a2      	lsls	r2, r4
10004706:	0015      	movs	r5, r2
10004708:	4210      	tst	r0, r2
1000470a:	d129      	bne.n	10004760 <pio_add_program+0xa0>
1000470c:	2f00      	cmp	r7, #0
1000470e:	d01a      	beq.n	10004746 <pio_add_program+0x86>
10004710:	4643      	mov	r3, r8
10004712:	785a      	ldrb	r2, [r3, #1]
10004714:	7819      	ldrb	r1, [r3, #0]
10004716:	0212      	lsls	r2, r2, #8
10004718:	4311      	orrs	r1, r2
1000471a:	4642      	mov	r2, r8
1000471c:	789b      	ldrb	r3, [r3, #2]
1000471e:	78d2      	ldrb	r2, [r2, #3]
10004720:	041b      	lsls	r3, r3, #16
10004722:	430b      	orrs	r3, r1
10004724:	0612      	lsls	r2, r2, #24
10004726:	431a      	orrs	r2, r3
10004728:	4690      	mov	r8, r2
1000472a:	2200      	movs	r2, #0
1000472c:	4641      	mov	r1, r8
1000472e:	0053      	lsls	r3, r2, #1
10004730:	5ac9      	ldrh	r1, [r1, r3]
10004732:	0b4b      	lsrs	r3, r1, #13
10004734:	d100      	bne.n	10004738 <pio_add_program+0x78>
10004736:	1909      	adds	r1, r1, r4
10004738:	1913      	adds	r3, r2, r4
1000473a:	3312      	adds	r3, #18
1000473c:	009b      	lsls	r3, r3, #2
1000473e:	3201      	adds	r2, #1
10004740:	5199      	str	r1, [r3, r6]
10004742:	4297      	cmp	r7, r2
10004744:	d8f2      	bhi.n	1000472c <pio_add_program+0x6c>
10004746:	4653      	mov	r3, sl
10004748:	4662      	mov	r2, ip
1000474a:	4305      	orrs	r5, r0
1000474c:	509d      	str	r5, [r3, r2]
1000474e:	4648      	mov	r0, r9
10004750:	f7fb ff12 	bl	10000578 <hw_claim_unlock>
10004754:	0020      	movs	r0, r4
10004756:	bce0      	pop	{r5, r6, r7}
10004758:	46ba      	mov	sl, r7
1000475a:	46b1      	mov	r9, r6
1000475c:	46a8      	mov	r8, r5
1000475e:	bdf0      	pop	{r4, r5, r6, r7, pc}
10004760:	4808      	ldr	r0, [pc, #32]	; (10004784 <pio_add_program+0xc4>)
10004762:	f7fd fb5f 	bl	10001e24 <panic>
10004766:	2b00      	cmp	r3, #0
10004768:	da02      	bge.n	10004770 <pio_add_program+0xb0>
1000476a:	e7f9      	b.n	10004760 <pio_add_program+0xa0>
1000476c:	3b01      	subs	r3, #1
1000476e:	d3f7      	bcc.n	10004760 <pio_add_program+0xa0>
10004770:	0015      	movs	r5, r2
10004772:	409d      	lsls	r5, r3
10004774:	001c      	movs	r4, r3
10004776:	4205      	tst	r5, r0
10004778:	d1f8      	bne.n	1000476c <pio_add_program+0xac>
1000477a:	e7c7      	b.n	1000470c <pio_add_program+0x4c>
1000477c:	afd00000 	.word	0xafd00000
10004780:	20001ef0 	.word	0x20001ef0
10004784:	10005478 	.word	0x10005478

10004788 <pio_sm_init>:
10004788:	b5f0      	push	{r4, r5, r6, r7, lr}
1000478a:	2501      	movs	r5, #1
1000478c:	408d      	lsls	r5, r1
1000478e:	6804      	ldr	r4, [r0, #0]
10004790:	43ac      	bics	r4, r5
10004792:	004d      	lsls	r5, r1, #1
10004794:	6004      	str	r4, [r0, #0]
10004796:	186c      	adds	r4, r5, r1
10004798:	00e4      	lsls	r4, r4, #3
1000479a:	1904      	adds	r4, r0, r4
1000479c:	0026      	movs	r6, r4
1000479e:	36c8      	adds	r6, #200	; 0xc8
100047a0:	2b00      	cmp	r3, #0
100047a2:	d028      	beq.n	100047f6 <pio_sm_init+0x6e>
100047a4:	681f      	ldr	r7, [r3, #0]
100047a6:	34dc      	adds	r4, #220	; 0xdc
100047a8:	6037      	str	r7, [r6, #0]
100047aa:	685f      	ldr	r7, [r3, #4]
100047ac:	6077      	str	r7, [r6, #4]
100047ae:	689f      	ldr	r7, [r3, #8]
100047b0:	68db      	ldr	r3, [r3, #12]
100047b2:	60b7      	str	r7, [r6, #8]
100047b4:	6023      	str	r3, [r4, #0]
100047b6:	186d      	adds	r5, r5, r1
100047b8:	00eb      	lsls	r3, r5, #3
100047ba:	001d      	movs	r5, r3
100047bc:	2480      	movs	r4, #128	; 0x80
100047be:	35d0      	adds	r5, #208	; 0xd0
100047c0:	1945      	adds	r5, r0, r5
100047c2:	0164      	lsls	r4, r4, #5
100047c4:	432c      	orrs	r4, r5
100047c6:	2580      	movs	r5, #128	; 0x80
100047c8:	062d      	lsls	r5, r5, #24
100047ca:	6025      	str	r5, [r4, #0]
100047cc:	6025      	str	r5, [r4, #0]
100047ce:	2501      	movs	r5, #1
100047d0:	4c0f      	ldr	r4, [pc, #60]	; (10004810 <pio_sm_init+0x88>)
100047d2:	002e      	movs	r6, r5
100047d4:	408c      	lsls	r4, r1
100047d6:	6084      	str	r4, [r0, #8]
100047d8:	1d0c      	adds	r4, r1, #4
100047da:	40a6      	lsls	r6, r4
100047dc:	2480      	movs	r4, #128	; 0x80
100047de:	3108      	adds	r1, #8
100047e0:	408d      	lsls	r5, r1
100047e2:	211f      	movs	r1, #31
100047e4:	01a4      	lsls	r4, r4, #6
100047e6:	4304      	orrs	r4, r0
100047e8:	18c0      	adds	r0, r0, r3
100047ea:	400a      	ands	r2, r1
100047ec:	30d8      	adds	r0, #216	; 0xd8
100047ee:	6026      	str	r6, [r4, #0]
100047f0:	6025      	str	r5, [r4, #0]
100047f2:	6002      	str	r2, [r0, #0]
100047f4:	bdf0      	pop	{r4, r5, r6, r7, pc}
100047f6:	2780      	movs	r7, #128	; 0x80
100047f8:	027f      	lsls	r7, r7, #9
100047fa:	6037      	str	r7, [r6, #0]
100047fc:	27f8      	movs	r7, #248	; 0xf8
100047fe:	027f      	lsls	r7, r7, #9
10004800:	6077      	str	r7, [r6, #4]
10004802:	27c0      	movs	r7, #192	; 0xc0
10004804:	34dc      	adds	r4, #220	; 0xdc
10004806:	033f      	lsls	r7, r7, #12
10004808:	60b7      	str	r7, [r6, #8]
1000480a:	6023      	str	r3, [r4, #0]
1000480c:	e7d3      	b.n	100047b6 <pio_sm_init+0x2e>
1000480e:	46c0      	nop			; (mov r8, r8)
10004810:	01010101 	.word	0x01010101

10004814 <malloc>:
10004814:	b510      	push	{r4, lr}
10004816:	4b03      	ldr	r3, [pc, #12]	; (10004824 <malloc+0x10>)
10004818:	0001      	movs	r1, r0
1000481a:	6818      	ldr	r0, [r3, #0]
1000481c:	f000 f80e 	bl	1000483c <_malloc_r>
10004820:	bd10      	pop	{r4, pc}
10004822:	46c0      	nop			; (mov r8, r8)
10004824:	20000ef0 	.word	0x20000ef0

10004828 <free>:
10004828:	b510      	push	{r4, lr}
1000482a:	4b03      	ldr	r3, [pc, #12]	; (10004838 <free+0x10>)
1000482c:	0001      	movs	r1, r0
1000482e:	6818      	ldr	r0, [r3, #0]
10004830:	f000 fb50 	bl	10004ed4 <_free_r>
10004834:	bd10      	pop	{r4, pc}
10004836:	46c0      	nop			; (mov r8, r8)
10004838:	20000ef0 	.word	0x20000ef0

1000483c <_malloc_r>:
1000483c:	b5f0      	push	{r4, r5, r6, r7, lr}
1000483e:	464e      	mov	r6, r9
10004840:	4645      	mov	r5, r8
10004842:	46de      	mov	lr, fp
10004844:	4657      	mov	r7, sl
10004846:	b5e0      	push	{r5, r6, r7, lr}
10004848:	000d      	movs	r5, r1
1000484a:	350b      	adds	r5, #11
1000484c:	0006      	movs	r6, r0
1000484e:	b083      	sub	sp, #12
10004850:	2d16      	cmp	r5, #22
10004852:	d822      	bhi.n	1000489a <_malloc_r+0x5e>
10004854:	2910      	cmp	r1, #16
10004856:	d900      	bls.n	1000485a <_malloc_r+0x1e>
10004858:	e0b2      	b.n	100049c0 <_malloc_r+0x184>
1000485a:	f000 faa9 	bl	10004db0 <__malloc_lock>
1000485e:	2510      	movs	r5, #16
10004860:	2318      	movs	r3, #24
10004862:	2002      	movs	r0, #2
10004864:	4fcc      	ldr	r7, [pc, #816]	; (10004b98 <_malloc_r+0x35c>)
10004866:	18fb      	adds	r3, r7, r3
10004868:	001a      	movs	r2, r3
1000486a:	685c      	ldr	r4, [r3, #4]
1000486c:	3a08      	subs	r2, #8
1000486e:	4294      	cmp	r4, r2
10004870:	d100      	bne.n	10004874 <_malloc_r+0x38>
10004872:	e0b5      	b.n	100049e0 <_malloc_r+0x1a4>
10004874:	2303      	movs	r3, #3
10004876:	6862      	ldr	r2, [r4, #4]
10004878:	439a      	bics	r2, r3
1000487a:	0013      	movs	r3, r2
1000487c:	68e2      	ldr	r2, [r4, #12]
1000487e:	68a1      	ldr	r1, [r4, #8]
10004880:	60ca      	str	r2, [r1, #12]
10004882:	6091      	str	r1, [r2, #8]
10004884:	2201      	movs	r2, #1
10004886:	18e3      	adds	r3, r4, r3
10004888:	6859      	ldr	r1, [r3, #4]
1000488a:	0030      	movs	r0, r6
1000488c:	430a      	orrs	r2, r1
1000488e:	605a      	str	r2, [r3, #4]
10004890:	f000 fa90 	bl	10004db4 <__malloc_unlock>
10004894:	0020      	movs	r0, r4
10004896:	3008      	adds	r0, #8
10004898:	e095      	b.n	100049c6 <_malloc_r+0x18a>
1000489a:	2307      	movs	r3, #7
1000489c:	439d      	bics	r5, r3
1000489e:	d500      	bpl.n	100048a2 <_malloc_r+0x66>
100048a0:	e08e      	b.n	100049c0 <_malloc_r+0x184>
100048a2:	42a9      	cmp	r1, r5
100048a4:	d900      	bls.n	100048a8 <_malloc_r+0x6c>
100048a6:	e08b      	b.n	100049c0 <_malloc_r+0x184>
100048a8:	f000 fa82 	bl	10004db0 <__malloc_lock>
100048ac:	23fc      	movs	r3, #252	; 0xfc
100048ae:	005b      	lsls	r3, r3, #1
100048b0:	429d      	cmp	r5, r3
100048b2:	d200      	bcs.n	100048b6 <_malloc_r+0x7a>
100048b4:	e1a1      	b.n	10004bfa <_malloc_r+0x3be>
100048b6:	0a68      	lsrs	r0, r5, #9
100048b8:	d100      	bne.n	100048bc <_malloc_r+0x80>
100048ba:	e08b      	b.n	100049d4 <_malloc_r+0x198>
100048bc:	2804      	cmp	r0, #4
100048be:	d900      	bls.n	100048c2 <_malloc_r+0x86>
100048c0:	e174      	b.n	10004bac <_malloc_r+0x370>
100048c2:	2338      	movs	r3, #56	; 0x38
100048c4:	4698      	mov	r8, r3
100048c6:	09a8      	lsrs	r0, r5, #6
100048c8:	4480      	add	r8, r0
100048ca:	3039      	adds	r0, #57	; 0x39
100048cc:	00c1      	lsls	r1, r0, #3
100048ce:	4fb2      	ldr	r7, [pc, #712]	; (10004b98 <_malloc_r+0x35c>)
100048d0:	1879      	adds	r1, r7, r1
100048d2:	684c      	ldr	r4, [r1, #4]
100048d4:	3908      	subs	r1, #8
100048d6:	42a1      	cmp	r1, r4
100048d8:	d00e      	beq.n	100048f8 <_malloc_r+0xbc>
100048da:	2303      	movs	r3, #3
100048dc:	469c      	mov	ip, r3
100048de:	e004      	b.n	100048ea <_malloc_r+0xae>
100048e0:	2a00      	cmp	r2, #0
100048e2:	dacb      	bge.n	1000487c <_malloc_r+0x40>
100048e4:	68e4      	ldr	r4, [r4, #12]
100048e6:	42a1      	cmp	r1, r4
100048e8:	d006      	beq.n	100048f8 <_malloc_r+0xbc>
100048ea:	4662      	mov	r2, ip
100048ec:	6863      	ldr	r3, [r4, #4]
100048ee:	4393      	bics	r3, r2
100048f0:	1b5a      	subs	r2, r3, r5
100048f2:	2a0f      	cmp	r2, #15
100048f4:	ddf4      	ble.n	100048e0 <_malloc_r+0xa4>
100048f6:	4640      	mov	r0, r8
100048f8:	003a      	movs	r2, r7
100048fa:	693c      	ldr	r4, [r7, #16]
100048fc:	3208      	adds	r2, #8
100048fe:	4294      	cmp	r4, r2
10004900:	d100      	bne.n	10004904 <_malloc_r+0xc8>
10004902:	e078      	b.n	100049f6 <_malloc_r+0x1ba>
10004904:	2303      	movs	r3, #3
10004906:	6861      	ldr	r1, [r4, #4]
10004908:	4399      	bics	r1, r3
1000490a:	4689      	mov	r9, r1
1000490c:	000b      	movs	r3, r1
1000490e:	1b49      	subs	r1, r1, r5
10004910:	290f      	cmp	r1, #15
10004912:	dd00      	ble.n	10004916 <_malloc_r+0xda>
10004914:	e175      	b.n	10004c02 <_malloc_r+0x3c6>
10004916:	617a      	str	r2, [r7, #20]
10004918:	613a      	str	r2, [r7, #16]
1000491a:	2900      	cmp	r1, #0
1000491c:	dab2      	bge.n	10004884 <_malloc_r+0x48>
1000491e:	2280      	movs	r2, #128	; 0x80
10004920:	0092      	lsls	r2, r2, #2
10004922:	4591      	cmp	r9, r2
10004924:	d300      	bcc.n	10004928 <_malloc_r+0xec>
10004926:	e110      	b.n	10004b4a <_malloc_r+0x30e>
10004928:	0959      	lsrs	r1, r3, #5
1000492a:	08da      	lsrs	r2, r3, #3
1000492c:	2301      	movs	r3, #1
1000492e:	408b      	lsls	r3, r1
10004930:	00d2      	lsls	r2, r2, #3
10004932:	6879      	ldr	r1, [r7, #4]
10004934:	19d2      	adds	r2, r2, r7
10004936:	430b      	orrs	r3, r1
10004938:	6891      	ldr	r1, [r2, #8]
1000493a:	607b      	str	r3, [r7, #4]
1000493c:	60e2      	str	r2, [r4, #12]
1000493e:	60a1      	str	r1, [r4, #8]
10004940:	6094      	str	r4, [r2, #8]
10004942:	60cc      	str	r4, [r1, #12]
10004944:	2101      	movs	r1, #1
10004946:	1082      	asrs	r2, r0, #2
10004948:	4091      	lsls	r1, r2
1000494a:	4299      	cmp	r1, r3
1000494c:	d859      	bhi.n	10004a02 <_malloc_r+0x1c6>
1000494e:	420b      	tst	r3, r1
10004950:	d105      	bne.n	1000495e <_malloc_r+0x122>
10004952:	2203      	movs	r2, #3
10004954:	4390      	bics	r0, r2
10004956:	0049      	lsls	r1, r1, #1
10004958:	3004      	adds	r0, #4
1000495a:	420b      	tst	r3, r1
1000495c:	d0fb      	beq.n	10004956 <_malloc_r+0x11a>
1000495e:	2303      	movs	r3, #3
10004960:	4698      	mov	r8, r3
10004962:	00c3      	lsls	r3, r0, #3
10004964:	4699      	mov	r9, r3
10004966:	44b9      	add	r9, r7
10004968:	46cc      	mov	ip, r9
1000496a:	4682      	mov	sl, r0
1000496c:	4663      	mov	r3, ip
1000496e:	68dc      	ldr	r4, [r3, #12]
10004970:	45a4      	cmp	ip, r4
10004972:	d107      	bne.n	10004984 <_malloc_r+0x148>
10004974:	e126      	b.n	10004bc4 <_malloc_r+0x388>
10004976:	2a00      	cmp	r2, #0
10004978:	db00      	blt.n	1000497c <_malloc_r+0x140>
1000497a:	e12f      	b.n	10004bdc <_malloc_r+0x3a0>
1000497c:	68e4      	ldr	r4, [r4, #12]
1000497e:	45a4      	cmp	ip, r4
10004980:	d100      	bne.n	10004984 <_malloc_r+0x148>
10004982:	e11f      	b.n	10004bc4 <_malloc_r+0x388>
10004984:	4642      	mov	r2, r8
10004986:	6863      	ldr	r3, [r4, #4]
10004988:	4393      	bics	r3, r2
1000498a:	1b5a      	subs	r2, r3, r5
1000498c:	2a0f      	cmp	r2, #15
1000498e:	ddf2      	ble.n	10004976 <_malloc_r+0x13a>
10004990:	2001      	movs	r0, #1
10004992:	4680      	mov	r8, r0
10004994:	1961      	adds	r1, r4, r5
10004996:	4305      	orrs	r5, r0
10004998:	6065      	str	r5, [r4, #4]
1000499a:	68a0      	ldr	r0, [r4, #8]
1000499c:	68e5      	ldr	r5, [r4, #12]
1000499e:	3708      	adds	r7, #8
100049a0:	60c5      	str	r5, [r0, #12]
100049a2:	60a8      	str	r0, [r5, #8]
100049a4:	4640      	mov	r0, r8
100049a6:	4310      	orrs	r0, r2
100049a8:	60f9      	str	r1, [r7, #12]
100049aa:	60b9      	str	r1, [r7, #8]
100049ac:	6048      	str	r0, [r1, #4]
100049ae:	60cf      	str	r7, [r1, #12]
100049b0:	0030      	movs	r0, r6
100049b2:	608f      	str	r7, [r1, #8]
100049b4:	50e2      	str	r2, [r4, r3]
100049b6:	f000 f9fd 	bl	10004db4 <__malloc_unlock>
100049ba:	0020      	movs	r0, r4
100049bc:	3008      	adds	r0, #8
100049be:	e002      	b.n	100049c6 <_malloc_r+0x18a>
100049c0:	230c      	movs	r3, #12
100049c2:	2000      	movs	r0, #0
100049c4:	6033      	str	r3, [r6, #0]
100049c6:	b003      	add	sp, #12
100049c8:	bcf0      	pop	{r4, r5, r6, r7}
100049ca:	46bb      	mov	fp, r7
100049cc:	46b2      	mov	sl, r6
100049ce:	46a9      	mov	r9, r5
100049d0:	46a0      	mov	r8, r4
100049d2:	bdf0      	pop	{r4, r5, r6, r7, pc}
100049d4:	2180      	movs	r1, #128	; 0x80
100049d6:	233f      	movs	r3, #63	; 0x3f
100049d8:	2040      	movs	r0, #64	; 0x40
100049da:	4698      	mov	r8, r3
100049dc:	0089      	lsls	r1, r1, #2
100049de:	e776      	b.n	100048ce <_malloc_r+0x92>
100049e0:	68dc      	ldr	r4, [r3, #12]
100049e2:	3002      	adds	r0, #2
100049e4:	42a3      	cmp	r3, r4
100049e6:	d000      	beq.n	100049ea <_malloc_r+0x1ae>
100049e8:	e744      	b.n	10004874 <_malloc_r+0x38>
100049ea:	003a      	movs	r2, r7
100049ec:	693c      	ldr	r4, [r7, #16]
100049ee:	3208      	adds	r2, #8
100049f0:	4294      	cmp	r4, r2
100049f2:	d000      	beq.n	100049f6 <_malloc_r+0x1ba>
100049f4:	e786      	b.n	10004904 <_malloc_r+0xc8>
100049f6:	2101      	movs	r1, #1
100049f8:	687b      	ldr	r3, [r7, #4]
100049fa:	1082      	asrs	r2, r0, #2
100049fc:	4091      	lsls	r1, r2
100049fe:	4299      	cmp	r1, r3
10004a00:	d9a5      	bls.n	1000494e <_malloc_r+0x112>
10004a02:	2303      	movs	r3, #3
10004a04:	68bc      	ldr	r4, [r7, #8]
10004a06:	6862      	ldr	r2, [r4, #4]
10004a08:	439a      	bics	r2, r3
10004a0a:	4691      	mov	r9, r2
10004a0c:	4295      	cmp	r5, r2
10004a0e:	d803      	bhi.n	10004a18 <_malloc_r+0x1dc>
10004a10:	1b53      	subs	r3, r2, r5
10004a12:	2b0f      	cmp	r3, #15
10004a14:	dd00      	ble.n	10004a18 <_malloc_r+0x1dc>
10004a16:	e08a      	b.n	10004b2e <_malloc_r+0x2f2>
10004a18:	0023      	movs	r3, r4
10004a1a:	444b      	add	r3, r9
10004a1c:	4a5f      	ldr	r2, [pc, #380]	; (10004b9c <_malloc_r+0x360>)
10004a1e:	9301      	str	r3, [sp, #4]
10004a20:	4b5f      	ldr	r3, [pc, #380]	; (10004ba0 <_malloc_r+0x364>)
10004a22:	4693      	mov	fp, r2
10004a24:	469a      	mov	sl, r3
10004a26:	6812      	ldr	r2, [r2, #0]
10004a28:	681b      	ldr	r3, [r3, #0]
10004a2a:	18eb      	adds	r3, r5, r3
10004a2c:	3201      	adds	r2, #1
10004a2e:	d100      	bne.n	10004a32 <_malloc_r+0x1f6>
10004a30:	e136      	b.n	10004ca0 <_malloc_r+0x464>
10004a32:	4a5c      	ldr	r2, [pc, #368]	; (10004ba4 <_malloc_r+0x368>)
10004a34:	4694      	mov	ip, r2
10004a36:	4463      	add	r3, ip
10004a38:	0b1b      	lsrs	r3, r3, #12
10004a3a:	031b      	lsls	r3, r3, #12
10004a3c:	9300      	str	r3, [sp, #0]
10004a3e:	0030      	movs	r0, r6
10004a40:	9900      	ldr	r1, [sp, #0]
10004a42:	f000 f9b9 	bl	10004db8 <_sbrk_r>
10004a46:	0003      	movs	r3, r0
10004a48:	4680      	mov	r8, r0
10004a4a:	3301      	adds	r3, #1
10004a4c:	d100      	bne.n	10004a50 <_malloc_r+0x214>
10004a4e:	e0f3      	b.n	10004c38 <_malloc_r+0x3fc>
10004a50:	9b01      	ldr	r3, [sp, #4]
10004a52:	4283      	cmp	r3, r0
10004a54:	d900      	bls.n	10004a58 <_malloc_r+0x21c>
10004a56:	e0ed      	b.n	10004c34 <_malloc_r+0x3f8>
10004a58:	4652      	mov	r2, sl
10004a5a:	9800      	ldr	r0, [sp, #0]
10004a5c:	6852      	ldr	r2, [r2, #4]
10004a5e:	0003      	movs	r3, r0
10004a60:	4694      	mov	ip, r2
10004a62:	4651      	mov	r1, sl
10004a64:	4463      	add	r3, ip
10004a66:	604b      	str	r3, [r1, #4]
10004a68:	9901      	ldr	r1, [sp, #4]
10004a6a:	001a      	movs	r2, r3
10004a6c:	4541      	cmp	r1, r8
10004a6e:	d100      	bne.n	10004a72 <_malloc_r+0x236>
10004a70:	e14b      	b.n	10004d0a <_malloc_r+0x4ce>
10004a72:	465b      	mov	r3, fp
10004a74:	681b      	ldr	r3, [r3, #0]
10004a76:	3301      	adds	r3, #1
10004a78:	d100      	bne.n	10004a7c <_malloc_r+0x240>
10004a7a:	e150      	b.n	10004d1e <_malloc_r+0x4e2>
10004a7c:	4643      	mov	r3, r8
10004a7e:	9901      	ldr	r1, [sp, #4]
10004a80:	1a5b      	subs	r3, r3, r1
10004a82:	189a      	adds	r2, r3, r2
10004a84:	4653      	mov	r3, sl
10004a86:	605a      	str	r2, [r3, #4]
10004a88:	2307      	movs	r3, #7
10004a8a:	4642      	mov	r2, r8
10004a8c:	4641      	mov	r1, r8
10004a8e:	401a      	ands	r2, r3
10004a90:	9201      	str	r2, [sp, #4]
10004a92:	4219      	tst	r1, r3
10004a94:	d100      	bne.n	10004a98 <_malloc_r+0x25c>
10004a96:	e10d      	b.n	10004cb4 <_malloc_r+0x478>
10004a98:	2308      	movs	r3, #8
10004a9a:	4698      	mov	r8, r3
10004a9c:	1a88      	subs	r0, r1, r2
10004a9e:	4b42      	ldr	r3, [pc, #264]	; (10004ba8 <_malloc_r+0x36c>)
10004aa0:	9900      	ldr	r1, [sp, #0]
10004aa2:	4480      	add	r8, r0
10004aa4:	4441      	add	r1, r8
10004aa6:	1a9b      	subs	r3, r3, r2
10004aa8:	1a5b      	subs	r3, r3, r1
10004aaa:	051b      	lsls	r3, r3, #20
10004aac:	0d1b      	lsrs	r3, r3, #20
10004aae:	9100      	str	r1, [sp, #0]
10004ab0:	0030      	movs	r0, r6
10004ab2:	0019      	movs	r1, r3
10004ab4:	469b      	mov	fp, r3
10004ab6:	f000 f97f 	bl	10004db8 <_sbrk_r>
10004aba:	1c43      	adds	r3, r0, #1
10004abc:	d100      	bne.n	10004ac0 <_malloc_r+0x284>
10004abe:	e14a      	b.n	10004d56 <_malloc_r+0x51a>
10004ac0:	4643      	mov	r3, r8
10004ac2:	1ac0      	subs	r0, r0, r3
10004ac4:	0003      	movs	r3, r0
10004ac6:	445b      	add	r3, fp
10004ac8:	9300      	str	r3, [sp, #0]
10004aca:	4653      	mov	r3, sl
10004acc:	4652      	mov	r2, sl
10004ace:	685b      	ldr	r3, [r3, #4]
10004ad0:	2101      	movs	r1, #1
10004ad2:	445b      	add	r3, fp
10004ad4:	6053      	str	r3, [r2, #4]
10004ad6:	4642      	mov	r2, r8
10004ad8:	4640      	mov	r0, r8
10004ada:	60ba      	str	r2, [r7, #8]
10004adc:	9a00      	ldr	r2, [sp, #0]
10004ade:	430a      	orrs	r2, r1
10004ae0:	6042      	str	r2, [r0, #4]
10004ae2:	42bc      	cmp	r4, r7
10004ae4:	d100      	bne.n	10004ae8 <_malloc_r+0x2ac>
10004ae6:	e11e      	b.n	10004d26 <_malloc_r+0x4ea>
10004ae8:	464a      	mov	r2, r9
10004aea:	2a0f      	cmp	r2, #15
10004aec:	d800      	bhi.n	10004af0 <_malloc_r+0x2b4>
10004aee:	e11c      	b.n	10004d2a <_malloc_r+0x4ee>
10004af0:	2007      	movs	r0, #7
10004af2:	3a0c      	subs	r2, #12
10004af4:	4382      	bics	r2, r0
10004af6:	6860      	ldr	r0, [r4, #4]
10004af8:	4001      	ands	r1, r0
10004afa:	2005      	movs	r0, #5
10004afc:	4311      	orrs	r1, r2
10004afe:	6061      	str	r1, [r4, #4]
10004b00:	18a1      	adds	r1, r4, r2
10004b02:	6048      	str	r0, [r1, #4]
10004b04:	6088      	str	r0, [r1, #8]
10004b06:	2a0f      	cmp	r2, #15
10004b08:	d900      	bls.n	10004b0c <_malloc_r+0x2d0>
10004b0a:	e12f      	b.n	10004d6c <_malloc_r+0x530>
10004b0c:	4642      	mov	r2, r8
10004b0e:	4644      	mov	r4, r8
10004b10:	6852      	ldr	r2, [r2, #4]
10004b12:	4651      	mov	r1, sl
10004b14:	6ac9      	ldr	r1, [r1, #44]	; 0x2c
10004b16:	4299      	cmp	r1, r3
10004b18:	d201      	bcs.n	10004b1e <_malloc_r+0x2e2>
10004b1a:	4651      	mov	r1, sl
10004b1c:	62cb      	str	r3, [r1, #44]	; 0x2c
10004b1e:	4651      	mov	r1, sl
10004b20:	6b09      	ldr	r1, [r1, #48]	; 0x30
10004b22:	4299      	cmp	r1, r3
10004b24:	d300      	bcc.n	10004b28 <_malloc_r+0x2ec>
10004b26:	e089      	b.n	10004c3c <_malloc_r+0x400>
10004b28:	4651      	mov	r1, sl
10004b2a:	630b      	str	r3, [r1, #48]	; 0x30
10004b2c:	e086      	b.n	10004c3c <_malloc_r+0x400>
10004b2e:	2201      	movs	r2, #1
10004b30:	0029      	movs	r1, r5
10004b32:	4313      	orrs	r3, r2
10004b34:	4311      	orrs	r1, r2
10004b36:	1965      	adds	r5, r4, r5
10004b38:	6061      	str	r1, [r4, #4]
10004b3a:	0030      	movs	r0, r6
10004b3c:	60bd      	str	r5, [r7, #8]
10004b3e:	606b      	str	r3, [r5, #4]
10004b40:	f000 f938 	bl	10004db4 <__malloc_unlock>
10004b44:	0020      	movs	r0, r4
10004b46:	3008      	adds	r0, #8
10004b48:	e73d      	b.n	100049c6 <_malloc_r+0x18a>
10004b4a:	0a5a      	lsrs	r2, r3, #9
10004b4c:	2a04      	cmp	r2, #4
10004b4e:	d96b      	bls.n	10004c28 <_malloc_r+0x3ec>
10004b50:	2a14      	cmp	r2, #20
10004b52:	d900      	bls.n	10004b56 <_malloc_r+0x31a>
10004b54:	e0be      	b.n	10004cd4 <_malloc_r+0x498>
10004b56:	0011      	movs	r1, r2
10004b58:	325c      	adds	r2, #92	; 0x5c
10004b5a:	315b      	adds	r1, #91	; 0x5b
10004b5c:	00d2      	lsls	r2, r2, #3
10004b5e:	2308      	movs	r3, #8
10004b60:	425b      	negs	r3, r3
10004b62:	469c      	mov	ip, r3
10004b64:	18ba      	adds	r2, r7, r2
10004b66:	4494      	add	ip, r2
10004b68:	4663      	mov	r3, ip
10004b6a:	689a      	ldr	r2, [r3, #8]
10004b6c:	2303      	movs	r3, #3
10004b6e:	4698      	mov	r8, r3
10004b70:	4594      	cmp	ip, r2
10004b72:	d100      	bne.n	10004b76 <_malloc_r+0x33a>
10004b74:	e097      	b.n	10004ca6 <_malloc_r+0x46a>
10004b76:	4643      	mov	r3, r8
10004b78:	6851      	ldr	r1, [r2, #4]
10004b7a:	4399      	bics	r1, r3
10004b7c:	4549      	cmp	r1, r9
10004b7e:	d902      	bls.n	10004b86 <_malloc_r+0x34a>
10004b80:	6892      	ldr	r2, [r2, #8]
10004b82:	4594      	cmp	ip, r2
10004b84:	d1f7      	bne.n	10004b76 <_malloc_r+0x33a>
10004b86:	68d3      	ldr	r3, [r2, #12]
10004b88:	469c      	mov	ip, r3
10004b8a:	687b      	ldr	r3, [r7, #4]
10004b8c:	4661      	mov	r1, ip
10004b8e:	60a2      	str	r2, [r4, #8]
10004b90:	60e1      	str	r1, [r4, #12]
10004b92:	608c      	str	r4, [r1, #8]
10004b94:	60d4      	str	r4, [r2, #12]
10004b96:	e6d5      	b.n	10004944 <_malloc_r+0x108>
10004b98:	20001328 	.word	0x20001328
10004b9c:	20001320 	.word	0x20001320
10004ba0:	20001a74 	.word	0x20001a74
10004ba4:	0000100f 	.word	0x0000100f
10004ba8:	00001008 	.word	0x00001008
10004bac:	2814      	cmp	r0, #20
10004bae:	d952      	bls.n	10004c56 <_malloc_r+0x41a>
10004bb0:	2854      	cmp	r0, #84	; 0x54
10004bb2:	d900      	bls.n	10004bb6 <_malloc_r+0x37a>
10004bb4:	e096      	b.n	10004ce4 <_malloc_r+0x4a8>
10004bb6:	236e      	movs	r3, #110	; 0x6e
10004bb8:	4698      	mov	r8, r3
10004bba:	0b28      	lsrs	r0, r5, #12
10004bbc:	4480      	add	r8, r0
10004bbe:	306f      	adds	r0, #111	; 0x6f
10004bc0:	00c1      	lsls	r1, r0, #3
10004bc2:	e684      	b.n	100048ce <_malloc_r+0x92>
10004bc4:	2308      	movs	r3, #8
10004bc6:	469b      	mov	fp, r3
10004bc8:	3b07      	subs	r3, #7
10004bca:	44dc      	add	ip, fp
10004bcc:	469b      	mov	fp, r3
10004bce:	44da      	add	sl, fp
10004bd0:	4643      	mov	r3, r8
10004bd2:	4652      	mov	r2, sl
10004bd4:	4213      	tst	r3, r2
10004bd6:	d000      	beq.n	10004bda <_malloc_r+0x39e>
10004bd8:	e6c8      	b.n	1000496c <_malloc_r+0x130>
10004bda:	e04c      	b.n	10004c76 <_malloc_r+0x43a>
10004bdc:	2201      	movs	r2, #1
10004bde:	18e3      	adds	r3, r4, r3
10004be0:	6859      	ldr	r1, [r3, #4]
10004be2:	0030      	movs	r0, r6
10004be4:	430a      	orrs	r2, r1
10004be6:	605a      	str	r2, [r3, #4]
10004be8:	68e3      	ldr	r3, [r4, #12]
10004bea:	68a2      	ldr	r2, [r4, #8]
10004bec:	60d3      	str	r3, [r2, #12]
10004bee:	609a      	str	r2, [r3, #8]
10004bf0:	f000 f8e0 	bl	10004db4 <__malloc_unlock>
10004bf4:	0020      	movs	r0, r4
10004bf6:	3008      	adds	r0, #8
10004bf8:	e6e5      	b.n	100049c6 <_malloc_r+0x18a>
10004bfa:	002b      	movs	r3, r5
10004bfc:	08e8      	lsrs	r0, r5, #3
10004bfe:	3308      	adds	r3, #8
10004c00:	e630      	b.n	10004864 <_malloc_r+0x28>
10004c02:	2301      	movs	r3, #1
10004c04:	1960      	adds	r0, r4, r5
10004c06:	431d      	orrs	r5, r3
10004c08:	6065      	str	r5, [r4, #4]
10004c0a:	6178      	str	r0, [r7, #20]
10004c0c:	6138      	str	r0, [r7, #16]
10004c0e:	60c2      	str	r2, [r0, #12]
10004c10:	6082      	str	r2, [r0, #8]
10004c12:	001a      	movs	r2, r3
10004c14:	464b      	mov	r3, r9
10004c16:	430a      	orrs	r2, r1
10004c18:	6042      	str	r2, [r0, #4]
10004c1a:	0030      	movs	r0, r6
10004c1c:	50e1      	str	r1, [r4, r3]
10004c1e:	f000 f8c9 	bl	10004db4 <__malloc_unlock>
10004c22:	0020      	movs	r0, r4
10004c24:	3008      	adds	r0, #8
10004c26:	e6ce      	b.n	100049c6 <_malloc_r+0x18a>
10004c28:	099a      	lsrs	r2, r3, #6
10004c2a:	0011      	movs	r1, r2
10004c2c:	3239      	adds	r2, #57	; 0x39
10004c2e:	3138      	adds	r1, #56	; 0x38
10004c30:	00d2      	lsls	r2, r2, #3
10004c32:	e794      	b.n	10004b5e <_malloc_r+0x322>
10004c34:	42bc      	cmp	r4, r7
10004c36:	d060      	beq.n	10004cfa <_malloc_r+0x4be>
10004c38:	68bc      	ldr	r4, [r7, #8]
10004c3a:	6862      	ldr	r2, [r4, #4]
10004c3c:	2303      	movs	r3, #3
10004c3e:	439a      	bics	r2, r3
10004c40:	1b53      	subs	r3, r2, r5
10004c42:	4295      	cmp	r5, r2
10004c44:	d802      	bhi.n	10004c4c <_malloc_r+0x410>
10004c46:	2b0f      	cmp	r3, #15
10004c48:	dd00      	ble.n	10004c4c <_malloc_r+0x410>
10004c4a:	e770      	b.n	10004b2e <_malloc_r+0x2f2>
10004c4c:	0030      	movs	r0, r6
10004c4e:	f000 f8b1 	bl	10004db4 <__malloc_unlock>
10004c52:	2000      	movs	r0, #0
10004c54:	e6b7      	b.n	100049c6 <_malloc_r+0x18a>
10004c56:	235b      	movs	r3, #91	; 0x5b
10004c58:	4698      	mov	r8, r3
10004c5a:	4480      	add	r8, r0
10004c5c:	305c      	adds	r0, #92	; 0x5c
10004c5e:	00c1      	lsls	r1, r0, #3
10004c60:	e635      	b.n	100048ce <_malloc_r+0x92>
10004c62:	2308      	movs	r3, #8
10004c64:	425b      	negs	r3, r3
10004c66:	469c      	mov	ip, r3
10004c68:	44e1      	add	r9, ip
10004c6a:	464b      	mov	r3, r9
10004c6c:	689b      	ldr	r3, [r3, #8]
10004c6e:	3801      	subs	r0, #1
10004c70:	454b      	cmp	r3, r9
10004c72:	d000      	beq.n	10004c76 <_malloc_r+0x43a>
10004c74:	e097      	b.n	10004da6 <_malloc_r+0x56a>
10004c76:	4643      	mov	r3, r8
10004c78:	4203      	tst	r3, r0
10004c7a:	d1f2      	bne.n	10004c62 <_malloc_r+0x426>
10004c7c:	687b      	ldr	r3, [r7, #4]
10004c7e:	438b      	bics	r3, r1
10004c80:	607b      	str	r3, [r7, #4]
10004c82:	0049      	lsls	r1, r1, #1
10004c84:	4299      	cmp	r1, r3
10004c86:	d900      	bls.n	10004c8a <_malloc_r+0x44e>
10004c88:	e6bb      	b.n	10004a02 <_malloc_r+0x1c6>
10004c8a:	2900      	cmp	r1, #0
10004c8c:	d104      	bne.n	10004c98 <_malloc_r+0x45c>
10004c8e:	e6b8      	b.n	10004a02 <_malloc_r+0x1c6>
10004c90:	2204      	movs	r2, #4
10004c92:	4694      	mov	ip, r2
10004c94:	0049      	lsls	r1, r1, #1
10004c96:	44e2      	add	sl, ip
10004c98:	420b      	tst	r3, r1
10004c9a:	d0f9      	beq.n	10004c90 <_malloc_r+0x454>
10004c9c:	4650      	mov	r0, sl
10004c9e:	e660      	b.n	10004962 <_malloc_r+0x126>
10004ca0:	3310      	adds	r3, #16
10004ca2:	9300      	str	r3, [sp, #0]
10004ca4:	e6cb      	b.n	10004a3e <_malloc_r+0x202>
10004ca6:	1089      	asrs	r1, r1, #2
10004ca8:	3b02      	subs	r3, #2
10004caa:	408b      	lsls	r3, r1
10004cac:	6879      	ldr	r1, [r7, #4]
10004cae:	430b      	orrs	r3, r1
10004cb0:	607b      	str	r3, [r7, #4]
10004cb2:	e76b      	b.n	10004b8c <_malloc_r+0x350>
10004cb4:	9b00      	ldr	r3, [sp, #0]
10004cb6:	0030      	movs	r0, r6
10004cb8:	4443      	add	r3, r8
10004cba:	425b      	negs	r3, r3
10004cbc:	051b      	lsls	r3, r3, #20
10004cbe:	0d1b      	lsrs	r3, r3, #20
10004cc0:	0019      	movs	r1, r3
10004cc2:	469b      	mov	fp, r3
10004cc4:	f000 f878 	bl	10004db8 <_sbrk_r>
10004cc8:	1c43      	adds	r3, r0, #1
10004cca:	d000      	beq.n	10004cce <_malloc_r+0x492>
10004ccc:	e6f8      	b.n	10004ac0 <_malloc_r+0x284>
10004cce:	2300      	movs	r3, #0
10004cd0:	469b      	mov	fp, r3
10004cd2:	e6fa      	b.n	10004aca <_malloc_r+0x28e>
10004cd4:	2a54      	cmp	r2, #84	; 0x54
10004cd6:	d82a      	bhi.n	10004d2e <_malloc_r+0x4f2>
10004cd8:	0b1a      	lsrs	r2, r3, #12
10004cda:	0011      	movs	r1, r2
10004cdc:	326f      	adds	r2, #111	; 0x6f
10004cde:	316e      	adds	r1, #110	; 0x6e
10004ce0:	00d2      	lsls	r2, r2, #3
10004ce2:	e73c      	b.n	10004b5e <_malloc_r+0x322>
10004ce4:	23aa      	movs	r3, #170	; 0xaa
10004ce6:	005b      	lsls	r3, r3, #1
10004ce8:	4298      	cmp	r0, r3
10004cea:	d82a      	bhi.n	10004d42 <_malloc_r+0x506>
10004cec:	3bdd      	subs	r3, #221	; 0xdd
10004cee:	4698      	mov	r8, r3
10004cf0:	0be8      	lsrs	r0, r5, #15
10004cf2:	4480      	add	r8, r0
10004cf4:	3078      	adds	r0, #120	; 0x78
10004cf6:	00c1      	lsls	r1, r0, #3
10004cf8:	e5e9      	b.n	100048ce <_malloc_r+0x92>
10004cfa:	4653      	mov	r3, sl
10004cfc:	685b      	ldr	r3, [r3, #4]
10004cfe:	9a00      	ldr	r2, [sp, #0]
10004d00:	469c      	mov	ip, r3
10004d02:	4653      	mov	r3, sl
10004d04:	4462      	add	r2, ip
10004d06:	605a      	str	r2, [r3, #4]
10004d08:	e6b3      	b.n	10004a72 <_malloc_r+0x236>
10004d0a:	0509      	lsls	r1, r1, #20
10004d0c:	d000      	beq.n	10004d10 <_malloc_r+0x4d4>
10004d0e:	e6b0      	b.n	10004a72 <_malloc_r+0x236>
10004d10:	0002      	movs	r2, r0
10004d12:	68bc      	ldr	r4, [r7, #8]
10004d14:	444a      	add	r2, r9
10004d16:	3101      	adds	r1, #1
10004d18:	430a      	orrs	r2, r1
10004d1a:	6062      	str	r2, [r4, #4]
10004d1c:	e6f9      	b.n	10004b12 <_malloc_r+0x2d6>
10004d1e:	465b      	mov	r3, fp
10004d20:	4642      	mov	r2, r8
10004d22:	601a      	str	r2, [r3, #0]
10004d24:	e6b0      	b.n	10004a88 <_malloc_r+0x24c>
10004d26:	4644      	mov	r4, r8
10004d28:	e6f3      	b.n	10004b12 <_malloc_r+0x2d6>
10004d2a:	6041      	str	r1, [r0, #4]
10004d2c:	e78e      	b.n	10004c4c <_malloc_r+0x410>
10004d2e:	21aa      	movs	r1, #170	; 0xaa
10004d30:	0049      	lsls	r1, r1, #1
10004d32:	428a      	cmp	r2, r1
10004d34:	d824      	bhi.n	10004d80 <_malloc_r+0x544>
10004d36:	0bda      	lsrs	r2, r3, #15
10004d38:	0011      	movs	r1, r2
10004d3a:	3278      	adds	r2, #120	; 0x78
10004d3c:	3177      	adds	r1, #119	; 0x77
10004d3e:	00d2      	lsls	r2, r2, #3
10004d40:	e70d      	b.n	10004b5e <_malloc_r+0x322>
10004d42:	4b1a      	ldr	r3, [pc, #104]	; (10004dac <_malloc_r+0x570>)
10004d44:	4298      	cmp	r0, r3
10004d46:	d824      	bhi.n	10004d92 <_malloc_r+0x556>
10004d48:	237c      	movs	r3, #124	; 0x7c
10004d4a:	4698      	mov	r8, r3
10004d4c:	0ca8      	lsrs	r0, r5, #18
10004d4e:	4480      	add	r8, r0
10004d50:	307d      	adds	r0, #125	; 0x7d
10004d52:	00c1      	lsls	r1, r0, #3
10004d54:	e5bb      	b.n	100048ce <_malloc_r+0x92>
10004d56:	9a00      	ldr	r2, [sp, #0]
10004d58:	9b01      	ldr	r3, [sp, #4]
10004d5a:	4694      	mov	ip, r2
10004d5c:	4642      	mov	r2, r8
10004d5e:	3b08      	subs	r3, #8
10004d60:	4463      	add	r3, ip
10004d62:	1a9b      	subs	r3, r3, r2
10004d64:	9300      	str	r3, [sp, #0]
10004d66:	2300      	movs	r3, #0
10004d68:	469b      	mov	fp, r3
10004d6a:	e6ae      	b.n	10004aca <_malloc_r+0x28e>
10004d6c:	0021      	movs	r1, r4
10004d6e:	0030      	movs	r0, r6
10004d70:	3108      	adds	r1, #8
10004d72:	f000 f8af 	bl	10004ed4 <_free_r>
10004d76:	4653      	mov	r3, sl
10004d78:	68bc      	ldr	r4, [r7, #8]
10004d7a:	685b      	ldr	r3, [r3, #4]
10004d7c:	6862      	ldr	r2, [r4, #4]
10004d7e:	e6c8      	b.n	10004b12 <_malloc_r+0x2d6>
10004d80:	490a      	ldr	r1, [pc, #40]	; (10004dac <_malloc_r+0x570>)
10004d82:	428a      	cmp	r2, r1
10004d84:	d80b      	bhi.n	10004d9e <_malloc_r+0x562>
10004d86:	0c9a      	lsrs	r2, r3, #18
10004d88:	0011      	movs	r1, r2
10004d8a:	327d      	adds	r2, #125	; 0x7d
10004d8c:	317c      	adds	r1, #124	; 0x7c
10004d8e:	00d2      	lsls	r2, r2, #3
10004d90:	e6e5      	b.n	10004b5e <_malloc_r+0x322>
10004d92:	21fe      	movs	r1, #254	; 0xfe
10004d94:	237e      	movs	r3, #126	; 0x7e
10004d96:	207f      	movs	r0, #127	; 0x7f
10004d98:	4698      	mov	r8, r3
10004d9a:	0089      	lsls	r1, r1, #2
10004d9c:	e597      	b.n	100048ce <_malloc_r+0x92>
10004d9e:	22fe      	movs	r2, #254	; 0xfe
10004da0:	217e      	movs	r1, #126	; 0x7e
10004da2:	0092      	lsls	r2, r2, #2
10004da4:	e6db      	b.n	10004b5e <_malloc_r+0x322>
10004da6:	687b      	ldr	r3, [r7, #4]
10004da8:	e76b      	b.n	10004c82 <_malloc_r+0x446>
10004daa:	46c0      	nop			; (mov r8, r8)
10004dac:	00000554 	.word	0x00000554

10004db0 <__malloc_lock>:
10004db0:	4770      	bx	lr
10004db2:	46c0      	nop			; (mov r8, r8)

10004db4 <__malloc_unlock>:
10004db4:	4770      	bx	lr
10004db6:	46c0      	nop			; (mov r8, r8)

10004db8 <_sbrk_r>:
10004db8:	2300      	movs	r3, #0
10004dba:	b570      	push	{r4, r5, r6, lr}
10004dbc:	4d06      	ldr	r5, [pc, #24]	; (10004dd8 <_sbrk_r+0x20>)
10004dbe:	0004      	movs	r4, r0
10004dc0:	0008      	movs	r0, r1
10004dc2:	602b      	str	r3, [r5, #0]
10004dc4:	f7fd f810 	bl	10001de8 <_sbrk>
10004dc8:	1c43      	adds	r3, r0, #1
10004dca:	d000      	beq.n	10004dce <_sbrk_r+0x16>
10004dcc:	bd70      	pop	{r4, r5, r6, pc}
10004dce:	682b      	ldr	r3, [r5, #0]
10004dd0:	2b00      	cmp	r3, #0
10004dd2:	d0fb      	beq.n	10004dcc <_sbrk_r+0x14>
10004dd4:	6023      	str	r3, [r4, #0]
10004dd6:	e7f9      	b.n	10004dcc <_sbrk_r+0x14>
10004dd8:	20001aa8 	.word	0x20001aa8

10004ddc <strlen>:
10004ddc:	b510      	push	{r4, lr}
10004dde:	0783      	lsls	r3, r0, #30
10004de0:	d00a      	beq.n	10004df8 <strlen+0x1c>
10004de2:	0003      	movs	r3, r0
10004de4:	2103      	movs	r1, #3
10004de6:	e002      	b.n	10004dee <strlen+0x12>
10004de8:	3301      	adds	r3, #1
10004dea:	420b      	tst	r3, r1
10004dec:	d005      	beq.n	10004dfa <strlen+0x1e>
10004dee:	781a      	ldrb	r2, [r3, #0]
10004df0:	2a00      	cmp	r2, #0
10004df2:	d1f9      	bne.n	10004de8 <strlen+0xc>
10004df4:	1a18      	subs	r0, r3, r0
10004df6:	bd10      	pop	{r4, pc}
10004df8:	0003      	movs	r3, r0
10004dfa:	6819      	ldr	r1, [r3, #0]
10004dfc:	4a0c      	ldr	r2, [pc, #48]	; (10004e30 <strlen+0x54>)
10004dfe:	4c0d      	ldr	r4, [pc, #52]	; (10004e34 <strlen+0x58>)
10004e00:	188a      	adds	r2, r1, r2
10004e02:	438a      	bics	r2, r1
10004e04:	4222      	tst	r2, r4
10004e06:	d10f      	bne.n	10004e28 <strlen+0x4c>
10004e08:	6859      	ldr	r1, [r3, #4]
10004e0a:	4a09      	ldr	r2, [pc, #36]	; (10004e30 <strlen+0x54>)
10004e0c:	3304      	adds	r3, #4
10004e0e:	188a      	adds	r2, r1, r2
10004e10:	438a      	bics	r2, r1
10004e12:	4222      	tst	r2, r4
10004e14:	d108      	bne.n	10004e28 <strlen+0x4c>
10004e16:	6859      	ldr	r1, [r3, #4]
10004e18:	4a05      	ldr	r2, [pc, #20]	; (10004e30 <strlen+0x54>)
10004e1a:	3304      	adds	r3, #4
10004e1c:	188a      	adds	r2, r1, r2
10004e1e:	438a      	bics	r2, r1
10004e20:	4222      	tst	r2, r4
10004e22:	d0f1      	beq.n	10004e08 <strlen+0x2c>
10004e24:	e000      	b.n	10004e28 <strlen+0x4c>
10004e26:	3301      	adds	r3, #1
10004e28:	781a      	ldrb	r2, [r3, #0]
10004e2a:	2a00      	cmp	r2, #0
10004e2c:	d1fb      	bne.n	10004e26 <strlen+0x4a>
10004e2e:	e7e1      	b.n	10004df4 <strlen+0x18>
10004e30:	fefefeff 	.word	0xfefefeff
10004e34:	80808080 	.word	0x80808080

10004e38 <_malloc_trim_r>:
10004e38:	b5f8      	push	{r3, r4, r5, r6, r7, lr}
10004e3a:	000c      	movs	r4, r1
10004e3c:	0005      	movs	r5, r0
10004e3e:	f7ff ffb7 	bl	10004db0 <__malloc_lock>
10004e42:	4f20      	ldr	r7, [pc, #128]	; (10004ec4 <_malloc_trim_r+0x8c>)
10004e44:	68bb      	ldr	r3, [r7, #8]
10004e46:	685e      	ldr	r6, [r3, #4]
10004e48:	2303      	movs	r3, #3
10004e4a:	439e      	bics	r6, r3
10004e4c:	4b1e      	ldr	r3, [pc, #120]	; (10004ec8 <_malloc_trim_r+0x90>)
10004e4e:	1b34      	subs	r4, r6, r4
10004e50:	469c      	mov	ip, r3
10004e52:	4464      	add	r4, ip
10004e54:	0b24      	lsrs	r4, r4, #12
10004e56:	3c01      	subs	r4, #1
10004e58:	3311      	adds	r3, #17
10004e5a:	0324      	lsls	r4, r4, #12
10004e5c:	429c      	cmp	r4, r3
10004e5e:	db07      	blt.n	10004e70 <_malloc_trim_r+0x38>
10004e60:	2100      	movs	r1, #0
10004e62:	0028      	movs	r0, r5
10004e64:	f7ff ffa8 	bl	10004db8 <_sbrk_r>
10004e68:	68bb      	ldr	r3, [r7, #8]
10004e6a:	199b      	adds	r3, r3, r6
10004e6c:	4298      	cmp	r0, r3
10004e6e:	d004      	beq.n	10004e7a <_malloc_trim_r+0x42>
10004e70:	0028      	movs	r0, r5
10004e72:	f7ff ff9f 	bl	10004db4 <__malloc_unlock>
10004e76:	2000      	movs	r0, #0
10004e78:	bdf8      	pop	{r3, r4, r5, r6, r7, pc}
10004e7a:	0028      	movs	r0, r5
10004e7c:	4261      	negs	r1, r4
10004e7e:	f7ff ff9b 	bl	10004db8 <_sbrk_r>
10004e82:	1c43      	adds	r3, r0, #1
10004e84:	d00d      	beq.n	10004ea2 <_malloc_trim_r+0x6a>
10004e86:	2201      	movs	r2, #1
10004e88:	68bb      	ldr	r3, [r7, #8]
10004e8a:	1b36      	subs	r6, r6, r4
10004e8c:	4316      	orrs	r6, r2
10004e8e:	605e      	str	r6, [r3, #4]
10004e90:	4b0e      	ldr	r3, [pc, #56]	; (10004ecc <_malloc_trim_r+0x94>)
10004e92:	0028      	movs	r0, r5
10004e94:	681a      	ldr	r2, [r3, #0]
10004e96:	1b14      	subs	r4, r2, r4
10004e98:	601c      	str	r4, [r3, #0]
10004e9a:	f7ff ff8b 	bl	10004db4 <__malloc_unlock>
10004e9e:	2001      	movs	r0, #1
10004ea0:	e7ea      	b.n	10004e78 <_malloc_trim_r+0x40>
10004ea2:	2100      	movs	r1, #0
10004ea4:	0028      	movs	r0, r5
10004ea6:	f7ff ff87 	bl	10004db8 <_sbrk_r>
10004eaa:	68ba      	ldr	r2, [r7, #8]
10004eac:	1a83      	subs	r3, r0, r2
10004eae:	2b0f      	cmp	r3, #15
10004eb0:	ddde      	ble.n	10004e70 <_malloc_trim_r+0x38>
10004eb2:	4907      	ldr	r1, [pc, #28]	; (10004ed0 <_malloc_trim_r+0x98>)
10004eb4:	6809      	ldr	r1, [r1, #0]
10004eb6:	1a40      	subs	r0, r0, r1
10004eb8:	4904      	ldr	r1, [pc, #16]	; (10004ecc <_malloc_trim_r+0x94>)
10004eba:	6008      	str	r0, [r1, #0]
10004ebc:	2101      	movs	r1, #1
10004ebe:	430b      	orrs	r3, r1
10004ec0:	6053      	str	r3, [r2, #4]
10004ec2:	e7d5      	b.n	10004e70 <_malloc_trim_r+0x38>
10004ec4:	20001328 	.word	0x20001328
10004ec8:	00000fef 	.word	0x00000fef
10004ecc:	20001a78 	.word	0x20001a78
10004ed0:	20001320 	.word	0x20001320

10004ed4 <_free_r>:
10004ed4:	b5f0      	push	{r4, r5, r6, r7, lr}
10004ed6:	46c6      	mov	lr, r8
10004ed8:	0005      	movs	r5, r0
10004eda:	000c      	movs	r4, r1
10004edc:	b500      	push	{lr}
10004ede:	2900      	cmp	r1, #0
10004ee0:	d04f      	beq.n	10004f82 <_free_r+0xae>
10004ee2:	f7ff ff65 	bl	10004db0 <__malloc_lock>
10004ee6:	0021      	movs	r1, r4
10004ee8:	3908      	subs	r1, #8
10004eea:	684c      	ldr	r4, [r1, #4]
10004eec:	2601      	movs	r6, #1
10004eee:	0022      	movs	r2, r4
10004ef0:	2003      	movs	r0, #3
10004ef2:	43b2      	bics	r2, r6
10004ef4:	188f      	adds	r7, r1, r2
10004ef6:	687b      	ldr	r3, [r7, #4]
10004ef8:	4383      	bics	r3, r0
10004efa:	4862      	ldr	r0, [pc, #392]	; (10005084 <_free_r+0x1b0>)
10004efc:	4698      	mov	r8, r3
10004efe:	6883      	ldr	r3, [r0, #8]
10004f00:	42bb      	cmp	r3, r7
10004f02:	d06a      	beq.n	10004fda <_free_r+0x106>
10004f04:	4643      	mov	r3, r8
10004f06:	607b      	str	r3, [r7, #4]
10004f08:	4226      	tst	r6, r4
10004f0a:	d11e      	bne.n	10004f4a <_free_r+0x76>
10004f0c:	2308      	movs	r3, #8
10004f0e:	469c      	mov	ip, r3
10004f10:	680c      	ldr	r4, [r1, #0]
10004f12:	4484      	add	ip, r0
10004f14:	1b09      	subs	r1, r1, r4
10004f16:	1912      	adds	r2, r2, r4
10004f18:	688c      	ldr	r4, [r1, #8]
10004f1a:	4564      	cmp	r4, ip
10004f1c:	d04f      	beq.n	10004fbe <_free_r+0xea>
10004f1e:	68cb      	ldr	r3, [r1, #12]
10004f20:	60e3      	str	r3, [r4, #12]
10004f22:	609c      	str	r4, [r3, #8]
10004f24:	4643      	mov	r3, r8
10004f26:	18fc      	adds	r4, r7, r3
10004f28:	6864      	ldr	r4, [r4, #4]
10004f2a:	4234      	tst	r4, r6
10004f2c:	d111      	bne.n	10004f52 <_free_r+0x7e>
10004f2e:	68bb      	ldr	r3, [r7, #8]
10004f30:	4c55      	ldr	r4, [pc, #340]	; (10005088 <_free_r+0x1b4>)
10004f32:	4442      	add	r2, r8
10004f34:	42a3      	cmp	r3, r4
10004f36:	d100      	bne.n	10004f3a <_free_r+0x66>
10004f38:	e07e      	b.n	10005038 <_free_r+0x164>
10004f3a:	68fc      	ldr	r4, [r7, #12]
10004f3c:	60dc      	str	r4, [r3, #12]
10004f3e:	60a3      	str	r3, [r4, #8]
10004f40:	2301      	movs	r3, #1
10004f42:	4313      	orrs	r3, r2
10004f44:	604b      	str	r3, [r1, #4]
10004f46:	508a      	str	r2, [r1, r2]
10004f48:	e006      	b.n	10004f58 <_free_r+0x84>
10004f4a:	18fc      	adds	r4, r7, r3
10004f4c:	6864      	ldr	r4, [r4, #4]
10004f4e:	4234      	tst	r4, r6
10004f50:	d0ed      	beq.n	10004f2e <_free_r+0x5a>
10004f52:	4316      	orrs	r6, r2
10004f54:	604e      	str	r6, [r1, #4]
10004f56:	603a      	str	r2, [r7, #0]
10004f58:	2380      	movs	r3, #128	; 0x80
10004f5a:	009b      	lsls	r3, r3, #2
10004f5c:	429a      	cmp	r2, r3
10004f5e:	d213      	bcs.n	10004f88 <_free_r+0xb4>
10004f60:	0954      	lsrs	r4, r2, #5
10004f62:	08d3      	lsrs	r3, r2, #3
10004f64:	2201      	movs	r2, #1
10004f66:	40a2      	lsls	r2, r4
10004f68:	6844      	ldr	r4, [r0, #4]
10004f6a:	00db      	lsls	r3, r3, #3
10004f6c:	4322      	orrs	r2, r4
10004f6e:	6042      	str	r2, [r0, #4]
10004f70:	1818      	adds	r0, r3, r0
10004f72:	6883      	ldr	r3, [r0, #8]
10004f74:	60c8      	str	r0, [r1, #12]
10004f76:	608b      	str	r3, [r1, #8]
10004f78:	6081      	str	r1, [r0, #8]
10004f7a:	60d9      	str	r1, [r3, #12]
10004f7c:	0028      	movs	r0, r5
10004f7e:	f7ff ff19 	bl	10004db4 <__malloc_unlock>
10004f82:	bc80      	pop	{r7}
10004f84:	46b8      	mov	r8, r7
10004f86:	bdf0      	pop	{r4, r5, r6, r7, pc}
10004f88:	0a53      	lsrs	r3, r2, #9
10004f8a:	2b04      	cmp	r3, #4
10004f8c:	d83e      	bhi.n	1000500c <_free_r+0x138>
10004f8e:	0994      	lsrs	r4, r2, #6
10004f90:	0026      	movs	r6, r4
10004f92:	3439      	adds	r4, #57	; 0x39
10004f94:	3638      	adds	r6, #56	; 0x38
10004f96:	00e4      	lsls	r4, r4, #3
10004f98:	1904      	adds	r4, r0, r4
10004f9a:	6823      	ldr	r3, [r4, #0]
10004f9c:	3c08      	subs	r4, #8
10004f9e:	2703      	movs	r7, #3
10004fa0:	429c      	cmp	r4, r3
10004fa2:	d042      	beq.n	1000502a <_free_r+0x156>
10004fa4:	6858      	ldr	r0, [r3, #4]
10004fa6:	43b8      	bics	r0, r7
10004fa8:	4290      	cmp	r0, r2
10004faa:	d902      	bls.n	10004fb2 <_free_r+0xde>
10004fac:	689b      	ldr	r3, [r3, #8]
10004fae:	429c      	cmp	r4, r3
10004fb0:	d1f8      	bne.n	10004fa4 <_free_r+0xd0>
10004fb2:	68dc      	ldr	r4, [r3, #12]
10004fb4:	60cc      	str	r4, [r1, #12]
10004fb6:	608b      	str	r3, [r1, #8]
10004fb8:	60a1      	str	r1, [r4, #8]
10004fba:	60d9      	str	r1, [r3, #12]
10004fbc:	e7de      	b.n	10004f7c <_free_r+0xa8>
10004fbe:	4643      	mov	r3, r8
10004fc0:	18f8      	adds	r0, r7, r3
10004fc2:	6840      	ldr	r0, [r0, #4]
10004fc4:	4230      	tst	r0, r6
10004fc6:	d157      	bne.n	10005078 <_free_r+0x1a4>
10004fc8:	68fb      	ldr	r3, [r7, #12]
10004fca:	68b8      	ldr	r0, [r7, #8]
10004fcc:	4442      	add	r2, r8
10004fce:	4316      	orrs	r6, r2
10004fd0:	60c3      	str	r3, [r0, #12]
10004fd2:	6098      	str	r0, [r3, #8]
10004fd4:	604e      	str	r6, [r1, #4]
10004fd6:	508a      	str	r2, [r1, r2]
10004fd8:	e7d0      	b.n	10004f7c <_free_r+0xa8>
10004fda:	0013      	movs	r3, r2
10004fdc:	4443      	add	r3, r8
10004fde:	4226      	tst	r6, r4
10004fe0:	d106      	bne.n	10004ff0 <_free_r+0x11c>
10004fe2:	680a      	ldr	r2, [r1, #0]
10004fe4:	1a89      	subs	r1, r1, r2
10004fe6:	688c      	ldr	r4, [r1, #8]
10004fe8:	189b      	adds	r3, r3, r2
10004fea:	68ca      	ldr	r2, [r1, #12]
10004fec:	60e2      	str	r2, [r4, #12]
10004fee:	6094      	str	r4, [r2, #8]
10004ff0:	2201      	movs	r2, #1
10004ff2:	431a      	orrs	r2, r3
10004ff4:	604a      	str	r2, [r1, #4]
10004ff6:	4a25      	ldr	r2, [pc, #148]	; (1000508c <_free_r+0x1b8>)
10004ff8:	6081      	str	r1, [r0, #8]
10004ffa:	6812      	ldr	r2, [r2, #0]
10004ffc:	429a      	cmp	r2, r3
10004ffe:	d8bd      	bhi.n	10004f7c <_free_r+0xa8>
10005000:	4b23      	ldr	r3, [pc, #140]	; (10005090 <_free_r+0x1bc>)
10005002:	0028      	movs	r0, r5
10005004:	6819      	ldr	r1, [r3, #0]
10005006:	f7ff ff17 	bl	10004e38 <_malloc_trim_r>
1000500a:	e7b7      	b.n	10004f7c <_free_r+0xa8>
1000500c:	2b14      	cmp	r3, #20
1000500e:	d907      	bls.n	10005020 <_free_r+0x14c>
10005010:	2b54      	cmp	r3, #84	; 0x54
10005012:	d81a      	bhi.n	1000504a <_free_r+0x176>
10005014:	0b14      	lsrs	r4, r2, #12
10005016:	0026      	movs	r6, r4
10005018:	346f      	adds	r4, #111	; 0x6f
1000501a:	366e      	adds	r6, #110	; 0x6e
1000501c:	00e4      	lsls	r4, r4, #3
1000501e:	e7bb      	b.n	10004f98 <_free_r+0xc4>
10005020:	001e      	movs	r6, r3
10005022:	335c      	adds	r3, #92	; 0x5c
10005024:	365b      	adds	r6, #91	; 0x5b
10005026:	00dc      	lsls	r4, r3, #3
10005028:	e7b6      	b.n	10004f98 <_free_r+0xc4>
1000502a:	2201      	movs	r2, #1
1000502c:	10b6      	asrs	r6, r6, #2
1000502e:	40b2      	lsls	r2, r6
10005030:	6846      	ldr	r6, [r0, #4]
10005032:	4332      	orrs	r2, r6
10005034:	6042      	str	r2, [r0, #4]
10005036:	e7bd      	b.n	10004fb4 <_free_r+0xe0>
10005038:	60d9      	str	r1, [r3, #12]
1000503a:	6099      	str	r1, [r3, #8]
1000503c:	60cb      	str	r3, [r1, #12]
1000503e:	608b      	str	r3, [r1, #8]
10005040:	2301      	movs	r3, #1
10005042:	4313      	orrs	r3, r2
10005044:	604b      	str	r3, [r1, #4]
10005046:	508a      	str	r2, [r1, r2]
10005048:	e798      	b.n	10004f7c <_free_r+0xa8>
1000504a:	24aa      	movs	r4, #170	; 0xaa
1000504c:	0064      	lsls	r4, r4, #1
1000504e:	42a3      	cmp	r3, r4
10005050:	d805      	bhi.n	1000505e <_free_r+0x18a>
10005052:	0bd4      	lsrs	r4, r2, #15
10005054:	0026      	movs	r6, r4
10005056:	3478      	adds	r4, #120	; 0x78
10005058:	3677      	adds	r6, #119	; 0x77
1000505a:	00e4      	lsls	r4, r4, #3
1000505c:	e79c      	b.n	10004f98 <_free_r+0xc4>
1000505e:	4c0d      	ldr	r4, [pc, #52]	; (10005094 <_free_r+0x1c0>)
10005060:	42a3      	cmp	r3, r4
10005062:	d805      	bhi.n	10005070 <_free_r+0x19c>
10005064:	0c94      	lsrs	r4, r2, #18
10005066:	0026      	movs	r6, r4
10005068:	347d      	adds	r4, #125	; 0x7d
1000506a:	367c      	adds	r6, #124	; 0x7c
1000506c:	00e4      	lsls	r4, r4, #3
1000506e:	e793      	b.n	10004f98 <_free_r+0xc4>
10005070:	24fe      	movs	r4, #254	; 0xfe
10005072:	267e      	movs	r6, #126	; 0x7e
10005074:	00a4      	lsls	r4, r4, #2
10005076:	e78f      	b.n	10004f98 <_free_r+0xc4>
10005078:	0033      	movs	r3, r6
1000507a:	4313      	orrs	r3, r2
1000507c:	604b      	str	r3, [r1, #4]
1000507e:	603a      	str	r2, [r7, #0]
10005080:	e77c      	b.n	10004f7c <_free_r+0xa8>
10005082:	46c0      	nop			; (mov r8, r8)
10005084:	20001328 	.word	0x20001328
10005088:	20001330 	.word	0x20001330
1000508c:	20001324 	.word	0x20001324
10005090:	20001a74 	.word	0x20001a74
10005094:	00000554 	.word	0x00000554

10005098 <_fini>:
10005098:	b5f8      	push	{r3, r4, r5, r6, r7, lr}
1000509a:	46c0      	nop			; (mov r8, r8)
1000509c:	0000      	movs	r0, r0
	...

100050a0 <__flash_do_cmd_veneer>:
100050a0:	b401      	push	{r0}
100050a2:	4802      	ldr	r0, [pc, #8]	; (100050ac <__flash_do_cmd_veneer+0xc>)
100050a4:	4684      	mov	ip, r0
100050a6:	bc01      	pop	{r0}
100050a8:	4760      	bx	ip
100050aa:	bf00      	nop
100050ac:	200002d1 	.word	0x200002d1

100050b0 <__mutex_exit_veneer>:
100050b0:	b401      	push	{r0}
100050b2:	4802      	ldr	r0, [pc, #8]	; (100050bc <__mutex_exit_veneer+0xc>)
100050b4:	4684      	mov	ip, r0
100050b6:	bc01      	pop	{r0}
100050b8:	4760      	bx	ip
100050ba:	bf00      	nop
100050bc:	20000231 	.word	0x20000231

100050c0 <__e15_is_bulkin_ep_veneer>:
100050c0:	b401      	push	{r0}
100050c2:	4802      	ldr	r0, [pc, #8]	; (100050cc <__e15_is_bulkin_ep_veneer+0xc>)
100050c4:	4684      	mov	ip, r0
100050c6:	bc01      	pop	{r0}
100050c8:	4760      	bx	ip
100050ca:	bf00      	nop
100050cc:	200009d1 	.word	0x200009d1

100050d0 <__reset_non_control_endpoints_veneer>:
100050d0:	b401      	push	{r0}
100050d2:	4802      	ldr	r0, [pc, #8]	; (100050dc <__reset_non_control_endpoints_veneer+0xc>)
100050d4:	4684      	mov	ip, r0
100050d6:	bc01      	pop	{r0}
100050d8:	4760      	bx	ip
100050da:	bf00      	nop
100050dc:	20000395 	.word	0x20000395

100050e0 <____aeabi_idiv0_veneer>:
100050e0:	b401      	push	{r0}
100050e2:	4802      	ldr	r0, [pc, #8]	; (100050ec <____aeabi_idiv0_veneer+0xc>)
100050e4:	4684      	mov	ip, r0
100050e6:	bc01      	pop	{r0}
100050e8:	4760      	bx	ip
100050ea:	bf00      	nop
100050ec:	20000da1 	.word	0x20000da1

100050f0 <__e15_is_critical_frame_period_veneer>:
100050f0:	b401      	push	{r0}
100050f2:	4802      	ldr	r0, [pc, #8]	; (100050fc <__e15_is_critical_frame_period_veneer+0xc>)
100050f4:	4684      	mov	ip, r0
100050f6:	bc01      	pop	{r0}
100050f8:	4760      	bx	ip
100050fa:	bf00      	nop
100050fc:	200009f9 	.word	0x200009f9

10005100 <__mutex_try_enter_veneer>:
10005100:	b401      	push	{r0}
10005102:	4802      	ldr	r0, [pc, #8]	; (1000510c <__mutex_try_enter_veneer+0xc>)
10005104:	4684      	mov	ip, r0
10005106:	bc01      	pop	{r0}
10005108:	4760      	bx	ip
1000510a:	bf00      	nop
1000510c:	200000c1 	.word	0x200000c1

10005110 <__mutex_enter_timeout_ms_veneer>:
10005110:	b401      	push	{r0}
10005112:	4802      	ldr	r0, [pc, #8]	; (1000511c <__mutex_enter_timeout_ms_veneer+0xc>)
10005114:	4684      	mov	ip, r0
10005116:	bc01      	pop	{r0}
10005118:	4760      	bx	ip
1000511a:	bf00      	nop
1000511c:	200001a1 	.word	0x200001a1

10005120 <__mutex_try_enter_block_until_veneer>:
10005120:	b401      	push	{r0}
10005122:	4802      	ldr	r0, [pc, #8]	; (1000512c <__mutex_try_enter_block_until_veneer+0xc>)
10005124:	4684      	mov	ip, r0
10005126:	bc01      	pop	{r0}
10005128:	4760      	bx	ip
1000512a:	bf00      	nop
1000512c:	20000105 	.word	0x20000105

10005130 <__hw_endpoint_start_next_buffer_veneer>:
10005130:	b401      	push	{r0}
10005132:	4802      	ldr	r0, [pc, #8]	; (1000513c <__hw_endpoint_start_next_buffer_veneer+0xc>)
10005134:	4684      	mov	ip, r0
10005136:	bc01      	pop	{r0}
10005138:	4760      	bx	ip
1000513a:	bf00      	nop
1000513c:	20000b75 	.word	0x20000b75

10005140 <__hw_endpoint_reset_transfer_veneer>:
10005140:	b401      	push	{r0}
10005142:	4802      	ldr	r0, [pc, #8]	; (1000514c <__hw_endpoint_reset_transfer_veneer+0xc>)
10005144:	4684      	mov	ip, r0
10005146:	bc01      	pop	{r0}
10005148:	4760      	bx	ip
1000514a:	bf00      	nop
1000514c:	20000b11 	.word	0x20000b11

10005150 <___hw_endpoint_buffer_control_update32_veneer>:
10005150:	b401      	push	{r0}
10005152:	4802      	ldr	r0, [pc, #8]	; (1000515c <___hw_endpoint_buffer_control_update32_veneer+0xc>)
10005154:	4684      	mov	ip, r0
10005156:	bc01      	pop	{r0}
10005158:	4760      	bx	ip
1000515a:	bf00      	nop
1000515c:	20000b1d 	.word	0x20000b1d

Disassembly of section .data:

200000c0 <mutex_try_enter>:
200000c0:	0003      	movs	r3, r0
200000c2:	6800      	ldr	r0, [r0, #0]
200000c4:	f3ef 8c10 	mrs	ip, PRIMASK
200000c8:	b672      	cpsid	i
200000ca:	6802      	ldr	r2, [r0, #0]
200000cc:	2a00      	cmp	r2, #0
200000ce:	d0fc      	beq.n	200000ca <mutex_try_enter+0xa>
200000d0:	f3bf 8f5f 	dmb	sy
200000d4:	2204      	movs	r2, #4
200000d6:	569a      	ldrsb	r2, [r3, r2]
200000d8:	2a00      	cmp	r2, #0
200000da:	db0b      	blt.n	200000f4 <mutex_try_enter+0x34>
200000dc:	2900      	cmp	r1, #0
200000de:	d00f      	beq.n	20000100 <mutex_try_enter+0x40>
200000e0:	2000      	movs	r0, #0
200000e2:	600a      	str	r2, [r1, #0]
200000e4:	681b      	ldr	r3, [r3, #0]
200000e6:	f3bf 8f5f 	dmb	sy
200000ea:	2200      	movs	r2, #0
200000ec:	601a      	str	r2, [r3, #0]
200000ee:	f38c 8810 	msr	PRIMASK, ip
200000f2:	4770      	bx	lr
200000f4:	22d0      	movs	r2, #208	; 0xd0
200000f6:	0612      	lsls	r2, r2, #24
200000f8:	6812      	ldr	r2, [r2, #0]
200000fa:	2001      	movs	r0, #1
200000fc:	711a      	strb	r2, [r3, #4]
200000fe:	e7f1      	b.n	200000e4 <mutex_try_enter+0x24>
20000100:	2000      	movs	r0, #0
20000102:	e7ef      	b.n	200000e4 <mutex_try_enter+0x24>

20000104 <mutex_try_enter_block_until>:
20000104:	b5f0      	push	{r4, r5, r6, r7, lr}
20000106:	46c6      	mov	lr, r8
20000108:	0015      	movs	r5, r2
2000010a:	b500      	push	{lr}
2000010c:	0004      	movs	r4, r0
2000010e:	001e      	movs	r6, r3
20000110:	6802      	ldr	r2, [r0, #0]
20000112:	f3ef 8110 	mrs	r1, PRIMASK
20000116:	b672      	cpsid	i
20000118:	6813      	ldr	r3, [r2, #0]
2000011a:	2b00      	cmp	r3, #0
2000011c:	d0fc      	beq.n	20000118 <mutex_try_enter_block_until+0x14>
2000011e:	f3bf 8f5f 	dmb	sy
20000122:	2304      	movs	r3, #4
20000124:	56e3      	ldrsb	r3, [r4, r3]
20000126:	2b00      	cmp	r3, #0
20000128:	db2d      	blt.n	20000186 <mutex_try_enter_block_until+0x82>
2000012a:	6822      	ldr	r2, [r4, #0]
2000012c:	f3bf 8f5f 	dmb	sy
20000130:	2000      	movs	r0, #0
20000132:	6010      	str	r0, [r2, #0]
20000134:	f381 8810 	msr	PRIMASK, r1
20000138:	22d0      	movs	r2, #208	; 0xd0
2000013a:	0612      	lsls	r2, r2, #24
2000013c:	7812      	ldrb	r2, [r2, #0]
2000013e:	b252      	sxtb	r2, r2
20000140:	4690      	mov	r8, r2
20000142:	429a      	cmp	r2, r3
20000144:	d103      	bne.n	2000014e <mutex_try_enter_block_until+0x4a>
20000146:	2000      	movs	r0, #0
20000148:	bc80      	pop	{r7}
2000014a:	46b8      	mov	r8, r7
2000014c:	bdf0      	pop	{r4, r5, r6, r7, pc}
2000014e:	2700      	movs	r7, #0
20000150:	e00b      	b.n	2000016a <mutex_try_enter_block_until+0x66>
20000152:	6823      	ldr	r3, [r4, #0]
20000154:	f3bf 8f5f 	dmb	sy
20000158:	601f      	str	r7, [r3, #0]
2000015a:	f381 8810 	msr	PRIMASK, r1
2000015e:	0028      	movs	r0, r5
20000160:	0031      	movs	r1, r6
20000162:	f000 fe21 	bl	20000da8 <__best_effort_wfe_or_timeout_veneer>
20000166:	2800      	cmp	r0, #0
20000168:	d1ed      	bne.n	20000146 <mutex_try_enter_block_until+0x42>
2000016a:	6822      	ldr	r2, [r4, #0]
2000016c:	f3ef 8110 	mrs	r1, PRIMASK
20000170:	b672      	cpsid	i
20000172:	6813      	ldr	r3, [r2, #0]
20000174:	2b00      	cmp	r3, #0
20000176:	d0fc      	beq.n	20000172 <mutex_try_enter_block_until+0x6e>
20000178:	f3bf 8f5f 	dmb	sy
2000017c:	7923      	ldrb	r3, [r4, #4]
2000017e:	2b7f      	cmp	r3, #127	; 0x7f
20000180:	d9e7      	bls.n	20000152 <mutex_try_enter_block_until+0x4e>
20000182:	4643      	mov	r3, r8
20000184:	e002      	b.n	2000018c <mutex_try_enter_block_until+0x88>
20000186:	23d0      	movs	r3, #208	; 0xd0
20000188:	061b      	lsls	r3, r3, #24
2000018a:	681b      	ldr	r3, [r3, #0]
2000018c:	7123      	strb	r3, [r4, #4]
2000018e:	6823      	ldr	r3, [r4, #0]
20000190:	f3bf 8f5f 	dmb	sy
20000194:	2200      	movs	r2, #0
20000196:	601a      	str	r2, [r3, #0]
20000198:	f381 8810 	msr	PRIMASK, r1
2000019c:	2001      	movs	r0, #1
2000019e:	e7d3      	b.n	20000148 <mutex_try_enter_block_until+0x44>

200001a0 <mutex_enter_timeout_ms>:
200001a0:	b5f0      	push	{r4, r5, r6, r7, lr}
200001a2:	46c6      	mov	lr, r8
200001a4:	b500      	push	{lr}
200001a6:	000d      	movs	r5, r1
200001a8:	0004      	movs	r4, r0
200001aa:	f000 fe2d 	bl	20000e08 <__time_us_64_veneer>
200001ae:	22fa      	movs	r2, #250	; 0xfa
200001b0:	0006      	movs	r6, r0
200001b2:	000f      	movs	r7, r1
200001b4:	2300      	movs	r3, #0
200001b6:	0028      	movs	r0, r5
200001b8:	2100      	movs	r1, #0
200001ba:	0092      	lsls	r2, r2, #2
200001bc:	f000 fe0c 	bl	20000dd8 <____wrap___aeabi_lmul_veneer>
200001c0:	1836      	adds	r6, r6, r0
200001c2:	414f      	adcs	r7, r1
200001c4:	2f00      	cmp	r7, #0
200001c6:	db2c      	blt.n	20000222 <mutex_enter_timeout_ms+0x82>
200001c8:	23d0      	movs	r3, #208	; 0xd0
200001ca:	061b      	lsls	r3, r3, #24
200001cc:	681b      	ldr	r3, [r3, #0]
200001ce:	2500      	movs	r5, #0
200001d0:	4698      	mov	r8, r3
200001d2:	e00b      	b.n	200001ec <mutex_enter_timeout_ms+0x4c>
200001d4:	6823      	ldr	r3, [r4, #0]
200001d6:	f3bf 8f5f 	dmb	sy
200001da:	601d      	str	r5, [r3, #0]
200001dc:	f381 8810 	msr	PRIMASK, r1
200001e0:	0030      	movs	r0, r6
200001e2:	0039      	movs	r1, r7
200001e4:	f000 fde0 	bl	20000da8 <__best_effort_wfe_or_timeout_veneer>
200001e8:	2800      	cmp	r0, #0
200001ea:	d118      	bne.n	2000021e <mutex_enter_timeout_ms+0x7e>
200001ec:	6822      	ldr	r2, [r4, #0]
200001ee:	f3ef 8110 	mrs	r1, PRIMASK
200001f2:	b672      	cpsid	i
200001f4:	6813      	ldr	r3, [r2, #0]
200001f6:	2b00      	cmp	r3, #0
200001f8:	d0fc      	beq.n	200001f4 <mutex_enter_timeout_ms+0x54>
200001fa:	f3bf 8f5f 	dmb	sy
200001fe:	7923      	ldrb	r3, [r4, #4]
20000200:	2b7f      	cmp	r3, #127	; 0x7f
20000202:	d9e7      	bls.n	200001d4 <mutex_enter_timeout_ms+0x34>
20000204:	4643      	mov	r3, r8
20000206:	7123      	strb	r3, [r4, #4]
20000208:	6823      	ldr	r3, [r4, #0]
2000020a:	f3bf 8f5f 	dmb	sy
2000020e:	2200      	movs	r2, #0
20000210:	601a      	str	r2, [r3, #0]
20000212:	f381 8810 	msr	PRIMASK, r1
20000216:	2001      	movs	r0, #1
20000218:	bc80      	pop	{r7}
2000021a:	46b8      	mov	r8, r7
2000021c:	bdf0      	pop	{r4, r5, r6, r7, pc}
2000021e:	2000      	movs	r0, #0
20000220:	e7fa      	b.n	20000218 <mutex_enter_timeout_ms+0x78>
20000222:	2601      	movs	r6, #1
20000224:	4f01      	ldr	r7, [pc, #4]	; (2000022c <mutex_enter_timeout_ms+0x8c>)
20000226:	4276      	negs	r6, r6
20000228:	e7ce      	b.n	200001c8 <mutex_enter_timeout_ms+0x28>
2000022a:	46c0      	nop			; (mov r8, r8)
2000022c:	7fffffff 	.word	0x7fffffff

20000230 <mutex_exit>:
20000230:	6802      	ldr	r2, [r0, #0]
20000232:	f3ef 8110 	mrs	r1, PRIMASK
20000236:	b672      	cpsid	i
20000238:	6813      	ldr	r3, [r2, #0]
2000023a:	2b00      	cmp	r3, #0
2000023c:	d0fc      	beq.n	20000238 <mutex_exit+0x8>
2000023e:	f3bf 8f5f 	dmb	sy
20000242:	23ff      	movs	r3, #255	; 0xff
20000244:	7103      	strb	r3, [r0, #4]
20000246:	6803      	ldr	r3, [r0, #0]
20000248:	f3bf 8f5f 	dmb	sy
2000024c:	2200      	movs	r2, #0
2000024e:	601a      	str	r2, [r3, #0]
20000250:	f381 8810 	msr	PRIMASK, r1
20000254:	bf40      	sev
20000256:	4770      	bx	lr

20000258 <flash_init_boot2_copyout>:
20000258:	4808      	ldr	r0, [pc, #32]	; (2000027c <flash_init_boot2_copyout+0x24>)
2000025a:	b510      	push	{r4, lr}
2000025c:	7803      	ldrb	r3, [r0, #0]
2000025e:	2b00      	cmp	r3, #0
20000260:	d10a      	bne.n	20000278 <flash_init_boot2_copyout+0x20>
20000262:	2380      	movs	r3, #128	; 0x80
20000264:	4906      	ldr	r1, [pc, #24]	; (20000280 <flash_init_boot2_copyout+0x28>)
20000266:	4a07      	ldr	r2, [pc, #28]	; (20000284 <flash_init_boot2_copyout+0x2c>)
20000268:	055b      	lsls	r3, r3, #21
2000026a:	681c      	ldr	r4, [r3, #0]
2000026c:	50cc      	str	r4, [r1, r3]
2000026e:	3304      	adds	r3, #4
20000270:	4293      	cmp	r3, r2
20000272:	d1fa      	bne.n	2000026a <flash_init_boot2_copyout+0x12>
20000274:	2301      	movs	r3, #1
20000276:	7003      	strb	r3, [r0, #0]
20000278:	bd10      	pop	{r4, pc}
2000027a:	46c0      	nop			; (mov r8, r8)
2000027c:	20002513 	.word	0x20002513
20000280:	10001f08 	.word	0x10001f08
20000284:	10000100 	.word	0x10000100

20000288 <flash_enable_xip_via_boot2>:
20000288:	b510      	push	{r4, lr}
2000028a:	4b02      	ldr	r3, [pc, #8]	; (20000294 <flash_enable_xip_via_boot2+0xc>)
2000028c:	3301      	adds	r3, #1
2000028e:	4798      	blx	r3
20000290:	bd10      	pop	{r4, pc}
20000292:	46c0      	nop			; (mov r8, r8)
20000294:	20001f08 	.word	0x20001f08

20000298 <flash_cs_force.constprop.0>:
20000298:	4b03      	ldr	r3, [pc, #12]	; (200002a8 <flash_cs_force.constprop.0+0x10>)
2000029a:	681a      	ldr	r2, [r3, #0]
2000029c:	23c0      	movs	r3, #192	; 0xc0
2000029e:	009b      	lsls	r3, r3, #2
200002a0:	4393      	bics	r3, r2
200002a2:	4a02      	ldr	r2, [pc, #8]	; (200002ac <flash_cs_force.constprop.0+0x14>)
200002a4:	6013      	str	r3, [r2, #0]
200002a6:	4770      	bx	lr
200002a8:	4001800c 	.word	0x4001800c
200002ac:	4001900c 	.word	0x4001900c

200002b0 <flash_cs_force.constprop.1>:
200002b0:	4b05      	ldr	r3, [pc, #20]	; (200002c8 <flash_cs_force.constprop.1+0x18>)
200002b2:	681a      	ldr	r2, [r3, #0]
200002b4:	2380      	movs	r3, #128	; 0x80
200002b6:	009b      	lsls	r3, r3, #2
200002b8:	4053      	eors	r3, r2
200002ba:	22c0      	movs	r2, #192	; 0xc0
200002bc:	0092      	lsls	r2, r2, #2
200002be:	4013      	ands	r3, r2
200002c0:	4a02      	ldr	r2, [pc, #8]	; (200002cc <flash_cs_force.constprop.1+0x1c>)
200002c2:	6013      	str	r3, [r2, #0]
200002c4:	4770      	bx	lr
200002c6:	46c0      	nop			; (mov r8, r8)
200002c8:	4001800c 	.word	0x4001800c
200002cc:	4001900c 	.word	0x4001900c

200002d0 <flash_do_cmd>:
200002d0:	2314      	movs	r3, #20
200002d2:	b5f0      	push	{r4, r5, r6, r7, lr}
200002d4:	46d6      	mov	lr, sl
200002d6:	464f      	mov	r7, r9
200002d8:	4646      	mov	r6, r8
200002da:	469a      	mov	sl, r3
200002dc:	4681      	mov	r9, r0
200002de:	8818      	ldrh	r0, [r3, #0]
200002e0:	3304      	adds	r3, #4
200002e2:	b5c0      	push	{r6, r7, lr}
200002e4:	4698      	mov	r8, r3
200002e6:	000e      	movs	r6, r1
200002e8:	881b      	ldrh	r3, [r3, #0]
200002ea:	4927      	ldr	r1, [pc, #156]	; (20000388 <flash_do_cmd+0xb8>)
200002ec:	0014      	movs	r4, r2
200002ee:	4798      	blx	r3
200002f0:	4653      	mov	r3, sl
200002f2:	0007      	movs	r7, r0
200002f4:	8818      	ldrh	r0, [r3, #0]
200002f6:	4643      	mov	r3, r8
200002f8:	4924      	ldr	r1, [pc, #144]	; (2000038c <flash_do_cmd+0xbc>)
200002fa:	881b      	ldrh	r3, [r3, #0]
200002fc:	4798      	blx	r3
200002fe:	4653      	mov	r3, sl
20000300:	0005      	movs	r5, r0
20000302:	8818      	ldrh	r0, [r3, #0]
20000304:	4643      	mov	r3, r8
20000306:	4922      	ldr	r1, [pc, #136]	; (20000390 <flash_do_cmd+0xc0>)
20000308:	881b      	ldrh	r3, [r3, #0]
2000030a:	4798      	blx	r3
2000030c:	4680      	mov	r8, r0
2000030e:	f7ff ffa3 	bl	20000258 <flash_init_boot2_copyout>
20000312:	47b8      	blx	r7
20000314:	47a8      	blx	r5
20000316:	f7ff ffcb 	bl	200002b0 <flash_cs_force.constprop.1>
2000031a:	2c00      	cmp	r4, #0
2000031c:	d01b      	beq.n	20000356 <flash_do_cmd+0x86>
2000031e:	21c0      	movs	r1, #192	; 0xc0
20000320:	0022      	movs	r2, r4
20000322:	2708      	movs	r7, #8
20000324:	2002      	movs	r0, #2
20000326:	0549      	lsls	r1, r1, #21
20000328:	003d      	movs	r5, r7
2000032a:	6a8b      	ldr	r3, [r1, #40]	; 0x28
2000032c:	401d      	ands	r5, r3
2000032e:	4218      	tst	r0, r3
20000330:	d00b      	beq.n	2000034a <flash_do_cmd+0x7a>
20000332:	2c00      	cmp	r4, #0
20000334:	d009      	beq.n	2000034a <flash_do_cmd+0x7a>
20000336:	1b13      	subs	r3, r2, r4
20000338:	2b0d      	cmp	r3, #13
2000033a:	d81f      	bhi.n	2000037c <flash_do_cmd+0xac>
2000033c:	464b      	mov	r3, r9
2000033e:	781b      	ldrb	r3, [r3, #0]
20000340:	3c01      	subs	r4, #1
20000342:	660b      	str	r3, [r1, #96]	; 0x60
20000344:	2301      	movs	r3, #1
20000346:	469c      	mov	ip, r3
20000348:	44e1      	add	r9, ip
2000034a:	0023      	movs	r3, r4
2000034c:	2d00      	cmp	r5, #0
2000034e:	d10c      	bne.n	2000036a <flash_do_cmd+0x9a>
20000350:	4313      	orrs	r3, r2
20000352:	2b00      	cmp	r3, #0
20000354:	d1e8      	bne.n	20000328 <flash_do_cmd+0x58>
20000356:	f7ff ff9f 	bl	20000298 <flash_cs_force.constprop.0>
2000035a:	47c0      	blx	r8
2000035c:	f7ff ff94 	bl	20000288 <flash_enable_xip_via_boot2>
20000360:	bce0      	pop	{r5, r6, r7}
20000362:	46ba      	mov	sl, r7
20000364:	46b1      	mov	r9, r6
20000366:	46a8      	mov	r8, r5
20000368:	bdf0      	pop	{r4, r5, r6, r7, pc}
2000036a:	2a00      	cmp	r2, #0
2000036c:	d0f1      	beq.n	20000352 <flash_do_cmd+0x82>
2000036e:	6e0b      	ldr	r3, [r1, #96]	; 0x60
20000370:	3a01      	subs	r2, #1
20000372:	7033      	strb	r3, [r6, #0]
20000374:	0013      	movs	r3, r2
20000376:	3601      	adds	r6, #1
20000378:	4323      	orrs	r3, r4
2000037a:	e7ea      	b.n	20000352 <flash_do_cmd+0x82>
2000037c:	2d00      	cmp	r5, #0
2000037e:	d0d3      	beq.n	20000328 <flash_do_cmd+0x58>
20000380:	2a00      	cmp	r2, #0
20000382:	d0d1      	beq.n	20000328 <flash_do_cmd+0x58>
20000384:	e7f3      	b.n	2000036e <flash_do_cmd+0x9e>
20000386:	46c0      	nop			; (mov r8, r8)
20000388:	00004649 	.word	0x00004649
2000038c:	00005845 	.word	0x00005845
20000390:	00004346 	.word	0x00004346

20000394 <reset_non_control_endpoints>:
20000394:	2300      	movs	r3, #0
20000396:	4a1c      	ldr	r2, [pc, #112]	; (20000408 <reset_non_control_endpoints+0x74>)
20000398:	b510      	push	{r4, lr}
2000039a:	6093      	str	r3, [r2, #8]
2000039c:	60d3      	str	r3, [r2, #12]
2000039e:	4a1b      	ldr	r2, [pc, #108]	; (2000040c <reset_non_control_endpoints+0x78>)
200003a0:	2100      	movs	r1, #0
200003a2:	6093      	str	r3, [r2, #8]
200003a4:	60d3      	str	r3, [r2, #12]
200003a6:	4a1a      	ldr	r2, [pc, #104]	; (20000410 <reset_non_control_endpoints+0x7c>)
200003a8:	481a      	ldr	r0, [pc, #104]	; (20000414 <reset_non_control_endpoints+0x80>)
200003aa:	6093      	str	r3, [r2, #8]
200003ac:	60d3      	str	r3, [r2, #12]
200003ae:	4a1a      	ldr	r2, [pc, #104]	; (20000418 <reset_non_control_endpoints+0x84>)
200003b0:	6093      	str	r3, [r2, #8]
200003b2:	60d3      	str	r3, [r2, #12]
200003b4:	4a19      	ldr	r2, [pc, #100]	; (2000041c <reset_non_control_endpoints+0x88>)
200003b6:	6093      	str	r3, [r2, #8]
200003b8:	60d3      	str	r3, [r2, #12]
200003ba:	4a19      	ldr	r2, [pc, #100]	; (20000420 <reset_non_control_endpoints+0x8c>)
200003bc:	6093      	str	r3, [r2, #8]
200003be:	60d3      	str	r3, [r2, #12]
200003c0:	4a18      	ldr	r2, [pc, #96]	; (20000424 <reset_non_control_endpoints+0x90>)
200003c2:	6093      	str	r3, [r2, #8]
200003c4:	60d3      	str	r3, [r2, #12]
200003c6:	4a18      	ldr	r2, [pc, #96]	; (20000428 <reset_non_control_endpoints+0x94>)
200003c8:	6093      	str	r3, [r2, #8]
200003ca:	60d3      	str	r3, [r2, #12]
200003cc:	4a17      	ldr	r2, [pc, #92]	; (2000042c <reset_non_control_endpoints+0x98>)
200003ce:	6093      	str	r3, [r2, #8]
200003d0:	60d3      	str	r3, [r2, #12]
200003d2:	4a17      	ldr	r2, [pc, #92]	; (20000430 <reset_non_control_endpoints+0x9c>)
200003d4:	6093      	str	r3, [r2, #8]
200003d6:	60d3      	str	r3, [r2, #12]
200003d8:	4a16      	ldr	r2, [pc, #88]	; (20000434 <reset_non_control_endpoints+0xa0>)
200003da:	6093      	str	r3, [r2, #8]
200003dc:	60d3      	str	r3, [r2, #12]
200003de:	4a16      	ldr	r2, [pc, #88]	; (20000438 <reset_non_control_endpoints+0xa4>)
200003e0:	6093      	str	r3, [r2, #8]
200003e2:	60d3      	str	r3, [r2, #12]
200003e4:	4a15      	ldr	r2, [pc, #84]	; (2000043c <reset_non_control_endpoints+0xa8>)
200003e6:	6093      	str	r3, [r2, #8]
200003e8:	60d3      	str	r3, [r2, #12]
200003ea:	4a15      	ldr	r2, [pc, #84]	; (20000440 <reset_non_control_endpoints+0xac>)
200003ec:	6093      	str	r3, [r2, #8]
200003ee:	60d3      	str	r3, [r2, #12]
200003f0:	4a14      	ldr	r2, [pc, #80]	; (20000444 <reset_non_control_endpoints+0xb0>)
200003f2:	6093      	str	r3, [r2, #8]
200003f4:	60d3      	str	r3, [r2, #12]
200003f6:	22f0      	movs	r2, #240	; 0xf0
200003f8:	0092      	lsls	r2, r2, #2
200003fa:	f000 fcf5 	bl	20000de8 <____wrap_memset_veneer>
200003fe:	4b12      	ldr	r3, [pc, #72]	; (20000448 <reset_non_control_endpoints+0xb4>)
20000400:	4a12      	ldr	r2, [pc, #72]	; (2000044c <reset_non_control_endpoints+0xb8>)
20000402:	601a      	str	r2, [r3, #0]
20000404:	bd10      	pop	{r4, pc}
20000406:	46c0      	nop			; (mov r8, r8)
20000408:	50100000 	.word	0x50100000
2000040c:	50100008 	.word	0x50100008
20000410:	50100010 	.word	0x50100010
20000414:	200020f4 	.word	0x200020f4
20000418:	50100018 	.word	0x50100018
2000041c:	50100020 	.word	0x50100020
20000420:	50100028 	.word	0x50100028
20000424:	50100030 	.word	0x50100030
20000428:	50100038 	.word	0x50100038
2000042c:	50100040 	.word	0x50100040
20000430:	50100048 	.word	0x50100048
20000434:	50100050 	.word	0x50100050
20000438:	50100058 	.word	0x50100058
2000043c:	50100060 	.word	0x50100060
20000440:	50100068 	.word	0x50100068
20000444:	50100070 	.word	0x50100070
20000448:	200024bc 	.word	0x200024bc
2000044c:	50100180 	.word	0x50100180

20000450 <hw_handle_buff_status>:
20000450:	b5f0      	push	{r4, r5, r6, r7, lr}
20000452:	4657      	mov	r7, sl
20000454:	46de      	mov	lr, fp
20000456:	464e      	mov	r6, r9
20000458:	4645      	mov	r5, r8
2000045a:	b5e0      	push	{r5, r6, r7, lr}
2000045c:	4b23      	ldr	r3, [pc, #140]	; (200004ec <hw_handle_buff_status+0x9c>)
2000045e:	b087      	sub	sp, #28
20000460:	6d9f      	ldr	r7, [r3, #88]	; 0x58
20000462:	2f00      	cmp	r7, #0
20000464:	d023      	beq.n	200004ae <hw_handle_buff_status+0x5e>
20000466:	4b22      	ldr	r3, [pc, #136]	; (200004f0 <hw_handle_buff_status+0xa0>)
20000468:	2400      	movs	r4, #0
2000046a:	4699      	mov	r9, r3
2000046c:	2301      	movs	r3, #1
2000046e:	4698      	mov	r8, r3
20000470:	4b20      	ldr	r3, [pc, #128]	; (200004f4 <hw_handle_buff_status+0xa4>)
20000472:	2601      	movs	r6, #1
20000474:	469a      	mov	sl, r3
20000476:	e004      	b.n	20000482 <hw_handle_buff_status+0x32>
20000478:	3401      	adds	r4, #1
2000047a:	0076      	lsls	r6, r6, #1
2000047c:	b2e4      	uxtb	r4, r4
2000047e:	2c20      	cmp	r4, #32
20000480:	d015      	beq.n	200004ae <hw_handle_buff_status+0x5e>
20000482:	423e      	tst	r6, r7
20000484:	d0f8      	beq.n	20000478 <hw_handle_buff_status+0x28>
20000486:	464b      	mov	r3, r9
20000488:	659e      	str	r6, [r3, #88]	; 0x58
2000048a:	4643      	mov	r3, r8
2000048c:	0865      	lsrs	r5, r4, #1
2000048e:	006d      	lsls	r5, r5, #1
20000490:	43a3      	bics	r3, r4
20000492:	18ed      	adds	r5, r5, r3
20000494:	016d      	lsls	r5, r5, #5
20000496:	4455      	add	r5, sl
20000498:	0028      	movs	r0, r5
2000049a:	f000 fba1 	bl	20000be0 <hw_endpoint_xfer_continue>
2000049e:	2800      	cmp	r0, #0
200004a0:	d10c      	bne.n	200004bc <hw_handle_buff_status+0x6c>
200004a2:	3401      	adds	r4, #1
200004a4:	43b7      	bics	r7, r6
200004a6:	b2e4      	uxtb	r4, r4
200004a8:	0076      	lsls	r6, r6, #1
200004aa:	2f00      	cmp	r7, #0
200004ac:	d1e7      	bne.n	2000047e <hw_handle_buff_status+0x2e>
200004ae:	b007      	add	sp, #28
200004b0:	bcf0      	pop	{r4, r5, r6, r7}
200004b2:	46bb      	mov	fp, r7
200004b4:	46b2      	mov	sl, r6
200004b6:	46a9      	mov	r9, r5
200004b8:	46a0      	mov	r8, r4
200004ba:	bdf0      	pop	{r4, r5, r6, r7, pc}
200004bc:	78ab      	ldrb	r3, [r5, #2]
200004be:	2208      	movs	r2, #8
200004c0:	469b      	mov	fp, r3
200004c2:	8aeb      	ldrh	r3, [r5, #22]
200004c4:	2100      	movs	r1, #0
200004c6:	a803      	add	r0, sp, #12
200004c8:	9301      	str	r3, [sp, #4]
200004ca:	f000 fc8d 	bl	20000de8 <____wrap_memset_veneer>
200004ce:	2307      	movs	r3, #7
200004d0:	4659      	mov	r1, fp
200004d2:	aa02      	add	r2, sp, #8
200004d4:	7153      	strb	r3, [r2, #5]
200004d6:	9b01      	ldr	r3, [sp, #4]
200004d8:	7211      	strb	r1, [r2, #8]
200004da:	a803      	add	r0, sp, #12
200004dc:	2101      	movs	r1, #1
200004de:	9305      	str	r3, [sp, #20]
200004e0:	f000 fba6 	bl	20000c30 <dcd_event_handler>
200004e4:	0028      	movs	r0, r5
200004e6:	f000 fb13 	bl	20000b10 <hw_endpoint_reset_transfer>
200004ea:	e7da      	b.n	200004a2 <hw_handle_buff_status+0x52>
200004ec:	50110000 	.word	0x50110000
200004f0:	50113000 	.word	0x50113000
200004f4:	200020b4 	.word	0x200020b4

200004f8 <dcd_rp2040_irq>:
200004f8:	2398      	movs	r3, #152	; 0x98
200004fa:	4ad1      	ldr	r2, [pc, #836]	; (20000840 <dcd_rp2040_irq+0x348>)
200004fc:	b570      	push	{r4, r5, r6, lr}
200004fe:	58d5      	ldr	r5, [r2, r3]
20000500:	2380      	movs	r3, #128	; 0x80
20000502:	002c      	movs	r4, r5
20000504:	029b      	lsls	r3, r3, #10
20000506:	2610      	movs	r6, #16
20000508:	b084      	sub	sp, #16
2000050a:	401c      	ands	r4, r3
2000050c:	421d      	tst	r5, r3
2000050e:	d078      	beq.n	20000602 <dcd_rp2040_irq+0x10a>
20000510:	4bcc      	ldr	r3, [pc, #816]	; (20000844 <dcd_rp2040_irq+0x34c>)
20000512:	4ccd      	ldr	r4, [pc, #820]	; (20000848 <dcd_rp2040_irq+0x350>)
20000514:	6a9a      	ldr	r2, [r3, #40]	; 0x28
20000516:	4bcd      	ldr	r3, [pc, #820]	; (2000084c <dcd_rp2040_irq+0x354>)
20000518:	2600      	movs	r6, #0
2000051a:	601a      	str	r2, [r3, #0]
2000051c:	233b      	movs	r3, #59	; 0x3b
2000051e:	5ce3      	ldrb	r3, [r4, r3]
20000520:	2b02      	cmp	r3, #2
20000522:	d100      	bne.n	20000526 <dcd_rp2040_irq+0x2e>
20000524:	e0d7      	b.n	200006d6 <dcd_rp2040_irq+0x1de>
20000526:	237b      	movs	r3, #123	; 0x7b
20000528:	5ce3      	ldrb	r3, [r4, r3]
2000052a:	2b02      	cmp	r3, #2
2000052c:	d100      	bne.n	20000530 <dcd_rp2040_irq+0x38>
2000052e:	e21a      	b.n	20000966 <dcd_rp2040_irq+0x46e>
20000530:	23bb      	movs	r3, #187	; 0xbb
20000532:	5ce3      	ldrb	r3, [r4, r3]
20000534:	2b02      	cmp	r3, #2
20000536:	d100      	bne.n	2000053a <dcd_rp2040_irq+0x42>
20000538:	e203      	b.n	20000942 <dcd_rp2040_irq+0x44a>
2000053a:	23fb      	movs	r3, #251	; 0xfb
2000053c:	5ce3      	ldrb	r3, [r4, r3]
2000053e:	2b02      	cmp	r3, #2
20000540:	d100      	bne.n	20000544 <dcd_rp2040_irq+0x4c>
20000542:	e1ec      	b.n	2000091e <dcd_rp2040_irq+0x426>
20000544:	233c      	movs	r3, #60	; 0x3c
20000546:	33ff      	adds	r3, #255	; 0xff
20000548:	5ce3      	ldrb	r3, [r4, r3]
2000054a:	2b02      	cmp	r3, #2
2000054c:	d100      	bne.n	20000550 <dcd_rp2040_irq+0x58>
2000054e:	e1d1      	b.n	200008f4 <dcd_rp2040_irq+0x3fc>
20000550:	237c      	movs	r3, #124	; 0x7c
20000552:	33ff      	adds	r3, #255	; 0xff
20000554:	5ce3      	ldrb	r3, [r4, r3]
20000556:	2b02      	cmp	r3, #2
20000558:	d100      	bne.n	2000055c <dcd_rp2040_irq+0x64>
2000055a:	e1b6      	b.n	200008ca <dcd_rp2040_irq+0x3d2>
2000055c:	23bc      	movs	r3, #188	; 0xbc
2000055e:	33ff      	adds	r3, #255	; 0xff
20000560:	5ce3      	ldrb	r3, [r4, r3]
20000562:	2b02      	cmp	r3, #2
20000564:	d100      	bne.n	20000568 <dcd_rp2040_irq+0x70>
20000566:	e19b      	b.n	200008a0 <dcd_rp2040_irq+0x3a8>
20000568:	23fc      	movs	r3, #252	; 0xfc
2000056a:	33ff      	adds	r3, #255	; 0xff
2000056c:	5ce3      	ldrb	r3, [r4, r3]
2000056e:	2b02      	cmp	r3, #2
20000570:	d100      	bne.n	20000574 <dcd_rp2040_irq+0x7c>
20000572:	e14f      	b.n	20000814 <dcd_rp2040_irq+0x31c>
20000574:	4bb6      	ldr	r3, [pc, #728]	; (20000850 <dcd_rp2040_irq+0x358>)
20000576:	5ce3      	ldrb	r3, [r4, r3]
20000578:	2b02      	cmp	r3, #2
2000057a:	d100      	bne.n	2000057e <dcd_rp2040_irq+0x86>
2000057c:	e136      	b.n	200007ec <dcd_rp2040_irq+0x2f4>
2000057e:	4bb5      	ldr	r3, [pc, #724]	; (20000854 <dcd_rp2040_irq+0x35c>)
20000580:	5ce3      	ldrb	r3, [r4, r3]
20000582:	2b02      	cmp	r3, #2
20000584:	d100      	bne.n	20000588 <dcd_rp2040_irq+0x90>
20000586:	e11d      	b.n	200007c4 <dcd_rp2040_irq+0x2cc>
20000588:	4bb3      	ldr	r3, [pc, #716]	; (20000858 <dcd_rp2040_irq+0x360>)
2000058a:	5ce3      	ldrb	r3, [r4, r3]
2000058c:	2b02      	cmp	r3, #2
2000058e:	d100      	bne.n	20000592 <dcd_rp2040_irq+0x9a>
20000590:	e104      	b.n	2000079c <dcd_rp2040_irq+0x2a4>
20000592:	4bb2      	ldr	r3, [pc, #712]	; (2000085c <dcd_rp2040_irq+0x364>)
20000594:	5ce3      	ldrb	r3, [r4, r3]
20000596:	2b02      	cmp	r3, #2
20000598:	d100      	bne.n	2000059c <dcd_rp2040_irq+0xa4>
2000059a:	e0eb      	b.n	20000774 <dcd_rp2040_irq+0x27c>
2000059c:	4bb0      	ldr	r3, [pc, #704]	; (20000860 <dcd_rp2040_irq+0x368>)
2000059e:	5ce3      	ldrb	r3, [r4, r3]
200005a0:	2b02      	cmp	r3, #2
200005a2:	d100      	bne.n	200005a6 <dcd_rp2040_irq+0xae>
200005a4:	e0d2      	b.n	2000074c <dcd_rp2040_irq+0x254>
200005a6:	4baf      	ldr	r3, [pc, #700]	; (20000864 <dcd_rp2040_irq+0x36c>)
200005a8:	5ce3      	ldrb	r3, [r4, r3]
200005aa:	2b02      	cmp	r3, #2
200005ac:	d100      	bne.n	200005b0 <dcd_rp2040_irq+0xb8>
200005ae:	e0b9      	b.n	20000724 <dcd_rp2040_irq+0x22c>
200005b0:	4bad      	ldr	r3, [pc, #692]	; (20000868 <dcd_rp2040_irq+0x370>)
200005b2:	5ce3      	ldrb	r3, [r4, r3]
200005b4:	2b02      	cmp	r3, #2
200005b6:	d100      	bne.n	200005ba <dcd_rp2040_irq+0xc2>
200005b8:	e09e      	b.n	200006f8 <dcd_rp2040_irq+0x200>
200005ba:	4bac      	ldr	r3, [pc, #688]	; (2000086c <dcd_rp2040_irq+0x374>)
200005bc:	5ce3      	ldrb	r3, [r4, r3]
200005be:	2b02      	cmp	r3, #2
200005c0:	d100      	bne.n	200005c4 <dcd_rp2040_irq+0xcc>
200005c2:	e1e2      	b.n	2000098a <dcd_rp2040_irq+0x492>
200005c4:	2e00      	cmp	r6, #0
200005c6:	d108      	bne.n	200005da <dcd_rp2040_irq+0xe2>
200005c8:	4ba9      	ldr	r3, [pc, #676]	; (20000870 <dcd_rp2040_irq+0x378>)
200005ca:	781b      	ldrb	r3, [r3, #0]
200005cc:	2b00      	cmp	r3, #0
200005ce:	d104      	bne.n	200005da <dcd_rp2040_irq+0xe2>
200005d0:	2180      	movs	r1, #128	; 0x80
200005d2:	4aa8      	ldr	r2, [pc, #672]	; (20000874 <dcd_rp2040_irq+0x37c>)
200005d4:	3390      	adds	r3, #144	; 0x90
200005d6:	0289      	lsls	r1, r1, #10
200005d8:	50d1      	str	r1, [r2, r3]
200005da:	ae01      	add	r6, sp, #4
200005dc:	4b98      	ldr	r3, [pc, #608]	; (20000840 <dcd_rp2040_irq+0x348>)
200005de:	220c      	movs	r2, #12
200005e0:	2100      	movs	r1, #0
200005e2:	0030      	movs	r0, r6
200005e4:	6c9c      	ldr	r4, [r3, #72]	; 0x48
200005e6:	f000 fbff 	bl	20000de8 <____wrap_memset_veneer>
200005ea:	2303      	movs	r3, #3
200005ec:	0564      	lsls	r4, r4, #21
200005ee:	0d64      	lsrs	r4, r4, #21
200005f0:	7073      	strb	r3, [r6, #1]
200005f2:	0030      	movs	r0, r6
200005f4:	9402      	str	r4, [sp, #8]
200005f6:	2101      	movs	r1, #1
200005f8:	2480      	movs	r4, #128	; 0x80
200005fa:	f000 fb19 	bl	20000c30 <dcd_event_handler>
200005fe:	4e9e      	ldr	r6, [pc, #632]	; (20000878 <dcd_rp2040_irq+0x380>)
20000600:	02a4      	lsls	r4, r4, #10
20000602:	06eb      	lsls	r3, r5, #27
20000604:	d463      	bmi.n	200006ce <dcd_rp2040_irq+0x1d6>
20000606:	2380      	movs	r3, #128	; 0x80
20000608:	025b      	lsls	r3, r3, #9
2000060a:	421d      	tst	r5, r3
2000060c:	d014      	beq.n	20000638 <dcd_rp2040_irq+0x140>
2000060e:	2201      	movs	r2, #1
20000610:	2123      	movs	r1, #35	; 0x23
20000612:	431c      	orrs	r4, r3
20000614:	4b8c      	ldr	r3, [pc, #560]	; (20000848 <dcd_rp2040_irq+0x350>)
20000616:	545a      	strb	r2, [r3, r1]
20000618:	70da      	strb	r2, [r3, #3]
2000061a:	23c0      	movs	r3, #192	; 0xc0
2000061c:	4a97      	ldr	r2, [pc, #604]	; (2000087c <dcd_rp2040_irq+0x384>)
2000061e:	00db      	lsls	r3, r3, #3
20000620:	9301      	str	r3, [sp, #4]
20000622:	ab02      	add	r3, sp, #8
20000624:	ca03      	ldmia	r2!, {r0, r1}
20000626:	c303      	stmia	r3!, {r0, r1}
20000628:	2101      	movs	r1, #1
2000062a:	a801      	add	r0, sp, #4
2000062c:	f000 fb00 	bl	20000c30 <dcd_event_handler>
20000630:	2280      	movs	r2, #128	; 0x80
20000632:	4b90      	ldr	r3, [pc, #576]	; (20000874 <dcd_rp2040_irq+0x37c>)
20000634:	0292      	lsls	r2, r2, #10
20000636:	651a      	str	r2, [r3, #80]	; 0x50
20000638:	2380      	movs	r3, #128	; 0x80
2000063a:	015b      	lsls	r3, r3, #5
2000063c:	421d      	tst	r5, r3
2000063e:	d12f      	bne.n	200006a0 <dcd_rp2040_irq+0x1a8>
20000640:	2380      	movs	r3, #128	; 0x80
20000642:	01db      	lsls	r3, r3, #7
20000644:	421d      	tst	r5, r3
20000646:	d11a      	bne.n	2000067e <dcd_rp2040_irq+0x186>
20000648:	2380      	movs	r3, #128	; 0x80
2000064a:	021b      	lsls	r3, r3, #8
2000064c:	421d      	tst	r5, r3
2000064e:	d104      	bne.n	2000065a <dcd_rp2040_irq+0x162>
20000650:	42ac      	cmp	r4, r5
20000652:	d000      	beq.n	20000656 <dcd_rp2040_irq+0x15e>
20000654:	e1b3      	b.n	200009be <dcd_rp2040_irq+0x4c6>
20000656:	b004      	add	sp, #16
20000658:	bd70      	pop	{r4, r5, r6, pc}
2000065a:	ae01      	add	r6, sp, #4
2000065c:	220c      	movs	r2, #12
2000065e:	2100      	movs	r1, #0
20000660:	0030      	movs	r0, r6
20000662:	431c      	orrs	r4, r3
20000664:	f000 fbc0 	bl	20000de8 <____wrap_memset_veneer>
20000668:	2305      	movs	r3, #5
2000066a:	2101      	movs	r1, #1
2000066c:	7073      	strb	r3, [r6, #1]
2000066e:	0030      	movs	r0, r6
20000670:	f000 fade 	bl	20000c30 <dcd_event_handler>
20000674:	2280      	movs	r2, #128	; 0x80
20000676:	4b7f      	ldr	r3, [pc, #508]	; (20000874 <dcd_rp2040_irq+0x37c>)
20000678:	0112      	lsls	r2, r2, #4
2000067a:	651a      	str	r2, [r3, #80]	; 0x50
2000067c:	e7e8      	b.n	20000650 <dcd_rp2040_irq+0x158>
2000067e:	ae01      	add	r6, sp, #4
20000680:	220c      	movs	r2, #12
20000682:	2100      	movs	r1, #0
20000684:	0030      	movs	r0, r6
20000686:	431c      	orrs	r4, r3
20000688:	f000 fbae 	bl	20000de8 <____wrap_memset_veneer>
2000068c:	2304      	movs	r3, #4
2000068e:	2101      	movs	r1, #1
20000690:	7073      	strb	r3, [r6, #1]
20000692:	0030      	movs	r0, r6
20000694:	f000 facc 	bl	20000c30 <dcd_event_handler>
20000698:	2210      	movs	r2, #16
2000069a:	4b76      	ldr	r3, [pc, #472]	; (20000874 <dcd_rp2040_irq+0x37c>)
2000069c:	651a      	str	r2, [r3, #80]	; 0x50
2000069e:	e7d3      	b.n	20000648 <dcd_rp2040_irq+0x150>
200006a0:	2200      	movs	r2, #0
200006a2:	431c      	orrs	r4, r3
200006a4:	4b66      	ldr	r3, [pc, #408]	; (20000840 <dcd_rp2040_irq+0x348>)
200006a6:	ae01      	add	r6, sp, #4
200006a8:	601a      	str	r2, [r3, #0]
200006aa:	f7ff fe73 	bl	20000394 <reset_non_control_endpoints>
200006ae:	220c      	movs	r2, #12
200006b0:	2100      	movs	r1, #0
200006b2:	0030      	movs	r0, r6
200006b4:	f000 fb98 	bl	20000de8 <____wrap_memset_veneer>
200006b8:	2301      	movs	r3, #1
200006ba:	2101      	movs	r1, #1
200006bc:	7073      	strb	r3, [r6, #1]
200006be:	0030      	movs	r0, r6
200006c0:	f000 fab6 	bl	20000c30 <dcd_event_handler>
200006c4:	2280      	movs	r2, #128	; 0x80
200006c6:	4b6b      	ldr	r3, [pc, #428]	; (20000874 <dcd_rp2040_irq+0x37c>)
200006c8:	0312      	lsls	r2, r2, #12
200006ca:	651a      	str	r2, [r3, #80]	; 0x50
200006cc:	e7b8      	b.n	20000640 <dcd_rp2040_irq+0x148>
200006ce:	f7ff febf 	bl	20000450 <hw_handle_buff_status>
200006d2:	0034      	movs	r4, r6
200006d4:	e797      	b.n	20000606 <dcd_rp2040_irq+0x10e>
200006d6:	3338      	adds	r3, #56	; 0x38
200006d8:	5ce6      	ldrb	r6, [r4, r3]
200006da:	2e00      	cmp	r6, #0
200006dc:	d100      	bne.n	200006e0 <dcd_rp2040_irq+0x1e8>
200006de:	e722      	b.n	20000526 <dcd_rp2040_irq+0x2e>
200006e0:	3302      	adds	r3, #2
200006e2:	5ce2      	ldrb	r2, [r4, r3]
200006e4:	2a00      	cmp	r2, #0
200006e6:	d100      	bne.n	200006ea <dcd_rp2040_irq+0x1f2>
200006e8:	e71d      	b.n	20000526 <dcd_rp2040_irq+0x2e>
200006ea:	2200      	movs	r2, #0
200006ec:	0020      	movs	r0, r4
200006ee:	54e2      	strb	r2, [r4, r3]
200006f0:	3020      	adds	r0, #32
200006f2:	f000 fa3f 	bl	20000b74 <hw_endpoint_start_next_buffer>
200006f6:	e716      	b.n	20000526 <dcd_rp2040_irq+0x2e>
200006f8:	4b61      	ldr	r3, [pc, #388]	; (20000880 <dcd_rp2040_irq+0x388>)
200006fa:	5ce3      	ldrb	r3, [r4, r3]
200006fc:	2b00      	cmp	r3, #0
200006fe:	d100      	bne.n	20000702 <dcd_rp2040_irq+0x20a>
20000700:	e75b      	b.n	200005ba <dcd_rp2040_irq+0xc2>
20000702:	23ef      	movs	r3, #239	; 0xef
20000704:	009b      	lsls	r3, r3, #2
20000706:	5ce2      	ldrb	r2, [r4, r3]
20000708:	2a00      	cmp	r2, #0
2000070a:	d000      	beq.n	2000070e <dcd_rp2040_irq+0x216>
2000070c:	e14f      	b.n	200009ae <dcd_rp2040_irq+0x4b6>
2000070e:	4b57      	ldr	r3, [pc, #348]	; (2000086c <dcd_rp2040_irq+0x374>)
20000710:	5ce3      	ldrb	r3, [r4, r3]
20000712:	2b02      	cmp	r3, #2
20000714:	d000      	beq.n	20000718 <dcd_rp2040_irq+0x220>
20000716:	e760      	b.n	200005da <dcd_rp2040_irq+0xe2>
20000718:	4b5a      	ldr	r3, [pc, #360]	; (20000884 <dcd_rp2040_irq+0x38c>)
2000071a:	5ce3      	ldrb	r3, [r4, r3]
2000071c:	2b00      	cmp	r3, #0
2000071e:	d000      	beq.n	20000722 <dcd_rp2040_irq+0x22a>
20000720:	e138      	b.n	20000994 <dcd_rp2040_irq+0x49c>
20000722:	e75a      	b.n	200005da <dcd_rp2040_irq+0xe2>
20000724:	4b58      	ldr	r3, [pc, #352]	; (20000888 <dcd_rp2040_irq+0x390>)
20000726:	5ce3      	ldrb	r3, [r4, r3]
20000728:	2b00      	cmp	r3, #0
2000072a:	d100      	bne.n	2000072e <dcd_rp2040_irq+0x236>
2000072c:	e740      	b.n	200005b0 <dcd_rp2040_irq+0xb8>
2000072e:	22df      	movs	r2, #223	; 0xdf
20000730:	0092      	lsls	r2, r2, #2
20000732:	5ca1      	ldrb	r1, [r4, r2]
20000734:	001e      	movs	r6, r3
20000736:	2900      	cmp	r1, #0
20000738:	d100      	bne.n	2000073c <dcd_rp2040_irq+0x244>
2000073a:	e739      	b.n	200005b0 <dcd_rp2040_irq+0xb8>
2000073c:	2300      	movs	r3, #0
2000073e:	54a3      	strb	r3, [r4, r2]
20000740:	23d8      	movs	r3, #216	; 0xd8
20000742:	009b      	lsls	r3, r3, #2
20000744:	18e0      	adds	r0, r4, r3
20000746:	f000 fa15 	bl	20000b74 <hw_endpoint_start_next_buffer>
2000074a:	e731      	b.n	200005b0 <dcd_rp2040_irq+0xb8>
2000074c:	4b4f      	ldr	r3, [pc, #316]	; (2000088c <dcd_rp2040_irq+0x394>)
2000074e:	5ce3      	ldrb	r3, [r4, r3]
20000750:	2b00      	cmp	r3, #0
20000752:	d100      	bne.n	20000756 <dcd_rp2040_irq+0x25e>
20000754:	e727      	b.n	200005a6 <dcd_rp2040_irq+0xae>
20000756:	22cf      	movs	r2, #207	; 0xcf
20000758:	0092      	lsls	r2, r2, #2
2000075a:	5ca1      	ldrb	r1, [r4, r2]
2000075c:	001e      	movs	r6, r3
2000075e:	2900      	cmp	r1, #0
20000760:	d100      	bne.n	20000764 <dcd_rp2040_irq+0x26c>
20000762:	e720      	b.n	200005a6 <dcd_rp2040_irq+0xae>
20000764:	2300      	movs	r3, #0
20000766:	54a3      	strb	r3, [r4, r2]
20000768:	23c8      	movs	r3, #200	; 0xc8
2000076a:	009b      	lsls	r3, r3, #2
2000076c:	18e0      	adds	r0, r4, r3
2000076e:	f000 fa01 	bl	20000b74 <hw_endpoint_start_next_buffer>
20000772:	e718      	b.n	200005a6 <dcd_rp2040_irq+0xae>
20000774:	4b46      	ldr	r3, [pc, #280]	; (20000890 <dcd_rp2040_irq+0x398>)
20000776:	5ce3      	ldrb	r3, [r4, r3]
20000778:	2b00      	cmp	r3, #0
2000077a:	d100      	bne.n	2000077e <dcd_rp2040_irq+0x286>
2000077c:	e70e      	b.n	2000059c <dcd_rp2040_irq+0xa4>
2000077e:	22bf      	movs	r2, #191	; 0xbf
20000780:	0092      	lsls	r2, r2, #2
20000782:	5ca1      	ldrb	r1, [r4, r2]
20000784:	001e      	movs	r6, r3
20000786:	2900      	cmp	r1, #0
20000788:	d100      	bne.n	2000078c <dcd_rp2040_irq+0x294>
2000078a:	e707      	b.n	2000059c <dcd_rp2040_irq+0xa4>
2000078c:	2300      	movs	r3, #0
2000078e:	54a3      	strb	r3, [r4, r2]
20000790:	23b8      	movs	r3, #184	; 0xb8
20000792:	009b      	lsls	r3, r3, #2
20000794:	18e0      	adds	r0, r4, r3
20000796:	f000 f9ed 	bl	20000b74 <hw_endpoint_start_next_buffer>
2000079a:	e6ff      	b.n	2000059c <dcd_rp2040_irq+0xa4>
2000079c:	4b3d      	ldr	r3, [pc, #244]	; (20000894 <dcd_rp2040_irq+0x39c>)
2000079e:	5ce3      	ldrb	r3, [r4, r3]
200007a0:	2b00      	cmp	r3, #0
200007a2:	d100      	bne.n	200007a6 <dcd_rp2040_irq+0x2ae>
200007a4:	e6f5      	b.n	20000592 <dcd_rp2040_irq+0x9a>
200007a6:	22af      	movs	r2, #175	; 0xaf
200007a8:	0092      	lsls	r2, r2, #2
200007aa:	5ca1      	ldrb	r1, [r4, r2]
200007ac:	001e      	movs	r6, r3
200007ae:	2900      	cmp	r1, #0
200007b0:	d100      	bne.n	200007b4 <dcd_rp2040_irq+0x2bc>
200007b2:	e6ee      	b.n	20000592 <dcd_rp2040_irq+0x9a>
200007b4:	2300      	movs	r3, #0
200007b6:	54a3      	strb	r3, [r4, r2]
200007b8:	23a8      	movs	r3, #168	; 0xa8
200007ba:	009b      	lsls	r3, r3, #2
200007bc:	18e0      	adds	r0, r4, r3
200007be:	f000 f9d9 	bl	20000b74 <hw_endpoint_start_next_buffer>
200007c2:	e6e6      	b.n	20000592 <dcd_rp2040_irq+0x9a>
200007c4:	4b34      	ldr	r3, [pc, #208]	; (20000898 <dcd_rp2040_irq+0x3a0>)
200007c6:	5ce3      	ldrb	r3, [r4, r3]
200007c8:	2b00      	cmp	r3, #0
200007ca:	d100      	bne.n	200007ce <dcd_rp2040_irq+0x2d6>
200007cc:	e6dc      	b.n	20000588 <dcd_rp2040_irq+0x90>
200007ce:	229f      	movs	r2, #159	; 0x9f
200007d0:	0092      	lsls	r2, r2, #2
200007d2:	5ca1      	ldrb	r1, [r4, r2]
200007d4:	001e      	movs	r6, r3
200007d6:	2900      	cmp	r1, #0
200007d8:	d100      	bne.n	200007dc <dcd_rp2040_irq+0x2e4>
200007da:	e6d5      	b.n	20000588 <dcd_rp2040_irq+0x90>
200007dc:	2300      	movs	r3, #0
200007de:	54a3      	strb	r3, [r4, r2]
200007e0:	2398      	movs	r3, #152	; 0x98
200007e2:	009b      	lsls	r3, r3, #2
200007e4:	18e0      	adds	r0, r4, r3
200007e6:	f000 f9c5 	bl	20000b74 <hw_endpoint_start_next_buffer>
200007ea:	e6cd      	b.n	20000588 <dcd_rp2040_irq+0x90>
200007ec:	4b2b      	ldr	r3, [pc, #172]	; (2000089c <dcd_rp2040_irq+0x3a4>)
200007ee:	5ce3      	ldrb	r3, [r4, r3]
200007f0:	2b00      	cmp	r3, #0
200007f2:	d100      	bne.n	200007f6 <dcd_rp2040_irq+0x2fe>
200007f4:	e6c3      	b.n	2000057e <dcd_rp2040_irq+0x86>
200007f6:	228f      	movs	r2, #143	; 0x8f
200007f8:	0092      	lsls	r2, r2, #2
200007fa:	5ca1      	ldrb	r1, [r4, r2]
200007fc:	001e      	movs	r6, r3
200007fe:	2900      	cmp	r1, #0
20000800:	d100      	bne.n	20000804 <dcd_rp2040_irq+0x30c>
20000802:	e6bc      	b.n	2000057e <dcd_rp2040_irq+0x86>
20000804:	2300      	movs	r3, #0
20000806:	54a3      	strb	r3, [r4, r2]
20000808:	2388      	movs	r3, #136	; 0x88
2000080a:	009b      	lsls	r3, r3, #2
2000080c:	18e0      	adds	r0, r4, r3
2000080e:	f000 f9b1 	bl	20000b74 <hw_endpoint_start_next_buffer>
20000812:	e6b4      	b.n	2000057e <dcd_rp2040_irq+0x86>
20000814:	33f9      	adds	r3, #249	; 0xf9
20000816:	33ff      	adds	r3, #255	; 0xff
20000818:	5ce3      	ldrb	r3, [r4, r3]
2000081a:	2b00      	cmp	r3, #0
2000081c:	d100      	bne.n	20000820 <dcd_rp2040_irq+0x328>
2000081e:	e6a9      	b.n	20000574 <dcd_rp2040_irq+0x7c>
20000820:	22fe      	movs	r2, #254	; 0xfe
20000822:	0052      	lsls	r2, r2, #1
20000824:	5ca1      	ldrb	r1, [r4, r2]
20000826:	001e      	movs	r6, r3
20000828:	2900      	cmp	r1, #0
2000082a:	d100      	bne.n	2000082e <dcd_rp2040_irq+0x336>
2000082c:	e6a2      	b.n	20000574 <dcd_rp2040_irq+0x7c>
2000082e:	0020      	movs	r0, r4
20000830:	2300      	movs	r3, #0
20000832:	30e1      	adds	r0, #225	; 0xe1
20000834:	54a3      	strb	r3, [r4, r2]
20000836:	30ff      	adds	r0, #255	; 0xff
20000838:	f000 f99c 	bl	20000b74 <hw_endpoint_start_next_buffer>
2000083c:	e69a      	b.n	20000574 <dcd_rp2040_irq+0x7c>
2000083e:	46c0      	nop			; (mov r8, r8)
20000840:	50110000 	.word	0x50110000
20000844:	40054000 	.word	0x40054000
20000848:	200020b4 	.word	0x200020b4
2000084c:	200020a8 	.word	0x200020a8
20000850:	0000023b 	.word	0x0000023b
20000854:	0000027b 	.word	0x0000027b
20000858:	000002bb 	.word	0x000002bb
2000085c:	000002fb 	.word	0x000002fb
20000860:	0000033b 	.word	0x0000033b
20000864:	0000037b 	.word	0x0000037b
20000868:	000003bb 	.word	0x000003bb
2000086c:	000003fb 	.word	0x000003fb
20000870:	20002512 	.word	0x20002512
20000874:	50113000 	.word	0x50113000
20000878:	00020010 	.word	0x00020010
2000087c:	50100000 	.word	0x50100000
20000880:	000003ba 	.word	0x000003ba
20000884:	000003fa 	.word	0x000003fa
20000888:	0000037a 	.word	0x0000037a
2000088c:	0000033a 	.word	0x0000033a
20000890:	000002fa 	.word	0x000002fa
20000894:	000002ba 	.word	0x000002ba
20000898:	0000027a 	.word	0x0000027a
2000089c:	0000023a 	.word	0x0000023a
200008a0:	33b9      	adds	r3, #185	; 0xb9
200008a2:	33ff      	adds	r3, #255	; 0xff
200008a4:	5ce3      	ldrb	r3, [r4, r3]
200008a6:	2b00      	cmp	r3, #0
200008a8:	d100      	bne.n	200008ac <dcd_rp2040_irq+0x3b4>
200008aa:	e65d      	b.n	20000568 <dcd_rp2040_irq+0x70>
200008ac:	22de      	movs	r2, #222	; 0xde
200008ae:	0052      	lsls	r2, r2, #1
200008b0:	5ca1      	ldrb	r1, [r4, r2]
200008b2:	001e      	movs	r6, r3
200008b4:	2900      	cmp	r1, #0
200008b6:	d100      	bne.n	200008ba <dcd_rp2040_irq+0x3c2>
200008b8:	e656      	b.n	20000568 <dcd_rp2040_irq+0x70>
200008ba:	0020      	movs	r0, r4
200008bc:	2300      	movs	r3, #0
200008be:	30a1      	adds	r0, #161	; 0xa1
200008c0:	54a3      	strb	r3, [r4, r2]
200008c2:	30ff      	adds	r0, #255	; 0xff
200008c4:	f000 f956 	bl	20000b74 <hw_endpoint_start_next_buffer>
200008c8:	e64e      	b.n	20000568 <dcd_rp2040_irq+0x70>
200008ca:	3379      	adds	r3, #121	; 0x79
200008cc:	33ff      	adds	r3, #255	; 0xff
200008ce:	5ce3      	ldrb	r3, [r4, r3]
200008d0:	2b00      	cmp	r3, #0
200008d2:	d100      	bne.n	200008d6 <dcd_rp2040_irq+0x3de>
200008d4:	e642      	b.n	2000055c <dcd_rp2040_irq+0x64>
200008d6:	22be      	movs	r2, #190	; 0xbe
200008d8:	0052      	lsls	r2, r2, #1
200008da:	5ca1      	ldrb	r1, [r4, r2]
200008dc:	001e      	movs	r6, r3
200008de:	2900      	cmp	r1, #0
200008e0:	d100      	bne.n	200008e4 <dcd_rp2040_irq+0x3ec>
200008e2:	e63b      	b.n	2000055c <dcd_rp2040_irq+0x64>
200008e4:	0020      	movs	r0, r4
200008e6:	2300      	movs	r3, #0
200008e8:	3061      	adds	r0, #97	; 0x61
200008ea:	54a3      	strb	r3, [r4, r2]
200008ec:	30ff      	adds	r0, #255	; 0xff
200008ee:	f000 f941 	bl	20000b74 <hw_endpoint_start_next_buffer>
200008f2:	e633      	b.n	2000055c <dcd_rp2040_irq+0x64>
200008f4:	3339      	adds	r3, #57	; 0x39
200008f6:	33ff      	adds	r3, #255	; 0xff
200008f8:	5ce3      	ldrb	r3, [r4, r3]
200008fa:	2b00      	cmp	r3, #0
200008fc:	d100      	bne.n	20000900 <dcd_rp2040_irq+0x408>
200008fe:	e627      	b.n	20000550 <dcd_rp2040_irq+0x58>
20000900:	229e      	movs	r2, #158	; 0x9e
20000902:	0052      	lsls	r2, r2, #1
20000904:	5ca1      	ldrb	r1, [r4, r2]
20000906:	001e      	movs	r6, r3
20000908:	2900      	cmp	r1, #0
2000090a:	d100      	bne.n	2000090e <dcd_rp2040_irq+0x416>
2000090c:	e620      	b.n	20000550 <dcd_rp2040_irq+0x58>
2000090e:	0020      	movs	r0, r4
20000910:	2300      	movs	r3, #0
20000912:	3021      	adds	r0, #33	; 0x21
20000914:	54a3      	strb	r3, [r4, r2]
20000916:	30ff      	adds	r0, #255	; 0xff
20000918:	f000 f92c 	bl	20000b74 <hw_endpoint_start_next_buffer>
2000091c:	e618      	b.n	20000550 <dcd_rp2040_irq+0x58>
2000091e:	33f8      	adds	r3, #248	; 0xf8
20000920:	5ce3      	ldrb	r3, [r4, r3]
20000922:	2b00      	cmp	r3, #0
20000924:	d100      	bne.n	20000928 <dcd_rp2040_irq+0x430>
20000926:	e60d      	b.n	20000544 <dcd_rp2040_irq+0x4c>
20000928:	22fc      	movs	r2, #252	; 0xfc
2000092a:	5ca1      	ldrb	r1, [r4, r2]
2000092c:	001e      	movs	r6, r3
2000092e:	2900      	cmp	r1, #0
20000930:	d100      	bne.n	20000934 <dcd_rp2040_irq+0x43c>
20000932:	e607      	b.n	20000544 <dcd_rp2040_irq+0x4c>
20000934:	2300      	movs	r3, #0
20000936:	0020      	movs	r0, r4
20000938:	54a3      	strb	r3, [r4, r2]
2000093a:	30e0      	adds	r0, #224	; 0xe0
2000093c:	f000 f91a 	bl	20000b74 <hw_endpoint_start_next_buffer>
20000940:	e600      	b.n	20000544 <dcd_rp2040_irq+0x4c>
20000942:	33b8      	adds	r3, #184	; 0xb8
20000944:	5ce3      	ldrb	r3, [r4, r3]
20000946:	2b00      	cmp	r3, #0
20000948:	d100      	bne.n	2000094c <dcd_rp2040_irq+0x454>
2000094a:	e5f6      	b.n	2000053a <dcd_rp2040_irq+0x42>
2000094c:	22bc      	movs	r2, #188	; 0xbc
2000094e:	5ca1      	ldrb	r1, [r4, r2]
20000950:	001e      	movs	r6, r3
20000952:	2900      	cmp	r1, #0
20000954:	d100      	bne.n	20000958 <dcd_rp2040_irq+0x460>
20000956:	e5f0      	b.n	2000053a <dcd_rp2040_irq+0x42>
20000958:	2300      	movs	r3, #0
2000095a:	0020      	movs	r0, r4
2000095c:	54a3      	strb	r3, [r4, r2]
2000095e:	30a0      	adds	r0, #160	; 0xa0
20000960:	f000 f908 	bl	20000b74 <hw_endpoint_start_next_buffer>
20000964:	e5e9      	b.n	2000053a <dcd_rp2040_irq+0x42>
20000966:	3378      	adds	r3, #120	; 0x78
20000968:	5ce3      	ldrb	r3, [r4, r3]
2000096a:	2b00      	cmp	r3, #0
2000096c:	d100      	bne.n	20000970 <dcd_rp2040_irq+0x478>
2000096e:	e5df      	b.n	20000530 <dcd_rp2040_irq+0x38>
20000970:	227c      	movs	r2, #124	; 0x7c
20000972:	5ca1      	ldrb	r1, [r4, r2]
20000974:	001e      	movs	r6, r3
20000976:	2900      	cmp	r1, #0
20000978:	d100      	bne.n	2000097c <dcd_rp2040_irq+0x484>
2000097a:	e5d9      	b.n	20000530 <dcd_rp2040_irq+0x38>
2000097c:	2300      	movs	r3, #0
2000097e:	0020      	movs	r0, r4
20000980:	54a3      	strb	r3, [r4, r2]
20000982:	3060      	adds	r0, #96	; 0x60
20000984:	f000 f8f6 	bl	20000b74 <hw_endpoint_start_next_buffer>
20000988:	e5d2      	b.n	20000530 <dcd_rp2040_irq+0x38>
2000098a:	4b0f      	ldr	r3, [pc, #60]	; (200009c8 <dcd_rp2040_irq+0x4d0>)
2000098c:	5ce3      	ldrb	r3, [r4, r3]
2000098e:	2b00      	cmp	r3, #0
20000990:	d100      	bne.n	20000994 <dcd_rp2040_irq+0x49c>
20000992:	e617      	b.n	200005c4 <dcd_rp2040_irq+0xcc>
20000994:	23ff      	movs	r3, #255	; 0xff
20000996:	009b      	lsls	r3, r3, #2
20000998:	5ce2      	ldrb	r2, [r4, r3]
2000099a:	2a00      	cmp	r2, #0
2000099c:	d100      	bne.n	200009a0 <dcd_rp2040_irq+0x4a8>
2000099e:	e61c      	b.n	200005da <dcd_rp2040_irq+0xe2>
200009a0:	2200      	movs	r2, #0
200009a2:	54e2      	strb	r2, [r4, r3]
200009a4:	3b1c      	subs	r3, #28
200009a6:	18e0      	adds	r0, r4, r3
200009a8:	f000 f8e4 	bl	20000b74 <hw_endpoint_start_next_buffer>
200009ac:	e615      	b.n	200005da <dcd_rp2040_irq+0xe2>
200009ae:	2200      	movs	r2, #0
200009b0:	54e2      	strb	r2, [r4, r3]
200009b2:	23e8      	movs	r3, #232	; 0xe8
200009b4:	009b      	lsls	r3, r3, #2
200009b6:	18e0      	adds	r0, r4, r3
200009b8:	f000 f8dc 	bl	20000b74 <hw_endpoint_start_next_buffer>
200009bc:	e6a7      	b.n	2000070e <dcd_rp2040_irq+0x216>
200009be:	0021      	movs	r1, r4
200009c0:	4802      	ldr	r0, [pc, #8]	; (200009cc <dcd_rp2040_irq+0x4d4>)
200009c2:	4069      	eors	r1, r5
200009c4:	f000 fa18 	bl	20000df8 <__panic_veneer>
200009c8:	000003fa 	.word	0x000003fa
200009cc:	1000536c 	.word	0x1000536c

200009d0 <e15_is_bulkin_ep>:
200009d0:	4a08      	ldr	r2, [pc, #32]	; (200009f4 <e15_is_bulkin_ep+0x24>)
200009d2:	0003      	movs	r3, r0
200009d4:	6c12      	ldr	r2, [r2, #64]	; 0x40
200009d6:	2000      	movs	r0, #0
200009d8:	0792      	lsls	r2, r2, #30
200009da:	d403      	bmi.n	200009e4 <e15_is_bulkin_ep+0x14>
200009dc:	789a      	ldrb	r2, [r3, #2]
200009de:	09d2      	lsrs	r2, r2, #7
200009e0:	2a01      	cmp	r2, #1
200009e2:	d000      	beq.n	200009e6 <e15_is_bulkin_ep+0x16>
200009e4:	4770      	bx	lr
200009e6:	7ed8      	ldrb	r0, [r3, #27]
200009e8:	3802      	subs	r0, #2
200009ea:	4243      	negs	r3, r0
200009ec:	4158      	adcs	r0, r3
200009ee:	b2c0      	uxtb	r0, r0
200009f0:	e7f8      	b.n	200009e4 <e15_is_bulkin_ep+0x14>
200009f2:	46c0      	nop			; (mov r8, r8)
200009f4:	50110000 	.word	0x50110000

200009f8 <e15_is_critical_frame_period>:
200009f8:	b510      	push	{r4, lr}
200009fa:	f7ff ffe9 	bl	200009d0 <e15_is_bulkin_ep>
200009fe:	2800      	cmp	r0, #0
20000a00:	d00c      	beq.n	20000a1c <e15_is_critical_frame_period+0x24>
20000a02:	4907      	ldr	r1, [pc, #28]	; (20000a20 <e15_is_critical_frame_period+0x28>)
20000a04:	4b07      	ldr	r3, [pc, #28]	; (20000a24 <e15_is_critical_frame_period+0x2c>)
20000a06:	468c      	mov	ip, r1
20000a08:	4a07      	ldr	r2, [pc, #28]	; (20000a28 <e15_is_critical_frame_period+0x30>)
20000a0a:	6a9b      	ldr	r3, [r3, #40]	; 0x28
20000a0c:	6812      	ldr	r2, [r2, #0]
20000a0e:	4463      	add	r3, ip
20000a10:	1a9b      	subs	r3, r3, r2
20000a12:	2000      	movs	r0, #0
20000a14:	22c6      	movs	r2, #198	; 0xc6
20000a16:	429a      	cmp	r2, r3
20000a18:	4140      	adcs	r0, r0
20000a1a:	b2c0      	uxtb	r0, r0
20000a1c:	bd10      	pop	{r4, pc}
20000a1e:	46c0      	nop			; (mov r8, r8)
20000a20:	fffffce0 	.word	0xfffffce0
20000a24:	40054000 	.word	0x40054000
20000a28:	200020a8 	.word	0x200020a8

20000a2c <prepare_ep_buffer>:
20000a2c:	b5f8      	push	{r3, r4, r5, r6, r7, lr}
20000a2e:	8b02      	ldrh	r2, [r0, #24]
20000a30:	8a83      	ldrh	r3, [r0, #20]
20000a32:	0004      	movs	r4, r0
20000a34:	000f      	movs	r7, r1
20000a36:	1c16      	adds	r6, r2, #0
20000a38:	429a      	cmp	r2, r3
20000a3a:	d900      	bls.n	20000a3e <prepare_ep_buffer+0x12>
20000a3c:	1c1e      	adds	r6, r3, #0
20000a3e:	2580      	movs	r5, #128	; 0x80
20000a40:	b2b6      	uxth	r6, r6
20000a42:	1b9b      	subs	r3, r3, r6
20000a44:	78e2      	ldrb	r2, [r4, #3]
20000a46:	b29b      	uxth	r3, r3
20000a48:	00ed      	lsls	r5, r5, #3
20000a4a:	82a3      	strh	r3, [r4, #20]
20000a4c:	4335      	orrs	r5, r6
20000a4e:	2a00      	cmp	r2, #0
20000a50:	d002      	beq.n	20000a58 <prepare_ep_buffer+0x2c>
20000a52:	2590      	movs	r5, #144	; 0x90
20000a54:	01ad      	lsls	r5, r5, #6
20000a56:	4335      	orrs	r5, r6
20000a58:	2101      	movs	r1, #1
20000a5a:	404a      	eors	r2, r1
20000a5c:	70e2      	strb	r2, [r4, #3]
20000a5e:	7862      	ldrb	r2, [r4, #1]
20000a60:	2a00      	cmp	r2, #0
20000a62:	d009      	beq.n	20000a78 <prepare_ep_buffer+0x4c>
20000a64:	2b00      	cmp	r3, #0
20000a66:	d102      	bne.n	20000a6e <prepare_ep_buffer+0x42>
20000a68:	2380      	movs	r3, #128	; 0x80
20000a6a:	01db      	lsls	r3, r3, #7
20000a6c:	431d      	orrs	r5, r3
20000a6e:	2f00      	cmp	r7, #0
20000a70:	d000      	beq.n	20000a74 <prepare_ep_buffer+0x48>
20000a72:	042d      	lsls	r5, r5, #16
20000a74:	0028      	movs	r0, r5
20000a76:	bdf8      	pop	{r3, r4, r5, r6, r7, pc}
20000a78:	68e3      	ldr	r3, [r4, #12]
20000a7a:	01b8      	lsls	r0, r7, #6
20000a7c:	469c      	mov	ip, r3
20000a7e:	0032      	movs	r2, r6
20000a80:	4460      	add	r0, ip
20000a82:	6921      	ldr	r1, [r4, #16]
20000a84:	f000 f9a0 	bl	20000dc8 <____wrap_memcpy_veneer>
20000a88:	6923      	ldr	r3, [r4, #16]
20000a8a:	469c      	mov	ip, r3
20000a8c:	2380      	movs	r3, #128	; 0x80
20000a8e:	4466      	add	r6, ip
20000a90:	021b      	lsls	r3, r3, #8
20000a92:	431d      	orrs	r5, r3
20000a94:	6126      	str	r6, [r4, #16]
20000a96:	8aa3      	ldrh	r3, [r4, #20]
20000a98:	e7e4      	b.n	20000a64 <prepare_ep_buffer+0x38>
20000a9a:	46c0      	nop			; (mov r8, r8)

20000a9c <sync_ep_buffer>:
20000a9c:	6883      	ldr	r3, [r0, #8]
20000a9e:	b570      	push	{r4, r5, r6, lr}
20000aa0:	0004      	movs	r4, r0
20000aa2:	681d      	ldr	r5, [r3, #0]
20000aa4:	2900      	cmp	r1, #0
20000aa6:	d000      	beq.n	20000aaa <sync_ep_buffer+0xe>
20000aa8:	0c2d      	lsrs	r5, r5, #16
20000aaa:	7863      	ldrb	r3, [r4, #1]
20000aac:	05ad      	lsls	r5, r5, #22
20000aae:	0dad      	lsrs	r5, r5, #22
20000ab0:	2b00      	cmp	r3, #0
20000ab2:	d109      	bne.n	20000ac8 <sync_ep_buffer+0x2c>
20000ab4:	8ae3      	ldrh	r3, [r4, #22]
20000ab6:	18eb      	adds	r3, r5, r3
20000ab8:	82e3      	strh	r3, [r4, #22]
20000aba:	8b23      	ldrh	r3, [r4, #24]
20000abc:	42ab      	cmp	r3, r5
20000abe:	d901      	bls.n	20000ac4 <sync_ep_buffer+0x28>
20000ac0:	2300      	movs	r3, #0
20000ac2:	82a3      	strh	r3, [r4, #20]
20000ac4:	0028      	movs	r0, r5
20000ac6:	bd70      	pop	{r4, r5, r6, pc}
20000ac8:	68e3      	ldr	r3, [r4, #12]
20000aca:	0189      	lsls	r1, r1, #6
20000acc:	469c      	mov	ip, r3
20000ace:	002a      	movs	r2, r5
20000ad0:	6920      	ldr	r0, [r4, #16]
20000ad2:	4461      	add	r1, ip
20000ad4:	f000 f978 	bl	20000dc8 <____wrap_memcpy_veneer>
20000ad8:	8ae3      	ldrh	r3, [r4, #22]
20000ada:	18eb      	adds	r3, r5, r3
20000adc:	82e3      	strh	r3, [r4, #22]
20000ade:	6923      	ldr	r3, [r4, #16]
20000ae0:	195b      	adds	r3, r3, r5
20000ae2:	6123      	str	r3, [r4, #16]
20000ae4:	e7e9      	b.n	20000aba <sync_ep_buffer+0x1e>
20000ae6:	46c0      	nop			; (mov r8, r8)

20000ae8 <_hw_endpoint_xfer_sync>:
20000ae8:	b510      	push	{r4, lr}
20000aea:	0004      	movs	r4, r0
20000aec:	6883      	ldr	r3, [r0, #8]
20000aee:	2100      	movs	r1, #0
20000af0:	681b      	ldr	r3, [r3, #0]
20000af2:	f7ff ffd3 	bl	20000a9c <sync_ep_buffer>
20000af6:	6863      	ldr	r3, [r4, #4]
20000af8:	681b      	ldr	r3, [r3, #0]
20000afa:	005b      	lsls	r3, r3, #1
20000afc:	d502      	bpl.n	20000b04 <_hw_endpoint_xfer_sync+0x1c>
20000afe:	8b23      	ldrh	r3, [r4, #24]
20000b00:	4283      	cmp	r3, r0
20000b02:	d000      	beq.n	20000b06 <_hw_endpoint_xfer_sync+0x1e>
20000b04:	bd10      	pop	{r4, pc}
20000b06:	2101      	movs	r1, #1
20000b08:	0020      	movs	r0, r4
20000b0a:	f7ff ffc7 	bl	20000a9c <sync_ep_buffer>
20000b0e:	e7f9      	b.n	20000b04 <_hw_endpoint_xfer_sync+0x1c>

20000b10 <hw_endpoint_reset_transfer>:
20000b10:	2300      	movs	r3, #0
20000b12:	7683      	strb	r3, [r0, #26]
20000b14:	6143      	str	r3, [r0, #20]
20000b16:	6103      	str	r3, [r0, #16]
20000b18:	4770      	bx	lr
20000b1a:	46c0      	nop			; (mov r8, r8)

20000b1c <_hw_endpoint_buffer_control_update32>:
20000b1c:	b510      	push	{r4, lr}
20000b1e:	6883      	ldr	r3, [r0, #8]
20000b20:	2900      	cmp	r1, #0
20000b22:	d001      	beq.n	20000b28 <_hw_endpoint_buffer_control_update32+0xc>
20000b24:	681c      	ldr	r4, [r3, #0]
20000b26:	4021      	ands	r1, r4
20000b28:	2a00      	cmp	r2, #0
20000b2a:	d011      	beq.n	20000b50 <_hw_endpoint_buffer_control_update32+0x34>
20000b2c:	2480      	movs	r4, #128	; 0x80
20000b2e:	00e4      	lsls	r4, r4, #3
20000b30:	4311      	orrs	r1, r2
20000b32:	4222      	tst	r2, r4
20000b34:	d00c      	beq.n	20000b50 <_hw_endpoint_buffer_control_update32+0x34>
20000b36:	681a      	ldr	r2, [r3, #0]
20000b38:	4222      	tst	r2, r4
20000b3a:	d10b      	bne.n	20000b54 <_hw_endpoint_buffer_control_update32+0x38>
20000b3c:	4a0a      	ldr	r2, [pc, #40]	; (20000b68 <_hw_endpoint_buffer_control_update32+0x4c>)
20000b3e:	400a      	ands	r2, r1
20000b40:	601a      	str	r2, [r3, #0]
20000b42:	e7ff      	b.n	20000b44 <_hw_endpoint_buffer_control_update32+0x28>
20000b44:	e7ff      	b.n	20000b46 <_hw_endpoint_buffer_control_update32+0x2a>
20000b46:	e7ff      	b.n	20000b48 <_hw_endpoint_buffer_control_update32+0x2c>
20000b48:	e7ff      	b.n	20000b4a <_hw_endpoint_buffer_control_update32+0x2e>
20000b4a:	e7ff      	b.n	20000b4c <_hw_endpoint_buffer_control_update32+0x30>
20000b4c:	e7ff      	b.n	20000b4e <_hw_endpoint_buffer_control_update32+0x32>
20000b4e:	6883      	ldr	r3, [r0, #8]
20000b50:	6019      	str	r1, [r3, #0]
20000b52:	bd10      	pop	{r4, pc}
20000b54:	227f      	movs	r2, #127	; 0x7f
20000b56:	7881      	ldrb	r1, [r0, #2]
20000b58:	4804      	ldr	r0, [pc, #16]	; (20000b6c <_hw_endpoint_buffer_control_update32+0x50>)
20000b5a:	09cb      	lsrs	r3, r1, #7
20000b5c:	4011      	ands	r1, r2
20000b5e:	4a04      	ldr	r2, [pc, #16]	; (20000b70 <_hw_endpoint_buffer_control_update32+0x54>)
20000b60:	009b      	lsls	r3, r3, #2
20000b62:	589a      	ldr	r2, [r3, r2]
20000b64:	f000 f948 	bl	20000df8 <__panic_veneer>
20000b68:	fffffbff 	.word	0xfffffbff
20000b6c:	10005380 	.word	0x10005380
20000b70:	20000ec8 	.word	0x20000ec8

20000b74 <hw_endpoint_start_next_buffer>:
20000b74:	6843      	ldr	r3, [r0, #4]
20000b76:	b570      	push	{r4, r5, r6, lr}
20000b78:	2100      	movs	r1, #0
20000b7a:	2580      	movs	r5, #128	; 0x80
20000b7c:	681e      	ldr	r6, [r3, #0]
20000b7e:	0004      	movs	r4, r0
20000b80:	f7ff ff54 	bl	20000a2c <prepare_ep_buffer>
20000b84:	4b13      	ldr	r3, [pc, #76]	; (20000bd4 <hw_endpoint_start_next_buffer+0x60>)
20000b86:	016d      	lsls	r5, r5, #5
20000b88:	6c1b      	ldr	r3, [r3, #64]	; 0x40
20000b8a:	4305      	orrs	r5, r0
20000b8c:	079b      	lsls	r3, r3, #30
20000b8e:	d50f      	bpl.n	20000bb0 <hw_endpoint_start_next_buffer+0x3c>
20000b90:	78a3      	ldrb	r3, [r4, #2]
20000b92:	065b      	lsls	r3, r3, #25
20000b94:	d00f      	beq.n	20000bb6 <hw_endpoint_start_next_buffer+0x42>
20000b96:	4b10      	ldr	r3, [pc, #64]	; (20000bd8 <hw_endpoint_start_next_buffer+0x64>)
20000b98:	401e      	ands	r6, r3
20000b9a:	2380      	movs	r3, #128	; 0x80
20000b9c:	059b      	lsls	r3, r3, #22
20000b9e:	4333      	orrs	r3, r6
20000ba0:	6862      	ldr	r2, [r4, #4]
20000ba2:	2100      	movs	r1, #0
20000ba4:	6013      	str	r3, [r2, #0]
20000ba6:	0020      	movs	r0, r4
20000ba8:	002a      	movs	r2, r5
20000baa:	f7ff ffb7 	bl	20000b1c <_hw_endpoint_buffer_control_update32>
20000bae:	bd70      	pop	{r4, r5, r6, pc}
20000bb0:	78a3      	ldrb	r3, [r4, #2]
20000bb2:	09db      	lsrs	r3, r3, #7
20000bb4:	d0ef      	beq.n	20000b96 <hw_endpoint_start_next_buffer+0x22>
20000bb6:	8aa3      	ldrh	r3, [r4, #20]
20000bb8:	2b00      	cmp	r3, #0
20000bba:	d0ec      	beq.n	20000b96 <hw_endpoint_start_next_buffer+0x22>
20000bbc:	2101      	movs	r1, #1
20000bbe:	0020      	movs	r0, r4
20000bc0:	f7ff ff34 	bl	20000a2c <prepare_ep_buffer>
20000bc4:	23a0      	movs	r3, #160	; 0xa0
20000bc6:	4a05      	ldr	r2, [pc, #20]	; (20000bdc <hw_endpoint_start_next_buffer+0x68>)
20000bc8:	05db      	lsls	r3, r3, #23
20000bca:	4032      	ands	r2, r6
20000bcc:	4305      	orrs	r5, r0
20000bce:	4313      	orrs	r3, r2
20000bd0:	e7e6      	b.n	20000ba0 <hw_endpoint_start_next_buffer+0x2c>
20000bd2:	46c0      	nop			; (mov r8, r8)
20000bd4:	50110000 	.word	0x50110000
20000bd8:	afffffff 	.word	0xafffffff
20000bdc:	dfffffff 	.word	0xdfffffff

20000be0 <hw_endpoint_xfer_continue>:
20000be0:	b570      	push	{r4, r5, r6, lr}
20000be2:	7e85      	ldrb	r5, [r0, #26]
20000be4:	0004      	movs	r4, r0
20000be6:	2d00      	cmp	r5, #0
20000be8:	d013      	beq.n	20000c12 <hw_endpoint_xfer_continue+0x32>
20000bea:	f7ff ff7d 	bl	20000ae8 <_hw_endpoint_xfer_sync>
20000bee:	8aa3      	ldrh	r3, [r4, #20]
20000bf0:	2b00      	cmp	r3, #0
20000bf2:	d101      	bne.n	20000bf8 <hw_endpoint_xfer_continue+0x18>
20000bf4:	0028      	movs	r0, r5
20000bf6:	bd70      	pop	{r4, r5, r6, pc}
20000bf8:	0020      	movs	r0, r4
20000bfa:	f7ff fefd 	bl	200009f8 <e15_is_critical_frame_period>
20000bfe:	1e05      	subs	r5, r0, #0
20000c00:	d003      	beq.n	20000c0a <hw_endpoint_xfer_continue+0x2a>
20000c02:	2301      	movs	r3, #1
20000c04:	2500      	movs	r5, #0
20000c06:	7723      	strb	r3, [r4, #28]
20000c08:	e7f4      	b.n	20000bf4 <hw_endpoint_xfer_continue+0x14>
20000c0a:	0020      	movs	r0, r4
20000c0c:	f7ff ffb2 	bl	20000b74 <hw_endpoint_start_next_buffer>
20000c10:	e7f0      	b.n	20000bf4 <hw_endpoint_xfer_continue+0x14>
20000c12:	227f      	movs	r2, #127	; 0x7f
20000c14:	7881      	ldrb	r1, [r0, #2]
20000c16:	4804      	ldr	r0, [pc, #16]	; (20000c28 <hw_endpoint_xfer_continue+0x48>)
20000c18:	09cb      	lsrs	r3, r1, #7
20000c1a:	4011      	ands	r1, r2
20000c1c:	4a03      	ldr	r2, [pc, #12]	; (20000c2c <hw_endpoint_xfer_continue+0x4c>)
20000c1e:	009b      	lsls	r3, r3, #2
20000c20:	589a      	ldr	r2, [r3, r2]
20000c22:	f000 f8e9 	bl	20000df8 <__panic_veneer>
20000c26:	46c0      	nop			; (mov r8, r8)
20000c28:	100053a0 	.word	0x100053a0
20000c2c:	20000ec8 	.word	0x20000ec8

20000c30 <dcd_event_handler>:
20000c30:	b5f0      	push	{r4, r5, r6, r7, lr}
20000c32:	7843      	ldrb	r3, [r0, #1]
20000c34:	0005      	movs	r5, r0
20000c36:	b085      	sub	sp, #20
20000c38:	2b04      	cmp	r3, #4
20000c3a:	d100      	bne.n	20000c3e <dcd_event_handler+0xe>
20000c3c:	e075      	b.n	20000d2a <dcd_event_handler+0xfa>
20000c3e:	d846      	bhi.n	20000cce <dcd_event_handler+0x9e>
20000c40:	2b02      	cmp	r3, #2
20000c42:	d100      	bne.n	20000c46 <dcd_event_handler+0x16>
20000c44:	e083      	b.n	20000d4e <dcd_event_handler+0x11e>
20000c46:	2b03      	cmp	r3, #3
20000c48:	d155      	bne.n	20000cf6 <dcd_event_handler+0xc6>
20000c4a:	4e50      	ldr	r6, [pc, #320]	; (20000d8c <dcd_event_handler+0x15c>)
20000c4c:	4a50      	ldr	r2, [pc, #320]	; (20000d90 <dcd_event_handler+0x160>)
20000c4e:	2400      	movs	r4, #0
20000c50:	7833      	ldrb	r3, [r6, #0]
20000c52:	2a00      	cmp	r2, #0
20000c54:	d100      	bne.n	20000c58 <dcd_event_handler+0x28>
20000c56:	e092      	b.n	20000d7e <dcd_event_handler+0x14e>
20000c58:	4f4e      	ldr	r7, [pc, #312]	; (20000d94 <dcd_event_handler+0x164>)
20000c5a:	e003      	b.n	20000c64 <dcd_event_handler+0x34>
20000c5c:	3401      	adds	r4, #1
20000c5e:	b2e4      	uxtb	r4, r4
20000c60:	429c      	cmp	r4, r3
20000c62:	d814      	bhi.n	20000c8e <dcd_event_handler+0x5e>
20000c64:	42a3      	cmp	r3, r4
20000c66:	d9f9      	bls.n	20000c5c <dcd_event_handler+0x2c>
20000c68:	6839      	ldr	r1, [r7, #0]
20000c6a:	0062      	lsls	r2, r4, #1
20000c6c:	468c      	mov	ip, r1
20000c6e:	1912      	adds	r2, r2, r4
20000c70:	00d2      	lsls	r2, r2, #3
20000c72:	4462      	add	r2, ip
20000c74:	2a00      	cmp	r2, #0
20000c76:	d0f1      	beq.n	20000c5c <dcd_event_handler+0x2c>
20000c78:	6952      	ldr	r2, [r2, #20]
20000c7a:	2a00      	cmp	r2, #0
20000c7c:	d0ee      	beq.n	20000c5c <dcd_event_handler+0x2c>
20000c7e:	7828      	ldrb	r0, [r5, #0]
20000c80:	6869      	ldr	r1, [r5, #4]
20000c82:	4790      	blx	r2
20000c84:	3401      	adds	r4, #1
20000c86:	7833      	ldrb	r3, [r6, #0]
20000c88:	b2e4      	uxtb	r4, r4
20000c8a:	429c      	cmp	r4, r3
20000c8c:	d9ea      	bls.n	20000c64 <dcd_event_handler+0x34>
20000c8e:	4b42      	ldr	r3, [pc, #264]	; (20000d98 <dcd_event_handler+0x168>)
20000c90:	781a      	ldrb	r2, [r3, #0]
20000c92:	0752      	lsls	r2, r2, #29
20000c94:	d547      	bpl.n	20000d26 <dcd_event_handler+0xf6>
20000c96:	2104      	movs	r1, #4
20000c98:	781a      	ldrb	r2, [r3, #0]
20000c9a:	a801      	add	r0, sp, #4
20000c9c:	438a      	bics	r2, r1
20000c9e:	701a      	strb	r2, [r3, #0]
20000ca0:	2100      	movs	r1, #0
20000ca2:	220c      	movs	r2, #12
20000ca4:	f000 f8a0 	bl	20000de8 <____wrap_memset_veneer>
20000ca8:	466a      	mov	r2, sp
20000caa:	782b      	ldrb	r3, [r5, #0]
20000cac:	7113      	strb	r3, [r2, #4]
20000cae:	2305      	movs	r3, #5
20000cb0:	7153      	strb	r3, [r2, #5]
20000cb2:	4b3a      	ldr	r3, [pc, #232]	; (20000d9c <dcd_event_handler+0x16c>)
20000cb4:	681c      	ldr	r4, [r3, #0]
20000cb6:	6962      	ldr	r2, [r4, #20]
20000cb8:	f3ef 8110 	mrs	r1, PRIMASK
20000cbc:	b672      	cpsid	i
20000cbe:	6813      	ldr	r3, [r2, #0]
20000cc0:	2b00      	cmp	r3, #0
20000cc2:	d0fc      	beq.n	20000cbe <dcd_event_handler+0x8e>
20000cc4:	f3bf 8f5f 	dmb	sy
20000cc8:	61a1      	str	r1, [r4, #24]
20000cca:	a901      	add	r1, sp, #4
20000ccc:	e020      	b.n	20000d10 <dcd_event_handler+0xe0>
20000cce:	2b05      	cmp	r3, #5
20000cd0:	d111      	bne.n	20000cf6 <dcd_event_handler+0xc6>
20000cd2:	4b31      	ldr	r3, [pc, #196]	; (20000d98 <dcd_event_handler+0x168>)
20000cd4:	781a      	ldrb	r2, [r3, #0]
20000cd6:	07d2      	lsls	r2, r2, #31
20000cd8:	d525      	bpl.n	20000d26 <dcd_event_handler+0xf6>
20000cda:	2104      	movs	r1, #4
20000cdc:	781a      	ldrb	r2, [r3, #0]
20000cde:	438a      	bics	r2, r1
20000ce0:	701a      	strb	r2, [r3, #0]
20000ce2:	4b2e      	ldr	r3, [pc, #184]	; (20000d9c <dcd_event_handler+0x16c>)
20000ce4:	681c      	ldr	r4, [r3, #0]
20000ce6:	6962      	ldr	r2, [r4, #20]
20000ce8:	f3ef 8110 	mrs	r1, PRIMASK
20000cec:	b672      	cpsid	i
20000cee:	6813      	ldr	r3, [r2, #0]
20000cf0:	2b00      	cmp	r3, #0
20000cf2:	d109      	bne.n	20000d08 <dcd_event_handler+0xd8>
20000cf4:	e7fb      	b.n	20000cee <dcd_event_handler+0xbe>
20000cf6:	4b29      	ldr	r3, [pc, #164]	; (20000d9c <dcd_event_handler+0x16c>)
20000cf8:	681c      	ldr	r4, [r3, #0]
20000cfa:	6962      	ldr	r2, [r4, #20]
20000cfc:	f3ef 8110 	mrs	r1, PRIMASK
20000d00:	b672      	cpsid	i
20000d02:	6813      	ldr	r3, [r2, #0]
20000d04:	2b00      	cmp	r3, #0
20000d06:	d0fc      	beq.n	20000d02 <dcd_event_handler+0xd2>
20000d08:	f3bf 8f5f 	dmb	sy
20000d0c:	61a1      	str	r1, [r4, #24]
20000d0e:	0029      	movs	r1, r5
20000d10:	0020      	movs	r0, r4
20000d12:	f000 f851 	bl	20000db8 <__tu_fifo_write_veneer>
20000d16:	6962      	ldr	r2, [r4, #20]
20000d18:	69a3      	ldr	r3, [r4, #24]
20000d1a:	f3bf 8f5f 	dmb	sy
20000d1e:	2100      	movs	r1, #0
20000d20:	6011      	str	r1, [r2, #0]
20000d22:	f383 8810 	msr	PRIMASK, r3
20000d26:	b005      	add	sp, #20
20000d28:	bdf0      	pop	{r4, r5, r6, r7, pc}
20000d2a:	4b1b      	ldr	r3, [pc, #108]	; (20000d98 <dcd_event_handler+0x168>)
20000d2c:	781a      	ldrb	r2, [r3, #0]
20000d2e:	07d2      	lsls	r2, r2, #31
20000d30:	d5f9      	bpl.n	20000d26 <dcd_event_handler+0xf6>
20000d32:	2104      	movs	r1, #4
20000d34:	781a      	ldrb	r2, [r3, #0]
20000d36:	430a      	orrs	r2, r1
20000d38:	701a      	strb	r2, [r3, #0]
20000d3a:	4b18      	ldr	r3, [pc, #96]	; (20000d9c <dcd_event_handler+0x16c>)
20000d3c:	681c      	ldr	r4, [r3, #0]
20000d3e:	6962      	ldr	r2, [r4, #20]
20000d40:	f3ef 8110 	mrs	r1, PRIMASK
20000d44:	b672      	cpsid	i
20000d46:	6813      	ldr	r3, [r2, #0]
20000d48:	2b00      	cmp	r3, #0
20000d4a:	d1dd      	bne.n	20000d08 <dcd_event_handler+0xd8>
20000d4c:	e7fb      	b.n	20000d46 <dcd_event_handler+0x116>
20000d4e:	2001      	movs	r0, #1
20000d50:	4a11      	ldr	r2, [pc, #68]	; (20000d98 <dcd_event_handler+0x168>)
20000d52:	7811      	ldrb	r1, [r2, #0]
20000d54:	4381      	bics	r1, r0
20000d56:	7011      	strb	r1, [r2, #0]
20000d58:	7811      	ldrb	r1, [r2, #0]
20000d5a:	4399      	bics	r1, r3
20000d5c:	2300      	movs	r3, #0
20000d5e:	7011      	strb	r1, [r2, #0]
20000d60:	2104      	movs	r1, #4
20000d62:	7053      	strb	r3, [r2, #1]
20000d64:	7813      	ldrb	r3, [r2, #0]
20000d66:	438b      	bics	r3, r1
20000d68:	7013      	strb	r3, [r2, #0]
20000d6a:	4b0c      	ldr	r3, [pc, #48]	; (20000d9c <dcd_event_handler+0x16c>)
20000d6c:	681c      	ldr	r4, [r3, #0]
20000d6e:	6962      	ldr	r2, [r4, #20]
20000d70:	f3ef 8110 	mrs	r1, PRIMASK
20000d74:	b672      	cpsid	i
20000d76:	6813      	ldr	r3, [r2, #0]
20000d78:	2b00      	cmp	r3, #0
20000d7a:	d1c5      	bne.n	20000d08 <dcd_event_handler+0xd8>
20000d7c:	e7fb      	b.n	20000d76 <dcd_event_handler+0x146>
20000d7e:	2200      	movs	r2, #0
20000d80:	3201      	adds	r2, #1
20000d82:	b2d2      	uxtb	r2, r2
20000d84:	429a      	cmp	r2, r3
20000d86:	d9fb      	bls.n	20000d80 <dcd_event_handler+0x150>
20000d88:	e781      	b.n	20000c8e <dcd_event_handler+0x5e>
20000d8a:	46c0      	nop			; (mov r8, r8)
20000d8c:	20002511 	.word	0x20002511
20000d90:	1000249d 	.word	0x1000249d
20000d94:	20001aac 	.word	0x20001aac
20000d98:	20001dd4 	.word	0x20001dd4
20000d9c:	20001e2c 	.word	0x20001e2c

20000da0 <__aeabi_idiv0>:
20000da0:	4770      	bx	lr
20000da2:	46c0      	nop			; (mov r8, r8)
20000da4:	0000      	movs	r0, r0
	...

20000da8 <__best_effort_wfe_or_timeout_veneer>:
20000da8:	b401      	push	{r0}
20000daa:	4802      	ldr	r0, [pc, #8]	; (20000db4 <__best_effort_wfe_or_timeout_veneer+0xc>)
20000dac:	4684      	mov	ip, r0
20000dae:	bc01      	pop	{r0}
20000db0:	4760      	bx	ip
20000db2:	bf00      	nop
20000db4:	100011a9 	.word	0x100011a9

20000db8 <__tu_fifo_write_veneer>:
20000db8:	b401      	push	{r0}
20000dba:	4802      	ldr	r0, [pc, #8]	; (20000dc4 <__tu_fifo_write_veneer+0xc>)
20000dbc:	4684      	mov	ip, r0
20000dbe:	bc01      	pop	{r0}
20000dc0:	4760      	bx	ip
20000dc2:	bf00      	nop
20000dc4:	10004449 	.word	0x10004449

20000dc8 <____wrap_memcpy_veneer>:
20000dc8:	b401      	push	{r0}
20000dca:	4802      	ldr	r0, [pc, #8]	; (20000dd4 <____wrap_memcpy_veneer+0xc>)
20000dcc:	4684      	mov	ip, r0
20000dce:	bc01      	pop	{r0}
20000dd0:	4760      	bx	ip
20000dd2:	bf00      	nop
20000dd4:	10002125 	.word	0x10002125

20000dd8 <____wrap___aeabi_lmul_veneer>:
20000dd8:	b401      	push	{r0}
20000dda:	4802      	ldr	r0, [pc, #8]	; (20000de4 <____wrap___aeabi_lmul_veneer+0xc>)
20000ddc:	4684      	mov	ip, r0
20000dde:	bc01      	pop	{r0}
20000de0:	4760      	bx	ip
20000de2:	bf00      	nop
20000de4:	10002021 	.word	0x10002021

20000de8 <____wrap_memset_veneer>:
20000de8:	b401      	push	{r0}
20000dea:	4802      	ldr	r0, [pc, #8]	; (20000df4 <____wrap_memset_veneer+0xc>)
20000dec:	4684      	mov	ip, r0
20000dee:	bc01      	pop	{r0}
20000df0:	4760      	bx	ip
20000df2:	bf00      	nop
20000df4:	10002119 	.word	0x10002119

20000df8 <__panic_veneer>:
20000df8:	b401      	push	{r0}
20000dfa:	4802      	ldr	r0, [pc, #8]	; (20000e04 <__panic_veneer+0xc>)
20000dfc:	4684      	mov	ip, r0
20000dfe:	bc01      	pop	{r0}
20000e00:	4760      	bx	ip
20000e02:	bf00      	nop
20000e04:	10001e25 	.word	0x10001e25

20000e08 <__time_us_64_veneer>:
20000e08:	b401      	push	{r0}
20000e0a:	4802      	ldr	r0, [pc, #8]	; (20000e14 <__time_us_64_veneer+0xc>)
20000e0c:	4684      	mov	ip, r0
20000e0e:	bc01      	pop	{r0}
20000e10:	4760      	bx	ip
20000e12:	bf00      	nop
20000e14:	10001351 	.word	0x10001351

20000e18 <striped_spin_lock_num>:
20000e18:	00000010                                ....

20000e1c <irq_handler_chain_slots>:
20000e1c:	00000000 	.word	0x00000000
20000e20:	00010000 	.word	0x00010000
	...
20000e2c:	00020000 	.word	0x00020000
	...
20000e38:	00030000 	.word	0x00030000
	...
20000e44:	00ff0000 	.word	0x00ff0000
20000e48:	00000000 	.word	0x00000000

20000e4c <irq_handler_chain_first_slot>:
20000e4c:	b501      	push	{r0, lr}
20000e4e:	6848      	ldr	r0, [r1, #4]
20000e50:	3101      	adds	r1, #1
20000e52:	468e      	mov	lr, r1
20000e54:	4700      	bx	r0

20000e56 <irq_handler_chain_remove_tail>:
20000e56:	4670      	mov	r0, lr
20000e58:	3809      	subs	r0, #9
20000e5a:	4901      	ldr	r1, [pc, #4]	; (20000e60 <irq_handler_chain_remove_tail+0xa>)
20000e5c:	4788      	blx	r1
20000e5e:	bd01      	pop	{r0, pc}
20000e60:	10000b1d 	.word	0x10000b1d

20000e64 <default_alarm_pool>:
20000e64:	20000e7c 00000000 20001750 2000203c     |.. ....P.. < . 
	...

20000e7c <default_alarm_pool_heap>:
20000e7c:	2000204c 00000000 00000000 00000010     L . ............
20000e8c:	00000000                                ....

20000e90 <aeabi_bits_funcs>:
20000e90:	00003350 	.word	0x00003350
20000e94:	0000334c 	.word	0x0000334c
20000e98:	00003354 	.word	0x00003354
20000e9c:	00003352 	.word	0x00003352

20000ea0 <aeabi_bits_funcs_end>:
20000ea0:	0000534d 	.word	0x0000534d
20000ea4:	0000434d 	.word	0x0000434d
20000ea8:	00003453 	.word	0x00003453
20000eac:	00003443 	.word	0x00003443

20000eb0 <stdio_usb>:
20000eb0:	100025e5 00000000 10002555 100024dd     .%......U%...$..
20000ec0:	00000000 00000100                       ........

20000ec8 <ep_dir_string>:
20000ec8:	100053cc 100053d0                       .S...S..

20000ed0 <_usbd_qdef>:
20000ed0:	20001e30 000c0010 00000000 00000000     0.. ............
	...

20000eec <_usbd_rhport>:
20000eec:	000000ff                                ....

20000ef0 <_impure_ptr>:
20000ef0:	20000ef8 00000000                       ... ....

20000ef8 <impure_data>:
20000ef8:	00000000 200011e4 2000124c 200012b4     ....... L.. ... 
	...
20000fa0:	00000001 00000000 abcd330e e66d1234     .........3..4.m.
20000fb0:	0005deec 0000000b 00000000 00000000     ................
	...

20001320 <__malloc_sbrk_base>:
20001320:	ffffffff                                ....

20001324 <__malloc_trim_threshold>:
20001324:	00020000                                ....

20001328 <__malloc_av_>:
	...
20001330:	20001328 20001328 20001330 20001330     (.. (.. 0.. 0.. 
20001340:	20001338 20001338 20001340 20001340     8.. 8.. @.. @.. 
20001350:	20001348 20001348 20001350 20001350     H.. H.. P.. P.. 
20001360:	20001358 20001358 20001360 20001360     X.. X.. `.. `.. 
20001370:	20001368 20001368 20001370 20001370     h.. h.. p.. p.. 
20001380:	20001378 20001378 20001380 20001380     x.. x.. ... ... 
20001390:	20001388 20001388 20001390 20001390     ... ... ... ... 
200013a0:	20001398 20001398 200013a0 200013a0     ... ... ... ... 
200013b0:	200013a8 200013a8 200013b0 200013b0     ... ... ... ... 
200013c0:	200013b8 200013b8 200013c0 200013c0     ... ... ... ... 
200013d0:	200013c8 200013c8 200013d0 200013d0     ... ... ... ... 
200013e0:	200013d8 200013d8 200013e0 200013e0     ... ... ... ... 
200013f0:	200013e8 200013e8 200013f0 200013f0     ... ... ... ... 
20001400:	200013f8 200013f8 20001400 20001400     ... ... ... ... 
20001410:	20001408 20001408 20001410 20001410     ... ... ... ... 
20001420:	20001418 20001418 20001420 20001420     ... ...  ..  .. 
20001430:	20001428 20001428 20001430 20001430     (.. (.. 0.. 0.. 
20001440:	20001438 20001438 20001440 20001440     8.. 8.. @.. @.. 
20001450:	20001448 20001448 20001450 20001450     H.. H.. P.. P.. 
20001460:	20001458 20001458 20001460 20001460     X.. X.. `.. `.. 
20001470:	20001468 20001468 20001470 20001470     h.. h.. p.. p.. 
20001480:	20001478 20001478 20001480 20001480     x.. x.. ... ... 
20001490:	20001488 20001488 20001490 20001490     ... ... ... ... 
200014a0:	20001498 20001498 200014a0 200014a0     ... ... ... ... 
200014b0:	200014a8 200014a8 200014b0 200014b0     ... ... ... ... 
200014c0:	200014b8 200014b8 200014c0 200014c0     ... ... ... ... 
200014d0:	200014c8 200014c8 200014d0 200014d0     ... ... ... ... 
200014e0:	200014d8 200014d8 200014e0 200014e0     ... ... ... ... 
200014f0:	200014e8 200014e8 200014f0 200014f0     ... ... ... ... 
20001500:	200014f8 200014f8 20001500 20001500     ... ... ... ... 
20001510:	20001508 20001508 20001510 20001510     ... ... ... ... 
20001520:	20001518 20001518 20001520 20001520     ... ...  ..  .. 
20001530:	20001528 20001528 20001530 20001530     (.. (.. 0.. 0.. 
20001540:	20001538 20001538 20001540 20001540     8.. 8.. @.. @.. 
20001550:	20001548 20001548 20001550 20001550     H.. H.. P.. P.. 
20001560:	20001558 20001558 20001560 20001560     X.. X.. `.. `.. 
20001570:	20001568 20001568 20001570 20001570     h.. h.. p.. p.. 
20001580:	20001578 20001578 20001580 20001580     x.. x.. ... ... 
20001590:	20001588 20001588 20001590 20001590     ... ... ... ... 
200015a0:	20001598 20001598 200015a0 200015a0     ... ... ... ... 
200015b0:	200015a8 200015a8 200015b0 200015b0     ... ... ... ... 
200015c0:	200015b8 200015b8 200015c0 200015c0     ... ... ... ... 
200015d0:	200015c8 200015c8 200015d0 200015d0     ... ... ... ... 
200015e0:	200015d8 200015d8 200015e0 200015e0     ... ... ... ... 
200015f0:	200015e8 200015e8 200015f0 200015f0     ... ... ... ... 
20001600:	200015f8 200015f8 20001600 20001600     ... ... ... ... 
20001610:	20001608 20001608 20001610 20001610     ... ... ... ... 
20001620:	20001618 20001618 20001620 20001620     ... ...  ..  .. 
20001630:	20001628 20001628 20001630 20001630     (.. (.. 0.. 0.. 
20001640:	20001638 20001638 20001640 20001640     8.. 8.. @.. @.. 
20001650:	20001648 20001648 20001650 20001650     H.. H.. P.. P.. 
20001660:	20001658 20001658 20001660 20001660     X.. X.. `.. `.. 
20001670:	20001668 20001668 20001670 20001670     h.. h.. p.. p.. 
20001680:	20001678 20001678 20001680 20001680     x.. x.. ... ... 
20001690:	20001688 20001688 20001690 20001690     ... ... ... ... 
200016a0:	20001698 20001698 200016a0 200016a0     ... ... ... ... 
200016b0:	200016a8 200016a8 200016b0 200016b0     ... ... ... ... 
200016c0:	200016b8 200016b8 200016c0 200016c0     ... ... ... ... 
200016d0:	200016c8 200016c8 200016d0 200016d0     ... ... ... ... 
200016e0:	200016d8 200016d8 200016e0 200016e0     ... ... ... ... 
200016f0:	200016e8 200016e8 200016f0 200016f0     ... ... ... ... 
20001700:	200016f8 200016f8 20001700 20001700     ... ... ... ... 
20001710:	20001708 20001708 20001710 20001710     ... ... ... ... 
20001720:	20001718 20001718 20001720 20001720     ... ...  ..  .. 

20001730 <print_mutex>:
	...

20001738 <__mutex_array_end>:
20001738:	10002109 	.word	0x10002109
2000173c:	10001ea1 	.word	0x10001ea1
20001740:	10001f61 	.word	0x10001f61
20001744:	10002055 	.word	0x10002055

20001748 <__frame_dummy_init_array_entry>:
20001748:	10000331 1000290d                       1....)..
